 client

 Timestamp is 5b877deb (Thu Aug 30 01:17:31 2018)

 Preferred load address is 10000000

 Start         Length     Name                   Class
 0001:00000000 0006364eH .text                   CODE
 0001:00063650 00000dc2H .text$x                 CODE
 0001:00064420 000001b6H .text$yc                CODE
 0001:000645e0 0000006eH .text$yd                CODE
 0002:00000000 000009e8H .idata$5                DATA
 0002:000009e8 00000004H .CRT$XCA                DATA
 0002:000009ec 00000050H .CRT$XCU                DATA
 0002:00000a3c 00000004H .CRT$XCZ                DATA
 0002:00000a40 00000004H .CRT$XIA                DATA
 0002:00000a44 00000014H .CRT$XIC                DATA
 0002:00000a58 00000004H .CRT$XIZ                DATA
 0002:00000a5c 00000004H .CRT$XPA                DATA
 0002:00000a60 00000004H .CRT$XPX                DATA
 0002:00000a64 00000004H .CRT$XPXA               DATA
 0002:00000a68 00000004H .CRT$XPZ                DATA
 0002:00000a6c 00000004H .CRT$XTA                DATA
 0002:00000a70 00000004H .CRT$XTZ                DATA
 0002:00000a80 0001bb18H .rdata                  DATA
 0002:0001c598 0000342cH .rdata$r                DATA
 0002:0001f9d0 00000094H .rdata$sxdata           DATA
 0002:0001fa64 00000004H .rtc$IAA                DATA
 0002:0001fa68 00000004H .rtc$IZZ                DATA
 0002:0001fa6c 00000004H .rtc$TAA                DATA
 0002:0001fa70 00000004H .rtc$TZZ                DATA
 0002:0001fa78 00001114H .xdata$x                DATA
 0002:00020b8c 00000078H .idata$2                DATA
 0002:00020c04 00000014H .idata$3                DATA
 0002:00020c18 000009e8H .idata$4                DATA
 0002:00021600 0000662cH .idata$6                DATA
 0002:00027c30 00006fc9H .edata                  DATA
 0003:00000000 00003450H .data                   DATA
 0003:00003460 000403c8H .bss                    DATA

  Address         Publics by Value              Rva+Base       Lib:Object

 0000:00000000       __except_list              00000000     <absolute>
 0000:00000025       ___safe_se_handler_count   00000025     <absolute>
 0000:00000000       ___ImageBase               10000000     <linker-defined>
 0001:00000000       ??3CBaseEntity@@SAXPAXPAUentvars_s@@@Z 10001000 f i chumtoadweapon.obj
 0001:00000020       ?SUB_CallUseToggle@CBaseEntity@@QAEXXZ 10001020 f i chumtoadweapon.obj
 0001:00000040       ?CallMonsterThink@CBaseMonster@@QAEXXZ 10001040 f i chumtoadweapon.obj
 0001:00000050       ??0CChumToadWeapon@@QAE@XZ 10001050 f   chumtoadweapon.obj
 0001:00000080       ?SetNextThink@CBaseEntity@@UAEXM@Z 10001080 f i chumtoadweapon.obj
 0001:000000a0       ?AbsoluteNextThink@CBaseEntity@@UAEXM@Z 100010a0 f i chumtoadweapon.obj
 0001:000000c0       ?GiveAmmo@CBaseEntity@@UAEHHPADH@Z 100010c0 f i chumtoadweapon.obj
 0001:000000d0       ?IsMoving@CBaseEntity@@UAEHXZ 100010d0 f i chumtoadweapon.obj
 0001:00000130       ?IsAlive@CBasePlayer@@UAEHXZ 10001130 f i hl_baseentity.obj
 0001:00000130       ?IsAlive@CBaseEntity@@UAEHXZ 10001130 f i chumtoadweapon.obj
 0001:00000160       ?IsBSPModel@CBaseEntity@@UAEHXZ 10001160 f i chumtoadweapon.obj
 0001:00000180       ?ReflectGauss@CBaseEntity@@UAEHXZ 10001180 f i chumtoadweapon.obj
 0001:000001b0       ?HasTarget@CBaseEntity@@UAEHH@Z 100011b0 f i chumtoadweapon.obj
 0001:00000210       ?Think@CBaseEntity@@UAEXXZ 10001210 f i chumtoadweapon.obj
 0001:00000220       ?Touch@CBaseEntity@@UAEXPAV1@@Z 10001220 f i chumtoadweapon.obj
 0001:00000240       ?Use@CBaseEntity@@UAEXPAV1@0W4USE_TYPE@@M@Z 10001240 f i chumtoadweapon.obj
 0001:00000270       ?Blocked@CBaseEntity@@UAEXPAV1@@Z 10001270 f i chumtoadweapon.obj
 0001:00000290       ?Center@CBaseEntity@@UAE?AVVector@@XZ 10001290 f i chumtoadweapon.obj
 0001:000002f0       ?EarPosition@CBaseEntity@@UAE?AVVector@@XZ 100012f0 f i chumtoadweapon.obj
 0001:000002f0       ?EyePosition@CBaseEntity@@UAE?AVVector@@XZ 100012f0 f i chumtoadweapon.obj
 0001:00000320       ?BodyTargetMod@CBaseEntity@@UAE?AVVector@@ABV2@@Z 10001320 f i chumtoadweapon.obj
 0001:00000320       ?BodyTarget@CBaseEntity@@UAE?AVVector@@ABV2@@Z 10001320 f i chumtoadweapon.obj
 0001:00000340       ?Illumination@CBaseEntity@@UAEHXZ 10001340 f i chumtoadweapon.obj
 0001:00000360       ?AddWeapon@CBasePlayerWeapon@@UAEHXZ 10001360 f i chumtoadweapon.obj
 0001:00000380       ?customAttachToPlayer@CChumToadWeapon@@UAEXPAVCBasePlayer@@@Z 10001380 f   chumtoadweapon.obj
 0001:00000390       ?GetPickupWalkerName@CChumToadWeapon@@UAEPBDXZ 10001390 f   chumtoadweapon.obj
 0001:000003a0       ?Spawn@CChumToadWeapon@@UAEXXZ 100013a0 f   chumtoadweapon.obj
 0001:00000460       ?ItemRotate@CChumToadWeapon@@QAEXXZ 10001460 f   chumtoadweapon.obj
 0001:000004f0       ?Precache@CChumToadWeapon@@UAEXXZ 100014f0 f   chumtoadweapon.obj
 0001:00000580       ?setModel@CChumToadWeapon@@UAEXPBD@Z 10001580 f   chumtoadweapon.obj
 0001:00000580       ?setModel@CSqueak@@UAEXPBD@Z 10001580 f   squeakgrenade.obj
 0001:00000590       ?GetItemInfo@CChumToadWeapon@@UAEHPAUItemInfo@@@Z 10001590 f   chumtoadweapon.obj
 0001:00000600       ?Deploy@CChumToadWeapon@@UAEHXZ 10001600 f   chumtoadweapon.obj
 0001:000006d0       ?Holster@CChumToadWeapon@@UAEXH@Z 100016d0 f   chumtoadweapon.obj
 0001:000007c0       ?ItemPostFrame@CChumToadWeapon@@UAEXXZ 100017c0 f   chumtoadweapon.obj
 0001:00000820       ?WeaponIdle@CChumToadWeapon@@UAEXXZ 10001820 f   chumtoadweapon.obj
 0001:000009c0       ??$GetClassPtr@VCChumToadWeapon@@@@YAPAVCChumToadWeapon@@PAV0@@Z 100019c0 f i chumtoadweapon.obj
 0001:00000a60       _weapon_chumtoad           10001a60 f   chumtoadweapon.obj
 0001:00000a70       ?FallThinkCustom@CChumToadWeapon@@QAEXXZ 10001a70 f   chumtoadweapon.obj
 0001:00000b30       ?setModel@CChumToadWeapon@@UAEXXZ 10001b30 f   chumtoadweapon.obj
 0001:00000b30       ?setModel@CSqueak@@UAEXXZ  10001b30 f   squeakgrenade.obj
 0001:00000b40       ?FallInit@CChumToadWeapon@@UAEXXZ 10001b40 f   chumtoadweapon.obj
 0001:00000bd0       ?setExtraBulletFalse@CGlock@@QAEXXZ 10001bd0 f   glock.obj
 0001:00000be0       ?setExtraBulletTrue@CGlock@@QAEXXZ 10001be0 f   glock.obj
 0001:00000bf0       ?getExtraBullet@CGlock@@QAEHXZ 10001bf0 f   glock.obj
 0001:00000c00       ??0CGlock@@QAE@XZ          10001c00 f   glock.obj
 0001:00000cc0       ?customAttachToPlayer@CGlock@@UAEXPAVCBasePlayer@@@Z 10001cc0 f   glock.obj
 0001:00000d40       ?ExtractAmmo@CGlock@@UAEHPAVCBasePlayerWeapon@@@Z 10001d40 f   glock.obj
 0001:00000e70       ?weaponCanHaveExtraCheck@CGlock@@UAEHPAVCBasePlayer@@@Z 10001e70 f   glock.obj
 0001:00000ea0       ?weaponPlayPickupSoundException@CGlock@@UAEHPAVCBasePlayer@@@Z 10001ea0 f   glock.obj
 0001:00000eb0       ?Spawn@CGlock@@UAEXXZ      10001eb0 f   glock.obj
 0001:00000f90       ?Precache@CGlock@@UAEXXZ   10001f90 f   glock.obj
 0001:00001030       ?GetItemInfo@CGlock@@UAEHPAUItemInfo@@@Z 10002030 f   glock.obj
 0001:000010e0       ?Deploy@CGlock@@UAEHXZ     100020e0 f   glock.obj
 0001:00001140       ?Holster@CGlock@@UAEXH@Z   10002140 f   glock.obj
 0001:000011e0       ?ItemPostFrame@CGlock@@UAEXXZ 100021e0 f   glock.obj
 0001:00001850       ?GlockFire@CGlock@@QAEXMMH@Z 10002850 f   glock.obj
 0001:00001b00       ?Reload@CGlock@@UAEXXZ     10002b00 f   glock.obj
 0001:00001b90       ?WeaponIdle@CGlock@@UAEXXZ 10002b90 f   glock.obj
 0001:00001cf0       ?SendWeaponAnim@CGlock@@UAEXHHH@Z 10002cf0 f   glock.obj
 0001:00001d00       ??$GetClassPtr@VCGlock@@@@YAPAVCGlock@@PAV0@@Z 10002d00 f i glock.obj
 0001:00001da0       ?KeyValue@CBaseEntity@@UAEXPAUKeyValueData_s@@@Z 10002da0 f i glock.obj
 0001:00001dc0       _weapon_glocksilencer      10002dc0 f   glock.obj
 0001:00001dc0       _weapon_glock              10002dc0 f   glock.obj
 0001:00001dc0       _weapon_9mmhandgunsilencer 10002dc0 f   glock.obj
 0001:00001dc0       _weapon_9mmhandgun         10002dc0 f   glock.obj
 0001:00001dd0       ?SecondaryAttack@CGlock@@UAEXXZ 10002dd0 f   glock.obj
 0001:00001e40       ?PrimaryAttack@CGlock@@UAEXXZ 10002e40 f   glock.obj
 0001:00001ec0       ?Spawn@CGlockAmmo@@EAEXXZ  10002ec0 f i glock.obj
 0001:00001ef0       ?Precache@CGlockAmmo@@EAEXXZ 10002ef0 f i glock.obj
 0001:00001f10       ?AddAmmo@CGlockAmmo@@EAEHPAVCBaseEntity@@@Z 10002f10 f i glock.obj
 0001:00001f80       ??$GetClassPtr@VCGlockAmmo@@@@YAPAVCGlockAmmo@@PAV0@@Z 10002f80 f i glock.obj
 0001:00002030       _ammo_9mmclip              10003030 f   glock.obj
 0001:00002030       _ammo_glockclip            10003030 f   glock.obj
 0001:00002040       ?ENT@@YAPAUedict_s@@H@Z    10003040 f   util_entity.obj
 0001:00002050       ?OFFSET@@YAHPBUedict_s@@@Z 10003050 f   util_entity.obj
 0001:00002060       ?UTIL_VarArgsVA@@YAPADPBDPAD@Z 10003060 f   util_printout.obj
 0001:00002080       ?UTIL_VarArgsVA_ID@@YAPADPBDPAD@Z 10003080 f   util_printout.obj
 0001:000020a0       ?easyPrint@@YAXPBDZZ       100030a0 f   util_printout.obj
 0001:000020d0       ?easyPrintLine@@YAXPBDZZ   100030d0 f   util_printout.obj
 0001:00002120       ?easyForcePrintLine@@YAXPBDZZ 10003120 f   util_printout.obj
 0001:00002160       ?tryStringToFloat@@YAMPBD@Z 10003160 f   util_shared.obj
 0001:00002250       ?lowercase@@YAXPAD@Z       10003250 f   util_shared.obj
 0001:00002280       ?UTIL_substring@@YAXPADPBDHH@Z 10003280 f   util_shared.obj
 0001:000022f0       ?UTIL_findCharFirstPos@@YAHPBDD@Z 100032f0 f   util_shared.obj
 0001:00002320       ?copyString@@YAXPBDPADH@Z  10003320 f   util_shared.obj
 0001:00002370       ?lengthOfString@@YAHPBD@Z  10003370 f   util_shared.obj
 0001:00002390       ?isStringEmpty@@YAHPBD@Z   10003390 f   util_shared.obj
 0001:000023b0       ?stringEndsWith@@YAHPBD0@Z 100033b0 f   util_shared.obj
 0001:00002400       ?processLoadHiddenCVarLine@@YAXPBD@Z 10003400 f   util_shared.obj
 0001:00002630       ?loadHiddenCVars@@YAXXZ    10003630 f   util_shared.obj
 0001:000026e0       ?saveHiddenCVars@@YAXXZ    100036e0 f   util_shared.obj
 0001:00002790       ?copyString@@YAXPBDPAD@Z   10003790 f   util_shared.obj
 0001:000027b0       ?UTIL_appendToEnd@@YAXPADPBD@Z 100037b0 f   util_shared.obj
 0001:000027f0       ?checkSubFileExistence@@YAHPBD@Z 100037f0 f   util_shared.obj
 0001:00002880       ?determineHiddenMemPath@@YAXXZ 10003880 f   util_shared.obj
 0001:00002a00       ??4?$Dar@PAVChangeSignal@vgui@@@vgui@@QAEAAV01@ABV01@@Z 10003a00 f i ammo.obj
 0001:00002a00       ??4?$Dar@PAVFrame@vgui@@@vgui@@QAEAAV01@ABV01@@Z 10003a00 f i ammo.obj
 0001:00002a00       ??4?$Dar@PAVLabel@vgui@@@vgui@@QAEAAV01@ABV01@@Z 10003a00 f i ammo.obj
 0001:00002a00       ??4?$Dar@PAVFocusChangeSignal@vgui@@@vgui@@QAEAAV01@ABV01@@Z 10003a00 f i ammo.obj
 0001:00002a00       ??4?$Dar@PAV?$Dar@D@vgui@@@vgui@@QAEAAV01@ABV01@@Z 10003a00 f i ammo.obj
 0001:00002a00       ??4?$Dar@PAVInputSignal@vgui@@@vgui@@QAEAAV01@ABV01@@Z 10003a00 f i ammo.obj
 0001:00002a00       ??4?$Dar@PAVTickSignal@vgui@@@vgui@@QAEAAV01@ABV01@@Z 10003a00 f i ammo.obj
 0001:00002a00       ??4?$Dar@PAVPanel@vgui@@@vgui@@QAEAAV01@ABV01@@Z 10003a00 f i ammo.obj
 0001:00002a00       ??4?$Dar@PAVIntChangeSignal@vgui@@@vgui@@QAEAAV01@ABV01@@Z 10003a00 f i ammo.obj
 0001:00002a00       ??4?$Dar@PAVButton@vgui@@@vgui@@QAEAAV01@ABV01@@Z 10003a00 f i ammo.obj
 0001:00002a00       ??4?$Dar@PAVRepaintSignal@vgui@@@vgui@@QAEAAV01@ABV01@@Z 10003a00 f i ammo.obj
 0001:00002a00       ??4?$Dar@PAVFrameSignal@vgui@@@vgui@@QAEAAV01@ABV01@@Z 10003a00 f i ammo.obj
 0001:00002a00       ??4?$Dar@PAVSurfaceBase@vgui@@@vgui@@QAEAAV01@ABV01@@Z 10003a00 f i ammo.obj
 0001:00002a00       ??4?$Dar@PAD@vgui@@QAEAAV01@ABV01@@Z 10003a00 f i ammo.obj
 0001:00002a00       ??4?$Dar@PAVActionSignal@vgui@@@vgui@@QAEAAV01@ABV01@@Z 10003a00 f i ammo.obj
 0001:00002a00       ??4?$Dar@PAVDesktopIcon@vgui@@@vgui@@QAEAAV01@ABV01@@Z 10003a00 f i ammo.obj
 0001:00002a00       ??4?$Dar@H@vgui@@QAEAAV01@ABV01@@Z 10003a00 f i ammo.obj
 0001:00002a00       ??4?$Dar@D@vgui@@QAEAAV01@ABV01@@Z 10003a00 f i ammo.obj
 0001:00002a20       ??0Scheme@vgui@@QAE@ABV01@@Z 10003a20 f i ammo.obj
 0001:00002aa0       ??4Scheme@vgui@@QAEAAV01@ABV01@@Z 10003aa0 f i ammo.obj
 0001:00002b20       ??0Color@vgui@@QAE@ABV01@@Z 10003b20 f i ammo.obj
 0001:00002b40       ??4Color@vgui@@QAEAAV01@ABV01@@Z 10003b40 f i ammo.obj
 0001:00002b70       ??0Panel@vgui@@QAE@ABV01@@Z 10003b70 f i ammo.obj
 0001:00002d20       ??4Panel@vgui@@QAEAAV01@ABV01@@Z 10003d20 f i ammo.obj
 0001:00002f00       ??0Label@vgui@@QAE@XZ      10003f00 f i ammo.obj
 0001:00002f30       ??0Label@vgui@@QAE@ABV01@@Z 10003f30 f i ammo.obj
 0001:00002fb0       ??4Label@vgui@@QAEAAV01@ABV01@@Z 10003fb0 f i ammo.obj
 0001:00003020       ??0Image@vgui@@QAE@ABV01@@Z 10004020 f i ammo.obj
 0001:00003070       ??4Image@vgui@@QAEAAV01@ABV01@@Z 10004070 f i ammo.obj
 0001:000030c0       ??0Border@vgui@@QAE@ABV01@@Z 100040c0 f i ammo.obj
 0001:00003130       ??4Border@vgui@@QAEAAV01@ABV01@@Z 10004130 f i ammo.obj
 0001:000031a0       ?setLineColor@LineBorder@vgui@@QAEXHHHH@Z 100041a0 f i ammo.obj
 0001:00003200       ??0LineBorder@vgui@@QAE@ABV01@@Z 10004200 f i ammo.obj
 0001:00003280       ??4LineBorder@vgui@@QAEAAV01@ABV01@@Z 10004280 f i ammo.obj
 0001:000032c0       ??0ImagePanel@vgui@@QAE@XZ 100042c0 f i ammo.obj
 0001:000032e0       ??0ImagePanel@vgui@@QAE@ABV01@@Z 100042e0 f i ammo.obj
 0001:00003310       ??4TextPanel@vgui@@QAEAAV01@ABV01@@Z 10004310 f i ammo.obj
 0001:00003310       ??4ImagePanel@vgui@@QAEAAV01@ABV01@@Z 10004310 f i ammo.obj
 0001:00003340       ??0Bitmap@vgui@@QAE@ABV01@@Z 10004340 f i ammo.obj
 0001:000033a0       ??4Bitmap@vgui@@QAEAAV01@ABV01@@Z 100043a0 f i ammo.obj
 0001:000033a0       ??4BitmapTGA@vgui@@QAEAAV01@ABV01@@Z 100043a0 f i ammo.obj
 0001:00003400       ??0BitmapTGA@vgui@@QAE@ABV01@@Z 10004400 f i ammo.obj
 0001:00003470       ??0InputSignal@vgui@@QAE@XZ 10004470 f i ammo.obj
 0001:00003480       ??0InputSignal@vgui@@QAE@ABV01@@Z 10004480 f i ammo.obj
 0001:00003490       ??4InputStream@vgui@@QAEAAV01@ABV01@@Z 10004490 f i ammo.obj
 0001:00003490       ??4IntChangeSignal@vgui@@QAEAAV01@ABV01@@Z 10004490 f i hud.obj
 0001:00003490       ??4ActionSignal@vgui@@QAEAAV01@ABV01@@Z 10004490 f i ammo.obj
 0001:00003490       ??4Layout@vgui@@QAEAAV01@ABV01@@Z 10004490 f i vgui_int.obj
 0001:00003490       ??4InputSignal@vgui@@QAEAAV01@ABV01@@Z 10004490 f i ammo.obj
 0001:000034a0       ??0Button@vgui@@QAE@ABV01@@Z 100044a0 f i ammo.obj
 0001:00003540       ??4Button@vgui@@QAEAAV01@ABV01@@Z 10004540 f i ammo.obj
 0001:000035d0       ?GetSprite@CHud@@QAEHH@Z   100045d0 f i ammo.obj
 0001:000035f0       ?UnpackRGB@@YAXAAH00K@Z    100045f0 f i ammo.obj
 0001:00003630       ??0Frame@vgui@@QAE@ABV01@@Z 10004630 f i ammo.obj
 0001:00003770       ??4Frame@vgui@@QAEAAV01@ABV01@@Z 10004770 f i ammo.obj
 0001:000038a0       ??0TextPanel@vgui@@QAE@ABV01@@Z 100048a0 f i ammo.obj
 0001:000038d0       ??0ActionSignal@vgui@@QAE@XZ 100048d0 f i ammo.obj
 0001:000038e0       ??0ActionSignal@vgui@@QAE@ABV01@@Z 100048e0 f i ammo.obj
 0001:000038f0       ??0InputStream@vgui@@QAE@XZ 100048f0 f i ammo.obj
 0001:00003900       ??0InputStream@vgui@@QAE@ABV01@@Z 10004900 f i ammo.obj
 0001:00003910       ??0FileInputStream@vgui@@QAE@ABV01@@Z 10004910 f i ammo.obj
 0001:00003930       ??0DesktopIcon@vgui@@QAE@ABV01@@Z 10004930 f i ammo.obj
 0001:00003980       ??4DesktopIcon@vgui@@QAEAAV01@ABV01@@Z 10004980 f i ammo.obj
 0001:000039c0       ??0Cursor@vgui@@QAE@ABV01@@Z 100049c0 f i ammo.obj
 0001:000039f0       ??4Cursor@vgui@@QAEAAV01@ABV01@@Z 100049f0 f i ammo.obj
 0001:00003a20       ??0App@vgui@@QAE@ABV01@@Z  10004a20 f i ammo.obj
 0001:00003b90       ??4App@vgui@@QAEAAV01@ABV01@@Z 10004b90 f i ammo.obj
 0001:00003d30       ??0MiniApp@vgui@@QAE@ABV01@@Z 10004d30 f i ammo.obj
 0001:00003d50       ??4BorderLayout@vgui@@QAEAAV01@ABV01@@Z 10004d50 f i vgui_int.obj
 0001:00003d50       ??4MiniApp@vgui@@QAEAAV01@ABV01@@Z 10004d50 f i ammo.obj
 0001:00003d50       ??4FileInputStream@vgui@@QAEAAV01@ABV01@@Z 10004d50 f i ammo.obj
 0001:00003d70       ??4String@vgui@@QAEAAV01@ABV01@@Z 10004d70 f i ammo.obj
 0001:00003d80       ??0ScrollPanel@vgui@@QAE@ABV01@@Z 10004d80 f i ammo.obj
 0001:00003de0       ??4ScrollPanel@vgui@@QAEAAV01@ABV01@@Z 10004de0 f i ammo.obj
 0001:00003e40       ??0ScrollBar@vgui@@QAE@ABV01@@Z 10004e40 f i ammo.obj
 0001:00003ec0       ??0Slider@vgui@@QAE@ABV01@@Z 10004ec0 f i ammo.obj
 0001:00003fb0       ??4Slider@vgui@@QAEAAV01@ABV01@@Z 10004fb0 f i ammo.obj
 0001:00003fb0       ??4Slider2@vgui@@QAEAAV01@ABV01@@Z 10004fb0 f i hud.obj
 0001:000040a0       ??0Font@vgui@@QAE@ABV01@@Z 100050a0 f i ammo.obj
 0001:000040d0       ??4Font@vgui@@QAEAAV01@ABV01@@Z 100050d0 f i ammo.obj
 0001:000040f0       ?CountAmmo@WeaponsResource@@QAEHH@Z 100050f0 f   ammo.obj
 0001:00004110       ?HasAmmo@WeaponsResource@@QAEHPAUWEAPON@@@Z 10005110 f   ammo.obj
 0001:00004170       ?GetFirstPos@WeaponsResource@@QAEPAUWEAPON@@H@Z 10005170 f   ammo.obj
 0001:000041c0       ?GetNextActivePos@WeaponsResource@@QAEPAUWEAPON@@HH@Z 100051c0 f   ammo.obj
 0001:00004210       ?Reset@CHudAmmo@@UAEXXZ    10005210 f   ammo.obj
 0001:00004270       ?Think@CHudAmmo@@UAEXXZ    10005270 f   ammo.obj
 0001:00004360       ?SelectSlot@WeaponsResource@@QAEXHHH@Z 10005360 f   ammo.obj
 0001:000044d0       ?MsgFunc_AmmoX@CHudAmmo@@QAEHPBDHPAX@Z 100054d0 f   ammo.obj
 0001:00004510       ?MsgFunc_AmmoPickup@CHudAmmo@@QAEHPBDHPAX@Z 10005510 f   ammo.obj
 0001:00004550       ?MsgFunc_WeapPickup@CHudAmmo@@QAEHPBDHPAX@Z 10005550 f   ammo.obj
 0001:00004580       ?MsgFunc_ItemPickup@CHudAmmo@@QAEHPBDHPAX@Z 10005580 f   ammo.obj
 0001:000045b0       ?checkEqualStrings@@YA_NPAD0D@Z 100055b0 f   ammo.obj
 0001:00004600       ?MsgFunc_AntidoteP@CHudAmmo@@QAEHPBDHPAX@Z 10005600 f   ammo.obj
 0001:00004630       ?MsgFunc_AdrenalineP@CHudAmmo@@QAEHPBDHPAX@Z 10005630 f   ammo.obj
 0001:00004660       ?MsgFunc_RadiationP@CHudAmmo@@QAEHPBDHPAX@Z 10005660 f   ammo.obj
 0001:00004690       ?MsgFunc_UpdTankTime@CHudAmmo@@QAEHPBDHPAX@Z 10005690 f   ammo.obj
 0001:000046c0       ?MsgFunc_UpdLJCharge@CHudAmmo@@QAEHPBDHPAX@Z 100056c0 f   ammo.obj
 0001:00004700       ?updateCrosshair@CHudAmmo@@QAEXXZ 10005700 f   ammo.obj
 0001:00004920       ?MsgFunc_UpdACH@CHudAmmo@@QAEHPBDHPAX@Z 10005920 f   ammo.obj
 0001:00004930       ?MsgFunc_UpdFrz@CHudAmmo@@QAEHPBDHPAX@Z 10005930 f   ammo.obj
 0001:00004970       ?MsgFunc_HasGlockSil@CHudAmmo@@QAEHPBDHPAX@Z 10005970 f   ammo.obj
 0001:000049a0       ?SlotInput@CHudAmmo@@QAEXH@Z 100059a0 f   ammo.obj
 0001:00004a00       ?UserCmd_Slot1@CHudAmmo@@QAAXXZ 10005a00 f   ammo.obj
 0001:00004a10       ?UserCmd_Slot2@CHudAmmo@@QAAXXZ 10005a10 f   ammo.obj
 0001:00004a20       ?UserCmd_Slot3@CHudAmmo@@QAAXXZ 10005a20 f   ammo.obj
 0001:00004a30       ?UserCmd_Slot4@CHudAmmo@@QAAXXZ 10005a30 f   ammo.obj
 0001:00004a40       ?UserCmd_Slot5@CHudAmmo@@QAAXXZ 10005a40 f   ammo.obj
 0001:00004a50       ?UserCmd_Slot6@CHudAmmo@@QAAXXZ 10005a50 f   ammo.obj
 0001:00004a60       ?UserCmd_Slot7@CHudAmmo@@QAAXXZ 10005a60 f   ammo.obj
 0001:00004a70       ?UserCmd_Slot8@CHudAmmo@@QAAXXZ 10005a70 f   ammo.obj
 0001:00004a80       ?UserCmd_Slot9@CHudAmmo@@QAAXXZ 10005a80 f   ammo.obj
 0001:00004a90       ?UserCmd_Slot10@CHudAmmo@@QAAXXZ 10005a90 f   ammo.obj
 0001:00004aa0       ?UserCmd_Close@CHudAmmo@@QAAXXZ 10005aa0 f   ammo.obj
 0001:00004ae0       ?UserCmd_NextWeapon@CHudAmmo@@QAAXXZ 10005ae0 f   ammo.obj
 0001:00004be0       ?UserCmd_PrevWeapon@CHudAmmo@@QAAXXZ 10005be0 f   ammo.obj
 0001:00004cf0       ?DrawBar@@YAHHHHHM@Z       10005cf0 f   ammo.obj
 0001:00004da0       ?DrawAmmoBar@@YAXPAUWEAPON@@HHHH@Z 10005da0 f   ammo.obj
 0001:00004e60       ?setWeaponMenuColor@@YAXAAH00@Z 10005e60 f   ammo.obj
 0001:00004e80       ?setWeaponMenuColorOutOfAmmo@@YAXAAH00@Z 10005e80 f   ammo.obj
 0001:00004ea0       ?DrawWList@CHudAmmo@@QAEHM@Z 10005ea0 f   ammo.obj
 0001:00005490       ?GetSpriteList@@YAPAUclient_sprite_s@@PAU1@PBDHH@Z 10006490 f   ammo.obj
 0001:00005500       ?ensureCapacity@?$Dar@D@vgui@@QAEXH@Z 10006500 f i ammo.obj
 0001:00005580       ?addElement@?$Dar@D@vgui@@QAEXD@Z 10006580 f i ammo.obj
 0001:000055b0       ?hasElement@?$Dar@D@vgui@@QAE_ND@Z 100065b0 f i ammo.obj
 0001:000055e0       ?putElement@?$Dar@D@vgui@@QAEXD@Z 100065e0 f i ammo.obj
 0001:00005620       ?insertElementAt@?$Dar@D@vgui@@QAEXDH@Z 10006620 f i ammo.obj
 0001:00005690       ?setElementAt@?$Dar@D@vgui@@QAEXDH@Z 10006690 f i ammo.obj
 0001:000056b0       ?removeElementAt@?$Dar@D@vgui@@QAEXH@Z 100066b0 f i ammo.obj
 0001:000056f0       ?removeElement@?$Dar@D@vgui@@QAEXD@Z 100066f0 f i ammo.obj
 0001:00005740       ??A?$Dar@D@vgui@@QAEDH@Z   10006740 f i ammo.obj
 0001:00005760       ?hasElement@?$Dar@PAD@vgui@@QAE_NPAD@Z 10006760 f i ammo.obj
 0001:00005760       ?hasElement@?$Dar@PAVFrame@vgui@@@vgui@@QAE_NPAVFrame@2@@Z 10006760 f i ammo.obj
 0001:00005760       ?hasElement@?$Dar@PAVInputSignal@vgui@@@vgui@@QAE_NPAVInputSignal@2@@Z 10006760 f i ammo.obj
 0001:00005760       ?hasElement@?$Dar@PAVButton@vgui@@@vgui@@QAE_NPAVButton@2@@Z 10006760 f i ammo.obj
 0001:00005760       ?hasElement@?$Dar@PAVFocusChangeSignal@vgui@@@vgui@@QAE_NPAVFocusChangeSignal@2@@Z 10006760 f i ammo.obj
 0001:00005760       ?hasElement@?$Dar@PAVSurfaceBase@vgui@@@vgui@@QAE_NPAVSurfaceBase@2@@Z 10006760 f i ammo.obj
 0001:00005760       ?hasElement@?$Dar@PAVRepaintSignal@vgui@@@vgui@@QAE_NPAVRepaintSignal@2@@Z 10006760 f i ammo.obj
 0001:00005760       ?hasElement@?$Dar@PAVIntChangeSignal@vgui@@@vgui@@QAE_NPAVIntChangeSignal@2@@Z 10006760 f i ammo.obj
 0001:00005760       ?hasElement@?$Dar@PAVLabel@vgui@@@vgui@@QAE_NPAVLabel@2@@Z 10006760 f i ammo.obj
 0001:00005760       ?hasElement@?$Dar@PAVPanel@vgui@@@vgui@@QAE_NPAVPanel@2@@Z 10006760 f i ammo.obj
 0001:00005760       ?hasElement@?$Dar@H@vgui@@QAE_NH@Z 10006760 f i ammo.obj
 0001:00005760       ?hasElement@?$Dar@PAVDesktopIcon@vgui@@@vgui@@QAE_NPAVDesktopIcon@2@@Z 10006760 f i ammo.obj
 0001:00005760       ?hasElement@?$Dar@PAVActionSignal@vgui@@@vgui@@QAE_NPAVActionSignal@2@@Z 10006760 f i ammo.obj
 0001:00005760       ?hasElement@?$Dar@PAVTickSignal@vgui@@@vgui@@QAE_NPAVTickSignal@2@@Z 10006760 f i ammo.obj
 0001:00005760       ?hasElement@?$Dar@PAV?$Dar@D@vgui@@@vgui@@QAE_NPAV?$Dar@D@2@@Z 10006760 f i ammo.obj
 0001:00005760       ?hasElement@?$Dar@PAVChangeSignal@vgui@@@vgui@@QAE_NPAVChangeSignal@2@@Z 10006760 f i ammo.obj
 0001:00005760       ?hasElement@?$Dar@PAVFrameSignal@vgui@@@vgui@@QAE_NPAVFrameSignal@2@@Z 10006760 f i ammo.obj
 0001:00005790       ?removeAll@?$Dar@PAVFocusChangeSignal@vgui@@@vgui@@QAEXXZ 10006790 f i ammo.obj
 0001:00005790       ?removeAll@?$Dar@PAVFrame@vgui@@@vgui@@QAEXXZ 10006790 f i ammo.obj
 0001:00005790       ?removeAll@?$Dar@PAVPanel@vgui@@@vgui@@QAEXXZ 10006790 f i ammo.obj
 0001:00005790       ?removeAll@?$Dar@PAVDesktopIcon@vgui@@@vgui@@QAEXXZ 10006790 f i ammo.obj
 0001:00005790       ?removeAll@?$Dar@PAVSurfaceBase@vgui@@@vgui@@QAEXXZ 10006790 f i ammo.obj
 0001:00005790       ?removeAll@?$Dar@PAVFrameSignal@vgui@@@vgui@@QAEXXZ 10006790 f i ammo.obj
 0001:00005790       ?removeAll@?$Dar@PAVChangeSignal@vgui@@@vgui@@QAEXXZ 10006790 f i ammo.obj
 0001:00005790       ?removeAll@?$Dar@PAV?$Dar@D@vgui@@@vgui@@QAEXXZ 10006790 f i ammo.obj
 0001:00005790       ?removeAll@?$Dar@PAVInputSignal@vgui@@@vgui@@QAEXXZ 10006790 f i ammo.obj
 0001:00005790       ?removeAll@?$Dar@PAVButton@vgui@@@vgui@@QAEXXZ 10006790 f i ammo.obj
 0001:00005790       ?removeAll@?$Dar@H@vgui@@QAEXXZ 10006790 f i ammo.obj
 0001:00005790       ?removeAll@?$Dar@PAVIntChangeSignal@vgui@@@vgui@@QAEXXZ 10006790 f i ammo.obj
 0001:00005790       ?removeAll@?$Dar@D@vgui@@QAEXXZ 10006790 f i ammo.obj
 0001:00005790       ?removeAll@?$Dar@PAVLabel@vgui@@@vgui@@QAEXXZ 10006790 f i ammo.obj
 0001:00005790       ?removeAll@?$Dar@PAVActionSignal@vgui@@@vgui@@QAEXXZ 10006790 f i ammo.obj
 0001:00005790       ?removeAll@?$Dar@PAD@vgui@@QAEXXZ 10006790 f i ammo.obj
 0001:00005790       ?removeAll@?$Dar@PAVRepaintSignal@vgui@@@vgui@@QAEXXZ 10006790 f i ammo.obj
 0001:00005790       ?removeAll@?$Dar@PAVTickSignal@vgui@@@vgui@@QAEXXZ 10006790 f i ammo.obj
 0001:000057a0       ?insertElementAt@?$Dar@PAD@vgui@@QAEXPADH@Z 100067a0 f i ammo.obj
 0001:000057a0       ?insertElementAt@?$Dar@PAVButton@vgui@@@vgui@@QAEXPAVButton@2@H@Z 100067a0 f i ammo.obj
 0001:000057a0       ?insertElementAt@?$Dar@PAVPanel@vgui@@@vgui@@QAEXPAVPanel@2@H@Z 100067a0 f i ammo.obj
 0001:000057a0       ?insertElementAt@?$Dar@PAVActionSignal@vgui@@@vgui@@QAEXPAVActionSignal@2@H@Z 100067a0 f i ammo.obj
 0001:000057a0       ?insertElementAt@?$Dar@PAVFrame@vgui@@@vgui@@QAEXPAVFrame@2@H@Z 100067a0 f i ammo.obj
 0001:000057a0       ?insertElementAt@?$Dar@PAVChangeSignal@vgui@@@vgui@@QAEXPAVChangeSignal@2@H@Z 100067a0 f i ammo.obj
 0001:000057a0       ?insertElementAt@?$Dar@PAVIntChangeSignal@vgui@@@vgui@@QAEXPAVIntChangeSignal@2@H@Z 100067a0 f i ammo.obj
 0001:000057a0       ?insertElementAt@?$Dar@PAVFocusChangeSignal@vgui@@@vgui@@QAEXPAVFocusChangeSignal@2@H@Z 100067a0 f i ammo.obj
 0001:000057a0       ?insertElementAt@?$Dar@PAVDesktopIcon@vgui@@@vgui@@QAEXPAVDesktopIcon@2@H@Z 100067a0 f i ammo.obj
 0001:000057a0       ?insertElementAt@?$Dar@PAVRepaintSignal@vgui@@@vgui@@QAEXPAVRepaintSignal@2@H@Z 100067a0 f i ammo.obj
 0001:000057a0       ?insertElementAt@?$Dar@H@vgui@@QAEXHH@Z 100067a0 f i ammo.obj
 0001:000057a0       ?insertElementAt@?$Dar@PAVSurfaceBase@vgui@@@vgui@@QAEXPAVSurfaceBase@2@H@Z 100067a0 f i ammo.obj
 0001:000057a0       ?insertElementAt@?$Dar@PAVTickSignal@vgui@@@vgui@@QAEXPAVTickSignal@2@H@Z 100067a0 f i ammo.obj
 0001:000057a0       ?insertElementAt@?$Dar@PAVInputSignal@vgui@@@vgui@@QAEXPAVInputSignal@2@H@Z 100067a0 f i ammo.obj
 0001:000057a0       ?insertElementAt@?$Dar@PAVLabel@vgui@@@vgui@@QAEXPAVLabel@2@H@Z 100067a0 f i ammo.obj
 0001:000057a0       ?insertElementAt@?$Dar@PAV?$Dar@D@vgui@@@vgui@@QAEXPAV?$Dar@D@2@H@Z 100067a0 f i ammo.obj
 0001:000057a0       ?insertElementAt@?$Dar@PAVFrameSignal@vgui@@@vgui@@QAEXPAVFrameSignal@2@H@Z 100067a0 f i ammo.obj
 0001:00005810       ?setElementAt@?$Dar@PAVRepaintSignal@vgui@@@vgui@@QAEXPAVRepaintSignal@2@H@Z 10006810 f i ammo.obj
 0001:00005810       ?setElementAt@?$Dar@PAVTickSignal@vgui@@@vgui@@QAEXPAVTickSignal@2@H@Z 10006810 f i ammo.obj
 0001:00005810       ?setElementAt@?$Dar@PAVChangeSignal@vgui@@@vgui@@QAEXPAVChangeSignal@2@H@Z 10006810 f i ammo.obj
 0001:00005810       ?setElementAt@?$Dar@PAVActionSignal@vgui@@@vgui@@QAEXPAVActionSignal@2@H@Z 10006810 f i ammo.obj
 0001:00005810       ?setElementAt@?$Dar@PAVLabel@vgui@@@vgui@@QAEXPAVLabel@2@H@Z 10006810 f i ammo.obj
 0001:00005810       ?setElementAt@?$Dar@PAVSurfaceBase@vgui@@@vgui@@QAEXPAVSurfaceBase@2@H@Z 10006810 f i ammo.obj
 0001:00005810       ?setElementAt@?$Dar@PAVFocusChangeSignal@vgui@@@vgui@@QAEXPAVFocusChangeSignal@2@H@Z 10006810 f i ammo.obj
 0001:00005810       ?setElementAt@?$Dar@PAD@vgui@@QAEXPADH@Z 10006810 f i ammo.obj
 0001:00005810       ?setElementAt@?$Dar@PAVButton@vgui@@@vgui@@QAEXPAVButton@2@H@Z 10006810 f i ammo.obj
 0001:00005810       ?setElementAt@?$Dar@H@vgui@@QAEXHH@Z 10006810 f i ammo.obj
 0001:00005810       ?setElementAt@?$Dar@PAVInputSignal@vgui@@@vgui@@QAEXPAVInputSignal@2@H@Z 10006810 f i ammo.obj
 0001:00005810       ?setElementAt@?$Dar@PAVFrameSignal@vgui@@@vgui@@QAEXPAVFrameSignal@2@H@Z 10006810 f i ammo.obj
 0001:00005810       ?setElementAt@?$Dar@PAVIntChangeSignal@vgui@@@vgui@@QAEXPAVIntChangeSignal@2@H@Z 10006810 f i ammo.obj
 0001:00005810       ?setElementAt@?$Dar@PAVDesktopIcon@vgui@@@vgui@@QAEXPAVDesktopIcon@2@H@Z 10006810 f i ammo.obj
 0001:00005810       ?setElementAt@?$Dar@PAVPanel@vgui@@@vgui@@QAEXPAVPanel@2@H@Z 10006810 f i ammo.obj
 0001:00005810       ?setElementAt@?$Dar@PAVFrame@vgui@@@vgui@@QAEXPAVFrame@2@H@Z 10006810 f i ammo.obj
 0001:00005810       ?setElementAt@?$Dar@PAV?$Dar@D@vgui@@@vgui@@QAEXPAV?$Dar@D@2@H@Z 10006810 f i ammo.obj
 0001:00005830       ?removeElementAt@?$Dar@PAVFrameSignal@vgui@@@vgui@@QAEXH@Z 10006830 f i ammo.obj
 0001:00005830       ?removeElementAt@?$Dar@PAVLabel@vgui@@@vgui@@QAEXH@Z 10006830 f i ammo.obj
 0001:00005830       ?removeElementAt@?$Dar@PAV?$Dar@D@vgui@@@vgui@@QAEXH@Z 10006830 f i ammo.obj
 0001:00005830       ?removeElementAt@?$Dar@PAVPanel@vgui@@@vgui@@QAEXH@Z 10006830 f i ammo.obj
 0001:00005830       ?removeElementAt@?$Dar@PAVTickSignal@vgui@@@vgui@@QAEXH@Z 10006830 f i ammo.obj
 0001:00005830       ?removeElementAt@?$Dar@PAVInputSignal@vgui@@@vgui@@QAEXH@Z 10006830 f i ammo.obj
 0001:00005830       ?removeElementAt@?$Dar@H@vgui@@QAEXH@Z 10006830 f i ammo.obj
 0001:00005830       ?removeElementAt@?$Dar@PAVButton@vgui@@@vgui@@QAEXH@Z 10006830 f i ammo.obj
 0001:00005830       ?removeElementAt@?$Dar@PAVDesktopIcon@vgui@@@vgui@@QAEXH@Z 10006830 f i ammo.obj
 0001:00005830       ?removeElementAt@?$Dar@PAVActionSignal@vgui@@@vgui@@QAEXH@Z 10006830 f i ammo.obj
 0001:00005830       ?removeElementAt@?$Dar@PAVChangeSignal@vgui@@@vgui@@QAEXH@Z 10006830 f i ammo.obj
 0001:00005830       ?removeElementAt@?$Dar@PAD@vgui@@QAEXH@Z 10006830 f i ammo.obj
 0001:00005830       ?removeElementAt@?$Dar@PAVFrame@vgui@@@vgui@@QAEXH@Z 10006830 f i ammo.obj
 0001:00005830       ?removeElementAt@?$Dar@PAVFocusChangeSignal@vgui@@@vgui@@QAEXH@Z 10006830 f i ammo.obj
 0001:00005830       ?removeElementAt@?$Dar@PAVIntChangeSignal@vgui@@@vgui@@QAEXH@Z 10006830 f i ammo.obj
 0001:00005830       ?removeElementAt@?$Dar@PAVRepaintSignal@vgui@@@vgui@@QAEXH@Z 10006830 f i ammo.obj
 0001:00005830       ?removeElementAt@?$Dar@PAVSurfaceBase@vgui@@@vgui@@QAEXH@Z 10006830 f i ammo.obj
 0001:00005870       ?putElement@?$Dar@PAD@vgui@@QAEXPAD@Z 10006870 f i ammo.obj
 0001:00005870       ?putElement@?$Dar@PAVInputSignal@vgui@@@vgui@@QAEXPAVInputSignal@2@@Z 10006870 f i ammo.obj
 0001:00005870       ?putElement@?$Dar@PAVActionSignal@vgui@@@vgui@@QAEXPAVActionSignal@2@@Z 10006870 f i ammo.obj
 0001:00005870       ?putElement@?$Dar@PAVTickSignal@vgui@@@vgui@@QAEXPAVTickSignal@2@@Z 10006870 f i ammo.obj
 0001:00005870       ?putElement@?$Dar@PAVDesktopIcon@vgui@@@vgui@@QAEXPAVDesktopIcon@2@@Z 10006870 f i ammo.obj
 0001:00005870       ?putElement@?$Dar@PAVButton@vgui@@@vgui@@QAEXPAVButton@2@@Z 10006870 f i ammo.obj
 0001:00005870       ?putElement@?$Dar@PAVRepaintSignal@vgui@@@vgui@@QAEXPAVRepaintSignal@2@@Z 10006870 f i ammo.obj
 0001:00005870       ?putElement@?$Dar@PAVIntChangeSignal@vgui@@@vgui@@QAEXPAVIntChangeSignal@2@@Z 10006870 f i ammo.obj
 0001:00005870       ?putElement@?$Dar@PAVChangeSignal@vgui@@@vgui@@QAEXPAVChangeSignal@2@@Z 10006870 f i ammo.obj
 0001:00005870       ?putElement@?$Dar@PAVFrame@vgui@@@vgui@@QAEXPAVFrame@2@@Z 10006870 f i ammo.obj
 0001:00005870       ?putElement@?$Dar@H@vgui@@QAEXH@Z 10006870 f i ammo.obj
 0001:00005870       ?putElement@?$Dar@PAVPanel@vgui@@@vgui@@QAEXPAVPanel@2@@Z 10006870 f i ammo.obj
 0001:00005870       ?putElement@?$Dar@PAVLabel@vgui@@@vgui@@QAEXPAVLabel@2@@Z 10006870 f i ammo.obj
 0001:00005870       ?putElement@?$Dar@PAVFocusChangeSignal@vgui@@@vgui@@QAEXPAVFocusChangeSignal@2@@Z 10006870 f i ammo.obj
 0001:00005870       ?putElement@?$Dar@PAVSurfaceBase@vgui@@@vgui@@QAEXPAVSurfaceBase@2@@Z 10006870 f i ammo.obj
 0001:00005870       ?putElement@?$Dar@PAV?$Dar@D@vgui@@@vgui@@QAEXPAV?$Dar@D@2@@Z 10006870 f i ammo.obj
 0001:00005870       ?putElement@?$Dar@PAVFrameSignal@vgui@@@vgui@@QAEXPAVFrameSignal@2@@Z 10006870 f i ammo.obj
 0001:000058b0       ?removeElement@?$Dar@PAVButton@vgui@@@vgui@@QAEXPAVButton@2@@Z 100068b0 f i ammo.obj
 0001:000058b0       ?removeElement@?$Dar@PAVInputSignal@vgui@@@vgui@@QAEXPAVInputSignal@2@@Z 100068b0 f i ammo.obj
 0001:000058b0       ?removeElement@?$Dar@H@vgui@@QAEXH@Z 100068b0 f i ammo.obj
 0001:000058b0       ?removeElement@?$Dar@PAVLabel@vgui@@@vgui@@QAEXPAVLabel@2@@Z 100068b0 f i ammo.obj
 0001:000058b0       ?removeElement@?$Dar@PAVPanel@vgui@@@vgui@@QAEXPAVPanel@2@@Z 100068b0 f i ammo.obj
 0001:000058b0       ?removeElement@?$Dar@PAVActionSignal@vgui@@@vgui@@QAEXPAVActionSignal@2@@Z 100068b0 f i ammo.obj
 0001:000058b0       ?removeElement@?$Dar@PAVRepaintSignal@vgui@@@vgui@@QAEXPAVRepaintSignal@2@@Z 100068b0 f i ammo.obj
 0001:000058b0       ?removeElement@?$Dar@PAV?$Dar@D@vgui@@@vgui@@QAEXPAV?$Dar@D@2@@Z 100068b0 f i ammo.obj
 0001:000058b0       ?removeElement@?$Dar@PAVSurfaceBase@vgui@@@vgui@@QAEXPAVSurfaceBase@2@@Z 100068b0 f i ammo.obj
 0001:000058b0       ?removeElement@?$Dar@PAVFocusChangeSignal@vgui@@@vgui@@QAEXPAVFocusChangeSignal@2@@Z 100068b0 f i ammo.obj
 0001:000058b0       ?removeElement@?$Dar@PAVFrameSignal@vgui@@@vgui@@QAEXPAVFrameSignal@2@@Z 100068b0 f i ammo.obj
 0001:000058b0       ?removeElement@?$Dar@PAVTickSignal@vgui@@@vgui@@QAEXPAVTickSignal@2@@Z 100068b0 f i ammo.obj
 0001:000058b0       ?removeElement@?$Dar@PAVFrame@vgui@@@vgui@@QAEXPAVFrame@2@@Z 100068b0 f i ammo.obj
 0001:000058b0       ?removeElement@?$Dar@PAVIntChangeSignal@vgui@@@vgui@@QAEXPAVIntChangeSignal@2@@Z 100068b0 f i ammo.obj
 0001:000058b0       ?removeElement@?$Dar@PAVChangeSignal@vgui@@@vgui@@QAEXPAVChangeSignal@2@@Z 100068b0 f i ammo.obj
 0001:000058b0       ?removeElement@?$Dar@PAD@vgui@@QAEXPAD@Z 100068b0 f i ammo.obj
 0001:000058b0       ?removeElement@?$Dar@PAVDesktopIcon@vgui@@@vgui@@QAEXPAVDesktopIcon@2@@Z 100068b0 f i ammo.obj
 0001:00005900       ?getCount@?$Dar@PAVTickSignal@vgui@@@vgui@@QAEHXZ 10006900 f i ammo.obj
 0001:00005900       ?getCount@?$Dar@PAVFrameSignal@vgui@@@vgui@@QAEHXZ 10006900 f i ammo.obj
 0001:00005900       ?getCount@?$Dar@PAV?$Dar@D@vgui@@@vgui@@QAEHXZ 10006900 f i ammo.obj
 0001:00005900       ?getCount@?$Dar@PAVChangeSignal@vgui@@@vgui@@QAEHXZ 10006900 f i ammo.obj
 0001:00005900       ?getCount@?$Dar@D@vgui@@QAEHXZ 10006900 f i ammo.obj
 0001:00005900       ?getCount@?$Dar@PAVButton@vgui@@@vgui@@QAEHXZ 10006900 f i ammo.obj
 0001:00005900       ?getCount@?$Dar@PAVFocusChangeSignal@vgui@@@vgui@@QAEHXZ 10006900 f i ammo.obj
 0001:00005900       ?getCount@?$Dar@PAVDesktopIcon@vgui@@@vgui@@QAEHXZ 10006900 f i ammo.obj
 0001:00005900       ?getCount@?$Dar@PAVSurfaceBase@vgui@@@vgui@@QAEHXZ 10006900 f i ammo.obj
 0001:00005900       ?getCount@?$Dar@PAVRepaintSignal@vgui@@@vgui@@QAEHXZ 10006900 f i ammo.obj
 0001:00005900       ?getCount@?$Dar@PAD@vgui@@QAEHXZ 10006900 f i ammo.obj
 0001:00005900       ?getCount@?$Dar@H@vgui@@QAEHXZ 10006900 f i ammo.obj
 0001:00005900       ?getCount@?$Dar@PAVIntChangeSignal@vgui@@@vgui@@QAEHXZ 10006900 f i ammo.obj
 0001:00005900       ?getCount@?$Dar@PAVFrame@vgui@@@vgui@@QAEHXZ 10006900 f i ammo.obj
 0001:00005900       ?getCount@?$Dar@PAVLabel@vgui@@@vgui@@QAEHXZ 10006900 f i ammo.obj
 0001:00005900       ?getCount@?$Dar@PAVInputSignal@vgui@@@vgui@@QAEHXZ 10006900 f i ammo.obj
 0001:00005900       ?getCount@?$Dar@PAVPanel@vgui@@@vgui@@QAEHXZ 10006900 f i ammo.obj
 0001:00005900       ?getCount@?$Dar@PAVActionSignal@vgui@@@vgui@@QAEHXZ 10006900 f i ammo.obj
 0001:00005910       ?ensureCapacity@?$Dar@PAVIntChangeSignal@vgui@@@vgui@@QAEXH@Z 10006910 f i ammo.obj
 0001:00005910       ?ensureCapacity@?$Dar@PAVActionSignal@vgui@@@vgui@@QAEXH@Z 10006910 f i ammo.obj
 0001:00005910       ?ensureCapacity@?$Dar@PAVFrameSignal@vgui@@@vgui@@QAEXH@Z 10006910 f i ammo.obj
 0001:00005910       ?ensureCapacity@?$Dar@PAVDesktopIcon@vgui@@@vgui@@QAEXH@Z 10006910 f i ammo.obj
 0001:00005910       ?ensureCapacity@?$Dar@PAV?$Dar@D@vgui@@@vgui@@QAEXH@Z 10006910 f i ammo.obj
 0001:00005910       ?ensureCapacity@?$Dar@PAVPanel@vgui@@@vgui@@QAEXH@Z 10006910 f i ammo.obj
 0001:00005910       ?ensureCapacity@?$Dar@PAVSurfaceBase@vgui@@@vgui@@QAEXH@Z 10006910 f i ammo.obj
 0001:00005910       ?ensureCapacity@?$Dar@PAVInputSignal@vgui@@@vgui@@QAEXH@Z 10006910 f i ammo.obj
 0001:00005910       ?ensureCapacity@?$Dar@PAVFocusChangeSignal@vgui@@@vgui@@QAEXH@Z 10006910 f i ammo.obj
 0001:00005910       ?ensureCapacity@?$Dar@PAVTickSignal@vgui@@@vgui@@QAEXH@Z 10006910 f i ammo.obj
 0001:00005910       ?ensureCapacity@?$Dar@PAVChangeSignal@vgui@@@vgui@@QAEXH@Z 10006910 f i ammo.obj
 0001:00005910       ?ensureCapacity@?$Dar@PAVFrame@vgui@@@vgui@@QAEXH@Z 10006910 f i ammo.obj
 0001:00005910       ?ensureCapacity@?$Dar@PAVRepaintSignal@vgui@@@vgui@@QAEXH@Z 10006910 f i ammo.obj
 0001:00005910       ?ensureCapacity@?$Dar@H@vgui@@QAEXH@Z 10006910 f i ammo.obj
 0001:00005910       ?ensureCapacity@?$Dar@PAVButton@vgui@@@vgui@@QAEXH@Z 10006910 f i ammo.obj
 0001:00005910       ?ensureCapacity@?$Dar@PAVLabel@vgui@@@vgui@@QAEXH@Z 10006910 f i ammo.obj
 0001:00005910       ?ensureCapacity@?$Dar@PAD@vgui@@QAEXH@Z 10006910 f i ammo.obj
 0001:000059b0       ?setCount@?$Dar@PAVInputSignal@vgui@@@vgui@@QAEXH@Z 100069b0 f i ammo.obj
 0001:000059b0       ?setCount@?$Dar@PAVFrame@vgui@@@vgui@@QAEXH@Z 100069b0 f i ammo.obj
 0001:000059b0       ?setCount@?$Dar@PAVPanel@vgui@@@vgui@@QAEXH@Z 100069b0 f i ammo.obj
 0001:000059b0       ?setCount@?$Dar@PAVSurfaceBase@vgui@@@vgui@@QAEXH@Z 100069b0 f i ammo.obj
 0001:000059b0       ?setCount@?$Dar@PAVButton@vgui@@@vgui@@QAEXH@Z 100069b0 f i ammo.obj
 0001:000059b0       ?setCount@?$Dar@H@vgui@@QAEXH@Z 100069b0 f i ammo.obj
 0001:000059b0       ?setCount@?$Dar@PAVTickSignal@vgui@@@vgui@@QAEXH@Z 100069b0 f i ammo.obj
 0001:000059b0       ?setCount@?$Dar@PAVLabel@vgui@@@vgui@@QAEXH@Z 100069b0 f i ammo.obj
 0001:000059b0       ?setCount@?$Dar@PAV?$Dar@D@vgui@@@vgui@@QAEXH@Z 100069b0 f i ammo.obj
 0001:000059b0       ?setCount@?$Dar@PAVActionSignal@vgui@@@vgui@@QAEXH@Z 100069b0 f i ammo.obj
 0001:000059b0       ?setCount@?$Dar@PAD@vgui@@QAEXH@Z 100069b0 f i ammo.obj
 0001:000059b0       ?setCount@?$Dar@PAVIntChangeSignal@vgui@@@vgui@@QAEXH@Z 100069b0 f i ammo.obj
 0001:000059b0       ?setCount@?$Dar@PAVFocusChangeSignal@vgui@@@vgui@@QAEXH@Z 100069b0 f i ammo.obj
 0001:000059b0       ?setCount@?$Dar@PAVDesktopIcon@vgui@@@vgui@@QAEXH@Z 100069b0 f i ammo.obj
 0001:000059b0       ?setCount@?$Dar@PAVFrameSignal@vgui@@@vgui@@QAEXH@Z 100069b0 f i ammo.obj
 0001:000059b0       ?setCount@?$Dar@PAVRepaintSignal@vgui@@@vgui@@QAEXH@Z 100069b0 f i ammo.obj
 0001:000059b0       ?setCount@?$Dar@PAVChangeSignal@vgui@@@vgui@@QAEXH@Z 100069b0 f i ammo.obj
 0001:000059b0       ?setCount@?$Dar@D@vgui@@QAEXH@Z 100069b0 f i ammo.obj
 0001:000059d0       ??A?$Dar@PAD@vgui@@QAEPADH@Z 100069d0 f i ammo.obj
 0001:000059d0       ??A?$Dar@PAVRepaintSignal@vgui@@@vgui@@QAEPAVRepaintSignal@1@H@Z 100069d0 f i ammo.obj
 0001:000059d0       ??A?$Dar@H@vgui@@QAEHH@Z   100069d0 f i ammo.obj
 0001:000059d0       ??A?$Dar@PAVPanel@vgui@@@vgui@@QAEPAVPanel@1@H@Z 100069d0 f i ammo.obj
 0001:000059d0       ??A?$Dar@PAVButton@vgui@@@vgui@@QAEPAVButton@1@H@Z 100069d0 f i ammo.obj
 0001:000059d0       ??A?$Dar@PAVChangeSignal@vgui@@@vgui@@QAEPAVChangeSignal@1@H@Z 100069d0 f i ammo.obj
 0001:000059d0       ??A?$Dar@PAVFrameSignal@vgui@@@vgui@@QAEPAVFrameSignal@1@H@Z 100069d0 f i ammo.obj
 0001:000059d0       ??A?$Dar@PAVSurfaceBase@vgui@@@vgui@@QAEPAVSurfaceBase@1@H@Z 100069d0 f i ammo.obj
 0001:000059d0       ??A?$Dar@PAVActionSignal@vgui@@@vgui@@QAEPAVActionSignal@1@H@Z 100069d0 f i ammo.obj
 0001:000059d0       ??A?$Dar@PAVLabel@vgui@@@vgui@@QAEPAVLabel@1@H@Z 100069d0 f i ammo.obj
 0001:000059d0       ??A?$Dar@PAVFocusChangeSignal@vgui@@@vgui@@QAEPAVFocusChangeSignal@1@H@Z 100069d0 f i ammo.obj
 0001:000059d0       ??A?$Dar@PAV?$Dar@D@vgui@@@vgui@@QAEPAV?$Dar@D@1@H@Z 100069d0 f i ammo.obj
 0001:000059d0       ??A?$Dar@PAVDesktopIcon@vgui@@@vgui@@QAEPAVDesktopIcon@1@H@Z 100069d0 f i ammo.obj
 0001:000059d0       ??A?$Dar@PAVIntChangeSignal@vgui@@@vgui@@QAEPAVIntChangeSignal@1@H@Z 100069d0 f i ammo.obj
 0001:000059d0       ??A?$Dar@PAVInputSignal@vgui@@@vgui@@QAEPAVInputSignal@1@H@Z 100069d0 f i ammo.obj
 0001:000059d0       ??A?$Dar@PAVTickSignal@vgui@@@vgui@@QAEPAVTickSignal@1@H@Z 100069d0 f i ammo.obj
 0001:000059d0       ??A?$Dar@PAVFrame@vgui@@@vgui@@QAEPAVFrame@1@H@Z 100069d0 f i ammo.obj
 0001:000059f0       ?addElement@?$Dar@PAVLabel@vgui@@@vgui@@QAEXPAVLabel@2@@Z 100069f0 f i ammo.obj
 0001:000059f0       ?addElement@?$Dar@PAD@vgui@@QAEXPAD@Z 100069f0 f i ammo.obj
 0001:000059f0       ?addElement@?$Dar@PAVIntChangeSignal@vgui@@@vgui@@QAEXPAVIntChangeSignal@2@@Z 100069f0 f i ammo.obj
 0001:000059f0       ?addElement@?$Dar@PAV?$Dar@D@vgui@@@vgui@@QAEXPAV?$Dar@D@2@@Z 100069f0 f i ammo.obj
 0001:000059f0       ?addElement@?$Dar@PAVFocusChangeSignal@vgui@@@vgui@@QAEXPAVFocusChangeSignal@2@@Z 100069f0 f i ammo.obj
 0001:000059f0       ?addElement@?$Dar@PAVFrame@vgui@@@vgui@@QAEXPAVFrame@2@@Z 100069f0 f i ammo.obj
 0001:000059f0       ?addElement@?$Dar@PAVButton@vgui@@@vgui@@QAEXPAVButton@2@@Z 100069f0 f i ammo.obj
 0001:000059f0       ?addElement@?$Dar@PAVTickSignal@vgui@@@vgui@@QAEXPAVTickSignal@2@@Z 100069f0 f i ammo.obj
 0001:000059f0       ?addElement@?$Dar@H@vgui@@QAEXH@Z 100069f0 f i ammo.obj
 0001:000059f0       ?addElement@?$Dar@PAVDesktopIcon@vgui@@@vgui@@QAEXPAVDesktopIcon@2@@Z 100069f0 f i ammo.obj
 0001:000059f0       ?addElement@?$Dar@PAVActionSignal@vgui@@@vgui@@QAEXPAVActionSignal@2@@Z 100069f0 f i ammo.obj
 0001:000059f0       ?addElement@?$Dar@PAVInputSignal@vgui@@@vgui@@QAEXPAVInputSignal@2@@Z 100069f0 f i ammo.obj
 0001:000059f0       ?addElement@?$Dar@PAVFrameSignal@vgui@@@vgui@@QAEXPAVFrameSignal@2@@Z 100069f0 f i ammo.obj
 0001:000059f0       ?addElement@?$Dar@PAVRepaintSignal@vgui@@@vgui@@QAEXPAVRepaintSignal@2@@Z 100069f0 f i ammo.obj
 0001:000059f0       ?addElement@?$Dar@PAVSurfaceBase@vgui@@@vgui@@QAEXPAVSurfaceBase@2@@Z 100069f0 f i ammo.obj
 0001:000059f0       ?addElement@?$Dar@PAVPanel@vgui@@@vgui@@QAEXPAVPanel@2@@Z 100069f0 f i ammo.obj
 0001:000059f0       ?addElement@?$Dar@PAVChangeSignal@vgui@@@vgui@@QAEXPAVChangeSignal@2@@Z 100069f0 f i ammo.obj
 0001:00005a20       ?__MsgFunc_AntidoteP@@YAHPBDHPAX@Z 10006a20 f   ammo.obj
 0001:00005a40       ?__MsgFunc_AdrenalineP@@YAHPBDHPAX@Z 10006a40 f   ammo.obj
 0001:00005a60       ?__MsgFunc_RadiationP@@YAHPBDHPAX@Z 10006a60 f   ammo.obj
 0001:00005a80       ?__MsgFunc_UpdTankTime@@YAHPBDHPAX@Z 10006a80 f   ammo.obj
 0001:00005aa0       ?__MsgFunc_UpdLJCharge@@YAHPBDHPAX@Z 10006aa0 f   ammo.obj
 0001:00005ac0       ?__MsgFunc_UpdACH@@YAHPBDHPAX@Z 10006ac0 f   ammo.obj
 0001:00005ae0       ?__MsgFunc_UpdFrz@@YAHPBDHPAX@Z 10006ae0 f   ammo.obj
 0001:00005b00       ?__MsgFunc_HasGlockSil@@YAHPBDHPAX@Z 10006b00 f   ammo.obj
 0001:00005b20       ?LoadWeaponSprites@WeaponsResource@@QAEXPAUWEAPON@@@Z 10006b20 f   ammo.obj
 0001:00006130       ?__MsgFunc_AmmoX@@YAHPBDHPAX@Z 10007130 f   ammo.obj
 0001:00006150       ?__MsgFunc_AmmoPickup@@YAHPBDHPAX@Z 10007150 f   ammo.obj
 0001:00006170       ?__MsgFunc_WeapPickup@@YAHPBDHPAX@Z 10007170 f   ammo.obj
 0001:00006190       ?__MsgFunc_ItemPickup@@YAHPBDHPAX@Z 10007190 f   ammo.obj
 0001:000061b0       ?__CmdFunc_Slot1@@YAXXZ    100071b0 f   ammo.obj
 0001:000061c0       ?__CmdFunc_Slot2@@YAXXZ    100071c0 f   ammo.obj
 0001:000061d0       ?__CmdFunc_Slot3@@YAXXZ    100071d0 f   ammo.obj
 0001:000061e0       ?__CmdFunc_Slot4@@YAXXZ    100071e0 f   ammo.obj
 0001:000061f0       ?__CmdFunc_Slot5@@YAXXZ    100071f0 f   ammo.obj
 0001:00006200       ?__CmdFunc_Slot6@@YAXXZ    10007200 f   ammo.obj
 0001:00006210       ?__CmdFunc_Slot7@@YAXXZ    10007210 f   ammo.obj
 0001:00006220       ?__CmdFunc_Slot8@@YAXXZ    10007220 f   ammo.obj
 0001:00006230       ?__CmdFunc_Slot9@@YAXXZ    10007230 f   ammo.obj
 0001:00006240       ?__CmdFunc_Slot10@@YAXXZ   10007240 f   ammo.obj
 0001:00006250       ?__CmdFunc_Close@@YAXXZ    10007250 f   ammo.obj
 0001:00006260       ?__CmdFunc_NextWeapon@@YAXXZ 10007260 f   ammo.obj
 0001:00006270       ?__CmdFunc_PrevWeapon@@YAXXZ 10007270 f   ammo.obj
 0001:00006280       ?MsgFunc_HideWeapon@CHudAmmo@@QAEHPBDHPAX@Z 10007280 f   ammo.obj
 0001:00006310       ??0CHudAmmo@@QAE@XZ        10007310 f   ammo.obj
 0001:00006340       ??1CHudGeiger@@UAE@XZ      10007340 f i hud.obj
 0001:00006340       ??1CHudStatusIcons@@UAE@XZ 10007340 f i hud.obj
 0001:00006340       ??1CHudMenu@@UAE@XZ        10007340 f i hud.obj
 0001:00006340       ??1CCustomMessage@@UAE@XZ  10007340 f i custom_message.obj
 0001:00006340       ??1CHudAmmoSecondary@@UAE@XZ 10007340 f i hud.obj
 0001:00006340       ??1CHudDeathNotice@@UAE@XZ 10007340 f i hud.obj
 0001:00006340       ??1CHudFlashlight@@UAE@XZ  10007340 f i hud.obj
 0001:00006340       ??1CHudBase@@UAE@XZ        10007340 f i ammo.obj
 0001:00006340       ??1CHudSpectator@@UAE@XZ   10007340 f i hud.obj
 0001:00006340       ??1CHudTextMessage@@UAE@XZ 10007340 f i hud.obj
 0001:00006340       ??1CHudMessage@@UAE@XZ     10007340 f i hud.obj
 0001:00006340       ??1CHudBattery@@UAE@XZ     10007340 f i hud.obj
 0001:00006340       ??1CHudStatusBar@@UAE@XZ   10007340 f i hud.obj
 0001:00006340       ??1CHudTrain@@UAE@XZ       10007340 f i hud.obj
 0001:00006340       ??1CHudSayText@@UAE@XZ     10007340 f i hud.obj
 0001:00006340       ??1CHudAmmo@@UAE@XZ        10007340 f i ammo.obj
 0001:00006340       ??1CHudHealth@@UAE@XZ      10007340 f i health.obj
 0001:00006350       ?MsgFunc_ClearWpn@CHudAmmo@@QAEHPBDHPAX@Z 10007350 f   ammo.obj
 0001:00006370       ?MsgFunc_CurWeapon@CHudAmmo@@QAEHPBDHPAX@Z 10007370 f   ammo.obj
 0001:00006470       ?Draw@CHudAmmo@@UAEHM@Z    10007470 f   ammo.obj
 0001:00006d10       ??0?$Dar@D@vgui@@QAE@XZ    10007d10 f i ammo.obj
 0001:00006d30       ??0?$Dar@D@vgui@@QAE@H@Z   10007d30 f i ammo.obj
 0001:00006d50       ??0?$Dar@PAVFrame@vgui@@@vgui@@QAE@H@Z 10007d50 f i ammo.obj
 0001:00006d50       ??0?$Dar@PAVPanel@vgui@@@vgui@@QAE@H@Z 10007d50 f i ammo.obj
 0001:00006d50       ??0?$Dar@PAVTickSignal@vgui@@@vgui@@QAE@H@Z 10007d50 f i ammo.obj
 0001:00006d50       ??0?$Dar@PAV?$Dar@D@vgui@@@vgui@@QAE@H@Z 10007d50 f i ammo.obj
 0001:00006d50       ??0?$Dar@PAD@vgui@@QAE@H@Z 10007d50 f i ammo.obj
 0001:00006d50       ??0?$Dar@H@vgui@@QAE@H@Z   10007d50 f i ammo.obj
 0001:00006d50       ??0?$Dar@PAVIntChangeSignal@vgui@@@vgui@@QAE@H@Z 10007d50 f i ammo.obj
 0001:00006d50       ??0?$Dar@PAVChangeSignal@vgui@@@vgui@@QAE@H@Z 10007d50 f i ammo.obj
 0001:00006d50       ??0?$Dar@PAVDesktopIcon@vgui@@@vgui@@QAE@H@Z 10007d50 f i ammo.obj
 0001:00006d50       ??0?$Dar@PAVRepaintSignal@vgui@@@vgui@@QAE@H@Z 10007d50 f i ammo.obj
 0001:00006d50       ??0?$Dar@PAVSurfaceBase@vgui@@@vgui@@QAE@H@Z 10007d50 f i ammo.obj
 0001:00006d50       ??0?$Dar@PAVActionSignal@vgui@@@vgui@@QAE@H@Z 10007d50 f i ammo.obj
 0001:00006d50       ??0?$Dar@PAVButton@vgui@@@vgui@@QAE@H@Z 10007d50 f i ammo.obj
 0001:00006d50       ??0?$Dar@PAVFrameSignal@vgui@@@vgui@@QAE@H@Z 10007d50 f i ammo.obj
 0001:00006d50       ??0?$Dar@PAVInputSignal@vgui@@@vgui@@QAE@H@Z 10007d50 f i ammo.obj
 0001:00006d50       ??0?$Dar@PAVLabel@vgui@@@vgui@@QAE@H@Z 10007d50 f i ammo.obj
 0001:00006d50       ??0?$Dar@PAVFocusChangeSignal@vgui@@@vgui@@QAE@H@Z 10007d50 f i ammo.obj
 0001:00006d70       ??0?$Dar@PAVActionSignal@vgui@@@vgui@@QAE@XZ 10007d70 f i ammo.obj
 0001:00006d70       ??0?$Dar@PAVInputSignal@vgui@@@vgui@@QAE@XZ 10007d70 f i ammo.obj
 0001:00006d70       ??0?$Dar@PAVButton@vgui@@@vgui@@QAE@XZ 10007d70 f i ammo.obj
 0001:00006d70       ??0?$Dar@PAVFocusChangeSignal@vgui@@@vgui@@QAE@XZ 10007d70 f i ammo.obj
 0001:00006d70       ??0?$Dar@PAVRepaintSignal@vgui@@@vgui@@QAE@XZ 10007d70 f i ammo.obj
 0001:00006d70       ??0?$Dar@PAVDesktopIcon@vgui@@@vgui@@QAE@XZ 10007d70 f i ammo.obj
 0001:00006d70       ??0?$Dar@H@vgui@@QAE@XZ    10007d70 f i ammo.obj
 0001:00006d70       ??0?$Dar@PAD@vgui@@QAE@XZ  10007d70 f i ammo.obj
 0001:00006d70       ??0?$Dar@PAVFrameSignal@vgui@@@vgui@@QAE@XZ 10007d70 f i ammo.obj
 0001:00006d70       ??0?$Dar@PAVIntChangeSignal@vgui@@@vgui@@QAE@XZ 10007d70 f i ammo.obj
 0001:00006d70       ??0?$Dar@PAVFrame@vgui@@@vgui@@QAE@XZ 10007d70 f i ammo.obj
 0001:00006d70       ??0?$Dar@PAVSurfaceBase@vgui@@@vgui@@QAE@XZ 10007d70 f i ammo.obj
 0001:00006d70       ??0?$Dar@PAVTickSignal@vgui@@@vgui@@QAE@XZ 10007d70 f i ammo.obj
 0001:00006d70       ??0?$Dar@PAVLabel@vgui@@@vgui@@QAE@XZ 10007d70 f i ammo.obj
 0001:00006d70       ??0?$Dar@PAV?$Dar@D@vgui@@@vgui@@QAE@XZ 10007d70 f i ammo.obj
 0001:00006d70       ??0?$Dar@PAVChangeSignal@vgui@@@vgui@@QAE@XZ 10007d70 f i ammo.obj
 0001:00006d70       ??0?$Dar@PAVPanel@vgui@@@vgui@@QAE@XZ 10007d70 f i ammo.obj
 0001:00006d90       ?__MsgFunc_ClearWpn@@YAHPBDHPAX@Z 10007d90 f   ammo.obj
 0001:00006db0       ?LoadAllWeaponSprites@WeaponsResource@@QAEXXZ 10007db0 f   ammo.obj
 0001:00006de0       ?__MsgFunc_CurWeapon@@YAHPBDHPAX@Z 10007de0 f   ammo.obj
 0001:00006e00       ?__MsgFunc_HideWeapon@@YAHPBDHPAX@Z 10007e00 f   ammo.obj
 0001:00006e20       ?VidInit@CHudAmmo@@UAEHXZ  10007e20 f   ammo.obj
 0001:00006fe0       ?MsgFunc_WeaponList@CHudAmmo@@QAEHPBDHPAX@Z 10007fe0 f   ammo.obj
 0001:000070e0       ?__MsgFunc_WeaponList@@YAHPBDHPAX@Z 100080e0 f   ammo.obj
 0001:00007100       ?Init@CHudAmmo@@UAEHXZ     10008100 f   ammo.obj
 0001:00007380       ?Reset@CHudAmmoSecondary@@UAEXXZ 10008380 f   ammo_secondary.obj
 0001:00007390       ?Draw@CHudAmmoSecondary@@UAEHM@Z 10008390 f   ammo_secondary.obj
 0001:00007590       ?MsgFunc_SecAmmoIcon@CHudAmmoSecondary@@QAEHPBDHPAX@Z 10008590 f   ammo_secondary.obj
 0001:000075d0       ?MsgFunc_SecAmmoVal@CHudAmmoSecondary@@QAEHPBDHPAX@Z 100085d0 f   ammo_secondary.obj
 0001:00007650       ?__MsgFunc_SecAmmoVal@@YAHPBDHPAX@Z 10008650 f   ammo_secondary.obj
 0001:00007670       ?__MsgFunc_SecAmmoIcon@@YAHPBDHPAX@Z 10008670 f   ammo_secondary.obj
 0001:00007690       ?Init@CHudAmmoSecondary@@UAEHXZ 10008690 f   ammo_secondary.obj
 0001:000076f0       ?AddToHistory@HistoryResource@@QAEXHHH@Z 100086f0 f   ammohistory.obj
 0001:00007790       ?AddToHistory@HistoryResource@@QAEXHPBDH@Z 10008790 f   ammohistory.obj
 0001:00007840       ?VidInit@CHudBattery@@UAEHXZ 10008840 f   battery.obj
 0001:000078c0       ?MsgFunc_Battery@CHudBattery@@QAEHPBDHPAX@Z 100088c0 f   battery.obj
 0001:00007900       ?MsgFunc_Tester@CHudBattery@@QAEHPBDHPAX@Z 10008900 f   battery.obj
 0001:00007930       ?Draw@CHudBattery@@UAEHM@Z 10008930 f   battery.obj
 0001:00007e30       ?__MsgFunc_Battery@@YAHPBDHPAX@Z 10008e30 f   battery.obj
 0001:00007e50       ?__MsgFunc_Tester@@YAHPBDHPAX@Z 10008e50 f   battery.obj
 0001:00007e70       ?Init@CHudBattery@@UAEHXZ  10008e70 f   battery.obj
 0001:00007ec0       _HUD_GetHullBounds         10008ec0 f   cdll_int.obj
 0001:00007ee0       _HUD_ConnectionlessPacket  10008ee0 f   cdll_int.obj
 0001:00007ef0       _HUD_PlayerMoveInit        10008ef0 f   cdll_int.obj
 0001:00007f00       _HUD_PlayerMoveTexture     10008f00 f   cdll_int.obj
 0001:00007f10       _HUD_PlayerMove            10008f10 f   cdll_int.obj
 0001:00007f20       _Initialize                10008f20 f   cdll_int.obj
 0001:00007f60       _HUD_VidInit               10008f60 f   cdll_int.obj
 0001:00007f80       _HUD_Init                  10008f80 f   cdll_int.obj
 0001:00008c50       _HUD_Redraw                10009c50 f   cdll_int.obj
 0001:00008cd0       _HUD_UpdateClientData      10009cd0 f   cdll_int.obj
 0001:00008cf0       _HUD_Reset                 10009cf0 f   cdll_int.obj
 0001:00008d00       _HUD_Frame                 10009d00 f   cdll_int.obj
 0001:00008d30       _HUD_VoiceStatus           10009d30 f   cdll_int.obj
 0001:00008d50       _HUD_DirectorMessage       10009d50 f   cdll_int.obj
 0001:00008d70       ?HUD_SendWeaponAnim@@YAXHHH@Z 10009d70 f   com_weapons.obj
 0001:00008e30       ?HUD_GetWeaponAnim@@YAHXZ  10009e30 f   com_weapons.obj
 0001:00008e40       ?HUD_PlaySound@@YAXPADM@Z  10009e40 f   com_weapons.obj
 0001:00008e70       ?HUD_PlaybackEvent@@YAXHPBUedict_s@@GMPAM1MMHHHH@Z 10009e70 f   com_weapons.obj
 0001:00008f00       ?U_Random@@YAIXZ           10009f00 f   com_weapons.obj
 0001:00008f30       ?U_Srand@@YAXI@Z           10009f30 f   com_weapons.obj
 0001:00008f50       ?UTIL_SharedRandomFloat@@YAMIMM@Z 10009f50 f   com_weapons.obj
 0001:00008fe0       ?stub_NameForFunction@@YAPBDK@Z 10009fe0 f   com_weapons.obj
 0001:00008ff0       ?PrimaryNotHeld@CEgon@@UAEXXZ 10009ff0 f   egon.obj
 0001:00008ff0       ?StartSneaking@CBaseEntity@@UAEXXZ 10009ff0 f   chumtoadweapon.obj
 0001:00008ff0       ?Reset@CHudBase@@UAEXXZ    10009ff0 f   ammo.obj
 0001:00008ff0       ?SetObjectCollisionBox@CBaseEntity@@UAEXXZ 10009ff0 f   hl_baseentity.obj
 0001:00008ff0       ?PrimaryAttack@CChumToadWeapon@@UAEXXZ 10009ff0 f   chumtoadweapon.obj
 0001:00008ff0       ?UTIL_SetOrigin@@YAXPAUentvars_s@@ABVVector@@@Z 10009ff0 f   hl_baseentity.obj
 0001:00008ff0       ?UTIL_PrecacheOther@@YAXPBD@Z 10009ff0 f   hl_baseentity.obj
 0001:00008ff0       ?setPoweredUpOff@CBaseMonster@@UAEXXZ 10009ff0 f   hl_baseentity.obj
 0001:00008ff0       ?SUB_Remove@CBaseEntity@@QAEXXZ 10009ff0 f   hl_baseentity.obj
 0001:00008ff0       ?HUD_SetMaxSpeed@@YAXPBUedict_s@@M@Z 10009ff0 f   com_weapons.obj
 0001:00008ff0       ?ScheduleChange@CBaseMonster@@UAEXXZ 10009ff0 f   hl_baseentity.obj
 0001:00008ff0       ?FadeMonster@CBaseMonster@@UAEXXZ 10009ff0 f   hl_baseentity.obj
 0001:00008ff0       ?stub_SetModel@@YAXPAUedict_s@@PBD@Z 10009ff0 f   com_weapons.obj
 0001:00008ff0       ?precacheAmmoPickupSound@CBaseEntity@@UAEXXZ 10009ff0 f   hl_baseentity.obj
 0001:00008ff0       ?DecalGunshot@@YAXPAUTraceResult@@H@Z 10009ff0 f   hl_baseentity.obj
 0001:00008ff0       ?MonsterInitThink@CBaseMonster@@QAEXXZ 10009ff0 f   hl_baseentity.obj
 0001:00008ff0       ?FallThink@CBasePlayerItem@@QAEXXZ 10009ff0 f   hl_baseentity.obj
 0001:00008ff0       ?PlayerDeathThink@CBasePlayer@@QAEXXZ 10009ff0 f   hl_baseentity.obj
 0001:00008ff0       ?DesiredAction@CBaseEntity@@UAEXXZ 10009ff0 f   chumtoadweapon.obj
 0001:00008ff0       ?PreThink@CBasePlayer@@UAEXXZ 10009ff0 f   hl_baseentity.obj
 0001:00008ff0       ?PrescheduleThink@CBaseMonster@@UAEXXZ 10009ff0 f   hl_baseentity.obj
 0001:00008ff0       ?ReportGeneric@CBaseMonster@@UAEXXZ 10009ff0 f   hl_baseentity.obj
 0001:00008ff0       ?MonsterThink@CBaseMonster@@UAEXXZ 10009ff0 f   hl_baseentity.obj
 0001:00008ff0       ?onAnimationLoop@CBaseAnimating@@UAEXXZ 10009ff0 f   hl_baseentity.obj
 0001:00008ff0       ?BothHeld@CBasePlayerWeapon@@UAEXXZ 10009ff0 f   chumtoadweapon.obj
 0001:00008ff0       ?Activate@CBaseMonster@@UAEXXZ 10009ff0 f   hl_baseentity.obj
 0001:00008ff0       ?Jump@CBasePlayer@@UAEXXZ  10009ff0 f   hl_baseentity.obj
 0001:00008ff0       ?ReportAIState@CBaseMonster@@UAEXXZ 10009ff0 f   hl_baseentity.obj
 0001:00008ff0       ?PainSound@CBaseMonster@@UAEXXZ 10009ff0 f   hl_baseentity.obj
 0001:00008ff0       ?EMIT_SOUND_FILTERED@@YAXPAUedict_s@@HPBDMMHHH@Z 10009ff0 f   hl_baseentity.obj
 0001:00008ff0       ?PrimaryAttack@CEgon@@UAEXXZ 10009ff0 f   egon.obj
 0001:00008ff0       ?performLayout@ScrollBar2@vgui@@MAEXXZ 10009ff0 f   vgui_scrollbar2.obj
 0001:00008ff0       ?ImpulseCommands@CBasePlayer@@UAEXXZ 10009ff0 f   hl_baseentity.obj
 0001:00008ff0       ?ItemPostFrameThink@CPython@@UAEXXZ 10009ff0 f   python.obj
 0001:00008ff0       ?Spawn@CBaseMonster@@UAEXXZ 10009ff0 f   hl_baseentity.obj
 0001:00008ff0       ?startReanimation@CBaseMonster@@UAEXXZ 10009ff0 f   hl_baseentity.obj
 0001:00008ff0       ?SecondaryAttack@CBasePlayerWeapon@@UAEXXZ 10009ff0 f   crowbar.obj
 0001:00008ff0       ?GibMonster@CBaseMonster@@UAEXXZ 10009ff0 f   hl_baseentity.obj
 0001:00008ff0       ?DefaultSpawnNotice@CBaseEntity@@UAEXXZ 10009ff0 f   hl_baseentity.obj
 0001:00008ff0       ?SecondaryAttack@CSqueak@@UAEXXZ 10009ff0 f   squeakgrenade.obj
 0001:00008ff0       ??1CGridEntry@CGrid@vgui@@QAE@XZ 10009ff0 f   vgui_grid.obj
 0001:00008ff0       ?DeathAnimationEnd@CBaseMonster@@UAEXXZ 10009ff0 f   hl_baseentity.obj
 0001:00008ff0       ?CheckTimeBasedDamage@CBaseMonster@@UAEXXZ 10009ff0 f   hl_baseentity.obj
 0001:00008ff0       ?FadeMonster@CBasePlayer@@UAEXXZ 10009ff0 f   hl_baseentity.obj
 0001:00008ff0       ?SecondaryNotHeld@CEgon@@UAEXXZ 10009ff0 f   egon.obj
 0001:00008ff0       ?UTIL_SetSize@@YAXPAUentvars_s@@ABVVector@@1@Z 10009ff0 f   hl_baseentity.obj
 0001:00008ff0       ?DeathSound@CBasePlayer@@UAEXXZ 10009ff0 f   hl_baseentity.obj
 0001:00008ff0       ?BarnacleVictimReleased@CBaseMonster@@UAEXXZ 10009ff0 f   hl_baseentity.obj
 0001:00008ff0       ?MonsterThinkPreMOD@CBaseMonster@@UAEXXZ 10009ff0 f   hl_baseentity.obj
 0001:00008ff0       ?BecomeDead@CBaseMonster@@UAEXXZ 10009ff0 f   hl_baseentity.obj
 0001:00008ff0       ?Spawn@CBaseEntity@@UAEXXZ 10009ff0 f   hl_baseentity.obj
 0001:00008ff0       ?InitHUDData@CHudBase@@UAEXXZ 10009ff0 f   ammo.obj
 0001:00008ff0       ?Activate@CBaseEntity@@UAEXXZ 10009ff0 f   chumtoadweapon.obj
 0001:00008ff0       ?onForceDelete@CBaseEntity@@UAEXXZ 10009ff0 f   hl_baseentity.obj
 0001:00008ff0       ?playGunPickupSound@CBaseEntity@@UAEXXZ 10009ff0 f   hl_baseentity.obj
 0001:00008ff0       ?UTIL_PRECACHESOUND@@YAXPAD@Z 10009ff0 f   hl_baseentity.obj
 0001:00008ff0       ?Think@CHudBase@@UAEXXZ    10009ff0 f   ammo.obj
 0001:00008ff0       ?PrimaryAttack@CBasePlayerWeapon@@UAEXXZ 10009ff0 f   hl_weapons.obj
 0001:00008ff0       ?CheckTimeBasedDamage@CBasePlayer@@UAEXXZ 10009ff0 f   hl_baseentity.obj
 0001:00008ff0       ?Materialize@CBasePlayerItem@@QAEXXZ 10009ff0 f   hl_baseentity.obj
 0001:00008ff0       ?playAmmoPickupSound@CBaseEntity@@UAEXXZ 10009ff0 f   hl_baseentity.obj
 0001:00008ff0       ?Precache@CBaseEntity@@UAEXXZ 10009ff0 f   glock.obj
 0001:00008ff0       ?easyPrintLineDummy@@YAXPBDZZ 10009ff0 f   util_printout.obj
 0001:00008ff0       ?Reload@CBasePlayerWeapon@@UAEXXZ 10009ff0 f   chumtoadweapon.obj
 0001:00008ff0       ?paintBackground@CTFScrollButton@@UAEXXZ 10009ff0 f   vgui_CustomObjects.obj
 0001:00008ff0       ?UTIL_Remove@@YAXPAVCBaseEntity@@@Z 10009ff0 f   hl_baseentity.obj
 0001:00008ff0       ?Kill@CBasePlayerItem@@UAEXXZ 10009ff0 f   hl_baseentity.obj
 0001:00008ff0       ?onDeathAnimationEnd@CBaseMonster@@UAEXXZ 10009ff0 f   hl_baseentity.obj
 0001:00008ff0       ?OverrideReset@CBaseEntity@@UAEXXZ 10009ff0 f   chumtoadweapon.obj
 0001:00008ff0       ?NeitherHeld@CEgon@@UAEXXZ 10009ff0 f   egon.obj
 0001:00008ff0       ?PostThink@CBasePlayer@@UAEXXZ 10009ff0 f   hl_baseentity.obj
 0001:00008ff0       ?Precache@CBasePlayer@@UAEXXZ 10009ff0 f   hl_baseentity.obj
 0001:00008ff0       ?Think@CCustomMessage@@UAEXXZ 10009ff0 f   custom_message.obj
 0001:00008ff0       ?setModel@CBaseEntity@@UAEXXZ 10009ff0 f   hl_baseentity.obj
 0001:00008ff0       ?BothHeld@CEgon@@UAEXXZ    10009ff0 f   egon.obj
 0001:00008ff0       ?setModel@CBaseMonster@@UAEXXZ 10009ff0 f   hl_baseentity.obj
 0001:00008ff0       ?ItemPreFrameThink@CBasePlayerItem@@UAEXXZ 10009ff0 f   chumtoadweapon.obj
 0001:00008ff0       ?FallInit@CBasePlayerItem@@UAEXXZ 10009ff0 f   hl_baseentity.obj
 0001:00008ff0       ?ReportGeneric@CBaseEntity@@UAEXXZ 10009ff0 f   hl_baseentity.obj
 0001:00008ff0       ?RetireWeapon@CBasePlayerWeapon@@UAEXXZ 10009ff0 f   hl_baseentity.obj
 0001:00008ff0       ?MonsterInitDead@CBaseMonster@@UAEXXZ 10009ff0 f   hl_baseentity.obj
 0001:00008ff0       ?PrimaryNotHeld@CBasePlayerWeapon@@UAEXXZ 10009ff0 f   chumtoadweapon.obj
 0001:00008ff0       ?DeathAnimationStart@CBaseMonster@@UAEXXZ 10009ff0 f   hl_baseentity.obj
 0001:00008ff0       ?CorpseFallThink@CBaseMonster@@QAEXXZ 10009ff0 f   hl_baseentity.obj
 0001:00008ff0       _EV_HLDM_DecalGunshotCustomEvent 10009ff0 f   ev_hldm.obj
 0001:00008ff0       ?DeathSound@CBaseMonster@@UAEXXZ 10009ff0 f   hl_baseentity.obj
 0001:00008ff0       ?precacheGunPickupSound@CBaseEntity@@UAEXXZ 10009ff0 f   hl_baseentity.obj
 0001:00008ff0       ?NeitherHeld@CBasePlayerWeapon@@UAEXXZ 10009ff0 f   chumtoadweapon.obj
 0001:00008ff0       ?Spawn@CBasePlayerAmmo@@UAEXXZ 10009ff0 f   hl_baseentity.obj
 0001:00008ff0       ?UpdateOwner@CBaseEntity@@UAEXXZ 10009ff0 f   chumtoadweapon.obj
 0001:00008ff0       ?StopSneaking@CBaseEntity@@UAEXXZ 10009ff0 f   chumtoadweapon.obj
 0001:00008ff0       ?SetYawSpeed@CBaseMonster@@UAEXXZ 10009ff0 f   hl_baseentity.obj
 0001:00008ff0       ?SecondaryNotHeld@CBasePlayerWeapon@@UAEXXZ 10009ff0 f   chumtoadweapon.obj
 0001:00008ff0       ?BarnacleVictimReleased@CBasePlayer@@UAEXXZ 10009ff0 f   hl_baseentity.obj
 0001:00008ff0       ?paintBackground@CImageLabel@@UAEXXZ 10009ff0 f   vgui_CustomObjects.obj
 0001:00008ff0       ?DestroyItem@CBasePlayerItem@@QAEXXZ 10009ff0 f   hl_baseentity.obj
 0001:00008ff0       ?StartMonster@CBaseMonster@@UAEXXZ 10009ff0 f   hl_baseentity.obj
 0001:00008ff0       ?SetTurnActivity@CBaseMonster@@UAEXXZ 10009ff0 f   hl_baseentity.obj
 0001:00008ff0       ?Drop@CBasePlayerItem@@UAEXXZ 10009ff0 f   hl_baseentity.obj
 0001:00008ff0       ?IdleSound@CBaseMonster@@UAEXXZ 10009ff0 f   hl_baseentity.obj
 0001:00008ff0       ?AlertSound@CBaseMonster@@UAEXXZ 10009ff0 f   hl_baseentity.obj
 0001:00008ff0       ?onNewRouteNode@CBaseMonster@@UAEXXZ 10009ff0 f   hl_baseentity.obj
 0001:00008ff0       ?ItemPostFrameThink@CCrossbow@@UAEXXZ 10009ff0 f   crossbow.obj
 0001:00008ff0       ?UTIL_MakeVectors@@YAXABVVector@@@Z 10009ff0 f   hl_baseentity.obj
 0001:00008ff0       ?UpdateItemInfo@CBasePlayerWeapon@@UAEXXZ 10009ff0 f   chumtoadweapon.obj
 0001:00008ff0       _HUD_DrawTransparentTriangles 10009ff0 f   tri.obj
 0001:00008ff0       ?paintBackground@CListBox@vgui@@UAEXXZ 10009ff0 f   vgui_listbox.obj
 0001:00008ff0       ?Activate@CBasePlayer@@UAEXXZ 10009ff0 f   hl_weapons.obj
 0001:00008ff0       ?SetObjectCollisionBox@CBasePlayerItem@@UAEXXZ 10009ff0 f   hl_baseentity.obj
 0001:00008ff0       ?RunAI@CBaseMonster@@UAEXXZ 10009ff0 f   hl_baseentity.obj
 0001:00008ff0       ?ItemPostFrameThink@CBasePlayerItem@@UAEXXZ 10009ff0 f   chumtoadweapon.obj
 0001:00008ff0       ?AttemptToMaterialize@CBasePlayerItem@@QAEXXZ 10009ff0 f   hl_baseentity.obj
 0001:00008ff0       ?CheckAmmo@CBaseMonster@@UAEXXZ 10009ff0 f   hl_baseentity.obj
 0001:00008ff0       ?Materialize@CBasePlayerAmmo@@QAEXXZ 10009ff0 f   hl_baseentity.obj
 0001:00008ff0       ?PainSound@CBasePlayer@@UAEXXZ 10009ff0 f   hl_baseentity.obj
 0001:00008ff0       ?Reset@CCustomMessage@@UAEXXZ 10009ff0 f   custom_message.obj
 0001:00008ff0       ?SecondaryAttack@CEgon@@UAEXXZ 10009ff0 f   egon.obj
 0001:00008ff0       ?SentenceStop@CBaseMonster@@UAEXXZ 10009ff0 f   hl_baseentity.obj
 0001:00008ff0       ?WeaponIdle@CBasePlayerWeapon@@UAEXXZ 10009ff0 f   hl_weapons.obj
 0001:00008ff0       ?SecondaryAttack@CChumToadWeapon@@UAEXXZ 10009ff0 f   chumtoadweapon.obj
 0001:00008ff0       ?Duck@CBasePlayer@@UAEXXZ  10009ff0 f   hl_baseentity.obj
 0001:00008ff0       ?MonsterInit@CBaseMonster@@UAEXXZ 10009ff0 f   hl_baseentity.obj
 0001:00008ff0       ?EMIT_SOUND_DYN@@YAXPAUedict_s@@HPBDMMHH@Z 10009ff0 f   hl_baseentity.obj
 0001:00008ff0       ?testMethod@CBaseMonster@@UAEXXZ 10009ff0 f   hl_baseentity.obj
 0001:00008ff0       ?setPhysicalHitboxForDeath@CBaseMonster@@UAEXXZ 10009ff0 f   hl_baseentity.obj
 0001:00008ff0       ?UpdateClientData@CBasePlayer@@UAEXXZ 10009ff0 f   hl_baseentity.obj
 0001:00009000       ?MsgFunc_JBoxReq@CCustomMessage@@QAEHPBDHPAX@Z 1000a000 f   custom_message.obj
 0001:00009030       ?MsgFunc_JBoxOff@CCustomMessage@@QAEHPBDHPAX@Z 1000a030 f   custom_message.obj
 0001:00009050       ?MsgFunc_AutoMus@CCustomMessage@@QAEHPBDHPAX@Z 1000a050 f   custom_message.obj
 0001:00009070       ?MsgFunc_CliTest@CCustomMessage@@QAEHPBDHPAX@Z 1000a070 f   custom_message.obj
 0001:00009090       ?MsgFunc_UpdClientC@CCustomMessage@@QAEHPBDHPAX@Z 1000a090 f   custom_message.obj
 0001:00009120       ?MsgFunc_RstClientC@CCustomMessage@@QAEHPBDHPAX@Z 1000a120 f   custom_message.obj
 0001:00009130       ?MsgFunc_PntClientC@CCustomMessage@@QAEHPBDHPAX@Z 1000a130 f   custom_message.obj
 0001:00009180       ?MsgFunc_RetrieveFOV@CCustomMessage@@QAEHPBDHPAX@Z 1000a180 f   custom_message.obj
 0001:00009190       ?MsgFunc_UpdBnclStat@CCustomMessage@@QAEHPBDHPAX@Z 1000a190 f   custom_message.obj
 0001:000091c0       ?MsgFunc_UpdPlyA@CCustomMessage@@QAEHPBDHPAX@Z 1000a1c0 f   custom_message.obj
 0001:00009220       ?MsgFunc_MUnpause@CCustomMessage@@QAEHPBDHPAX@Z 1000a220 f   custom_message.obj
 0001:00009240       ?MsgFunc_UpdTWI@CCustomMessage@@QAEHPBDHPAX@Z 1000a240 f   custom_message.obj
 0001:00009280       ?MsgFunc_UpdJT@CCustomMessage@@QAEHPBDHPAX@Z 1000a280 f   custom_message.obj
 0001:000092b0       ?MsgFunc_YMG@CCustomMessage@@QAEHPBDHPAX@Z 1000a2b0 f   custom_message.obj
 0001:000092d0       ?MsgFunc_YMG_S@CCustomMessage@@QAEHPBDHPAX@Z 1000a2d0 f   custom_message.obj
 0001:000092f0       ?__MsgFunc_JBoxReq@@YAHPBDHPAX@Z 1000a2f0 f   custom_message.obj
 0001:00009310       ?__MsgFunc_JBoxOff@@YAHPBDHPAX@Z 1000a310 f   custom_message.obj
 0001:00009330       ?__MsgFunc_AutoMus@@YAHPBDHPAX@Z 1000a330 f   custom_message.obj
 0001:00009350       ?__MsgFunc_CliTest@@YAHPBDHPAX@Z 1000a350 f   custom_message.obj
 0001:00009370       ?__MsgFunc_UpdClientC@@YAHPBDHPAX@Z 1000a370 f   custom_message.obj
 0001:00009390       ?__MsgFunc_RstClientC@@YAHPBDHPAX@Z 1000a390 f   custom_message.obj
 0001:000093b0       ?__MsgFunc_PntClientC@@YAHPBDHPAX@Z 1000a3b0 f   custom_message.obj
 0001:000093d0       ?__MsgFunc_RetrieveFOV@@YAHPBDHPAX@Z 1000a3d0 f   custom_message.obj
 0001:000093f0       ?__MsgFunc_UpdBnclStat@@YAHPBDHPAX@Z 1000a3f0 f   custom_message.obj
 0001:00009410       ?__MsgFunc_UpdPlyA@@YAHPBDHPAX@Z 1000a410 f   custom_message.obj
 0001:00009430       ?__MsgFunc_MUnpause@@YAHPBDHPAX@Z 1000a430 f   custom_message.obj
 0001:00009450       ?__MsgFunc_UpdTWI@@YAHPBDHPAX@Z 1000a450 f   custom_message.obj
 0001:00009470       ?__MsgFunc_UpdJT@@YAHPBDHPAX@Z 1000a470 f   custom_message.obj
 0001:00009490       ?__MsgFunc_YMG@@YAHPBDHPAX@Z 1000a490 f   custom_message.obj
 0001:000094b0       ?__MsgFunc_YMG_S@@YAHPBDHPAX@Z 1000a4b0 f   custom_message.obj
 0001:000094d0       ??0CCustomMessage@@QAE@XZ  1000a4d0 f   custom_message.obj
 0001:000094e0       ?Init@CCustomMessage@@UAEHXZ 1000a4e0 f   custom_message.obj
 0001:00009600       ?GetClientColor@@YAPAMH@Z  1000a600 f   death.obj
 0001:00009660       ?InitHUDData@CHudDeathNotice@@UAEXXZ 1000a660 f   death.obj
 0001:00009680       ?VidInit@CHudDeathNotice@@UAEHXZ 1000a680 f   death.obj
 0001:000096a0       ?Draw@CHudDeathNotice@@UAEHM@Z 1000a6a0 f   death.obj
 0001:00009970       ?MsgFunc_DeathMsg@CHudDeathNotice@@QAEHPBDHPAX@Z 1000a970 f   death.obj
 0001:00009da0       ?__MsgFunc_DeathMsg@@YAHPBDHPAX@Z 1000ada0 f   death.obj
 0001:00009dc0       ?Init@CHudDeathNotice@@UAEHXZ 1000adc0 f   death.obj
 0001:00009e00       ?Demo_WriteBuffer@@YAXHHPAE@Z 1000ae00 f   demo.obj
 0001:00009e60       _Demo_ReadBuffer           1000ae60 f   demo.obj
 0001:00009ee0       _HUD_AddEntity             1000aee0 f   entity.obj
 0001:00009f40       _HUD_TxferLocalOverrides   1000af40 f   entity.obj
 0001:00009f90       _HUD_ProcessPlayerState    1000af90 f   entity.obj
 0001:0000a120       _HUD_TxferPredictionData   1000b120 f   entity.obj
 0001:0000a2f0       _HUD_CreateEntities        1000b2f0 f   entity.obj
 0001:0000a310       _HUD_StudioEvent           1000b310 f   entity.obj
 0001:0000a590       _HUD_TempEntUpdate         1000b590 f   entity.obj
 0001:0000adf0       ?GetViewEntity@@YAPAUcl_entity_s@@XZ 1000bdf0 f   ev_common.obj
 0001:0000ae00       ?EV_CreateTracer@@YAXPAM0@Z 1000be00 f   ev_common.obj
 0001:0000ae20       ?EV_IsPlayer@@YAHH@Z       1000be20 f   ev_common.obj
 0001:0000ae50       ?EV_IsLocal@@YAHH@Z        1000be50 f   ev_common.obj
 0001:0000aeb0       ?EV_GetGunPosition@@YAXPAUevent_args_s@@PAM1@Z 1000beb0 f   ev_common.obj
 0001:0000af60       ?EV_EjectBrass@@YAXPAM0MHH@Z 1000bf60 f   ev_common.obj
 0001:0000afb0       ?EV_GetDefaultShellInfo@@YAXPAUevent_args_s@@PAM111111MMM@Z 1000bfb0 f   ev_common.obj
 0001:0000b140       ?EV_MuzzleFlash@@YAXXZ     1000c140 f   ev_common.obj
 0001:0000b160       ?EV_HookEvents@@YAXXZ      1000c160 f   events.obj
 0001:0000b170       ?Reset@CHudFlashlight@@UAEXXZ 1000c170 f   flashlight.obj
 0001:0000b180       ?VidInit@CHudFlashlight@@UAEHXZ 1000c180 f   flashlight.obj
 0001:0000b260       ?MsgFunc_FlashBat@CHudFlashlight@@QAEHPBDHPAX@Z 1000c260 f   flashlight.obj
 0001:0000b2a0       ?MsgFunc_Flashlight@CHudFlashlight@@QAEHPBDHPAX@Z 1000c2a0 f   flashlight.obj
 0001:0000b2e0       ?Draw@CHudFlashlight@@UAEHM@Z 1000c2e0 f   flashlight.obj
 0001:0000b400       ?__MsgFunc_FlashBat@@YAHPBDHPAX@Z 1000c400 f   flashlight.obj
 0001:0000b420       ?__MsgFunc_Flashlight@@YAHPBDHPAX@Z 1000c420 f   flashlight.obj
 0001:0000b440       ?Init@CHudFlashlight@@UAEHXZ 1000c440 f   flashlight.obj
 0001:0000b490       ??0CGameStudioModelRenderer@@QAE@XZ 1000c490 f   GameStudioModelRenderer.obj
 0001:0000b4b0       ??_GCStudioModelRenderer@@UAEPAXI@Z 1000c4b0 f i StudioModelRenderer.obj
 0001:0000b4b0       ??_GCGameStudioModelRenderer@@UAEPAXI@Z 1000c4b0 f i GameStudioModelRenderer.obj
 0001:0000b4b0       ??_ECGameStudioModelRenderer@@UAEPAXI@Z 1000c4b0 f i GameStudioModelRenderer.obj
 0001:0000b4b0       ??_ECStudioModelRenderer@@UAEPAXI@Z 1000c4b0 f i StudioModelRenderer.obj
 0001:0000b4e0       ?R_StudioDrawPlayer@@YAHHPAUentity_state_s@@@Z 1000c4e0 f   GameStudioModelRenderer.obj
 0001:0000b500       ?R_StudioDrawModel@@YAHH@Z 1000c500 f   GameStudioModelRenderer.obj
 0001:0000b520       ?R_StudioInit@@YAXXZ       1000c520 f   GameStudioModelRenderer.obj
 0001:0000b530       _HUD_GetStudioModelInterface 1000c530 f   GameStudioModelRenderer.obj
 0001:0000b570       ?MsgFunc_Geiger@CHudGeiger@@QAEHPBDHPAX@Z 1000c570 f   geiger.obj
 0001:0000b5a0       ?__MsgFunc_Geiger@@YAHPBDHPAX@Z 1000c5a0 f   geiger.obj
 0001:0000b5c0       ?Init@CHudGeiger@@UAEHXZ   1000c5c0 f   geiger.obj
 0001:0000b610       ?Normalize@Vector@@QBE?AV1@XZ 1000c610 f i health.obj
 0001:0000b6a0       ?Reset@CHudHealth@@UAEXXZ  1000c6a0 f   health.obj
 0001:0000b730       ?VidInit@CHudHealth@@UAEHXZ 1000c730 f   health.obj
 0001:0000b7a0       ?MsgFunc_Health@CHudHealth@@QAEHPBDHPAX@Z 1000c7a0 f   health.obj
 0001:0000b7e0       ?MsgFunc_Drowning@CHudHealth@@QAEHPBDHPAX@Z 1000c7e0 f   health.obj
 0001:0000b810       ?MsgFunc_HUDItemFsh@CHudHealth@@QAEHPBDHPAX@Z 1000c810 f   health.obj
 0001:0000b8a0       ?GetPainColor@CHudHealth@@QAEXAAH00@Z 1000c8a0 f   health.obj
 0001:0000b8e0       ?DrawItemFlash@CHudHealth@@AAEHM@Z 1000c8e0 f   health.obj
 0001:0000b9f0       ?deriveColorFromHealth@CHudHealth@@QAEXAAH000@Z 1000c9f0 f   health.obj
 0001:0000bab0       ?deriveColorFromHealth@CHudHealth@@QAEXAAH00@Z 1000cab0 f   health.obj
 0001:0000bb60       ?DrawDamage@CHudHealth@@AAEHM@Z 1000cb60 f   health.obj
 0001:0000be40       ?UpdateTiles@CHudHealth@@AAEXMJJ@Z 1000ce40 f   health.obj
 0001:0000bf30       ?setUniformDamage@CHudHealth@@AAEXM@Z 1000cf30 f   health.obj
 0001:0000bf60       ?__MsgFunc_Health@@YAHPBDHPAX@Z 1000cf60 f   health.obj
 0001:0000bf80       ?__MsgFunc_Drowning@@YAHPBDHPAX@Z 1000cf80 f   health.obj
 0001:0000bfa0       ?__MsgFunc_HUDItemFsh@@YAHPBDHPAX@Z 1000cfa0 f   health.obj
 0001:0000bfc0       ??0CHudHealth@@QAE@XZ      1000cfc0 f   health.obj
 0001:0000bfe0       ?CalcDamageDirection@CHudHealth@@AAEXVVector@@HH@Z 1000cfe0 f   health.obj
 0001:0000c2b0       ?getPainColorMode@CHudHealth@@QAEXHAAH00@Z 1000d2b0 f   health.obj
 0001:0000c360       ?DrawPain@CHudHealth@@AAEHM@Z 1000d360 f   health.obj
 0001:0000cd30       ?MsgFunc_Damage@CHudHealth@@QAEHPBDHPAX@Z 1000dd30 f   health.obj
 0001:0000ce90       ?Draw@CHudHealth@@UAEHM@Z  1000de90 f   health.obj
 0001:0000d0c0       ?__MsgFunc_Damage@@YAHPBDHPAX@Z 1000e0c0 f   health.obj
 0001:0000d0e0       ?Init@CHudHealth@@UAEHXZ   1000e0e0 f   health.obj
 0001:0000d1a0       ??_GIVoiceStatusHelper@@UAEPAXI@Z 1000e1a0 f i hud.obj
 0001:0000d1a0       ??_ECHLVoiceStatusHelper@@UAEPAXI@Z 1000e1a0 f i hud.obj
 0001:0000d1a0       ??_EIVoiceStatusHelper@@UAEPAXI@Z 1000e1a0 f i hud.obj
 0001:0000d1a0       ??_GCHLVoiceStatusHelper@@UAEPAXI@Z 1000e1a0 f i hud.obj
 0001:0000d1d0       ??0TablePanel@vgui@@QAE@ABV01@@Z 1000e1d0 f i hud.obj
 0001:0000d2f0       ??4TablePanel@vgui@@QAEAAV01@ABV01@@Z 1000e2f0 f i hud.obj
 0001:0000d410       ??0HeaderPanel@vgui@@QAE@ABV01@@Z 1000e410 f i hud.obj
 0001:0000d4f0       ??4HeaderPanel@vgui@@QAEAAV01@ABV01@@Z 1000e4f0 f i hud.obj
 0001:0000d5c0       ??0TextGrid@vgui@@QAE@ABV01@@Z 1000e5c0 f i hud.obj
 0001:0000d670       ??4TextGrid@vgui@@QAEAAV01@ABV01@@Z 1000e670 f i hud.obj
 0001:0000d710       ??0TextImage@vgui@@QAE@ABV01@@Z 1000e710 f i hud.obj
 0001:0000d790       ??4TextImage@vgui@@QAEAAV01@ABV01@@Z 1000e790 f i hud.obj
 0001:0000d820       ??0IntChangeSignal@vgui@@QAE@XZ 1000e820 f i hud.obj
 0001:0000d830       ??0IntChangeSignal@vgui@@QAE@ABV01@@Z 1000e830 f i hud.obj
 0001:0000d840       ??0Slider2@vgui@@QAE@ABV01@@Z 1000e840 f i hud.obj
 0001:0000d930       ??0ScrollBar2@vgui@@QAE@ABV01@@Z 1000e930 f i hud.obj
 0001:0000d9b0       ??4ScrollBar2@vgui@@QAEAAV01@ABV01@@Z 1000e9b0 f i hud.obj
 0001:0000d9b0       ??4ScrollBar@vgui@@QAEAAV01@ABV01@@Z 1000e9b0 f i ammo.obj
 0001:0000da20       ?writeDateInfo@@YAXPADH@Z  1000ea20 f   hud.obj
 0001:0000da80       ?determineVisualStudioVersion@@YAPBDXZ 1000ea80 f   hud.obj
 0001:0000da90       ?__MsgFunc_ResetHUD@@YAHPBDHPAX@Z 1000ea90 f   hud.obj
 0001:0000dab0       ?__MsgFunc_InitHUD@@YAHPBDHPAX@Z 1000eab0 f   hud.obj
 0001:0000dae0       ?__MsgFunc_ViewMode@@YAHPBDHPAX@Z 1000eae0 f   hud.obj
 0001:0000db10       ?__MsgFunc_Concuss@@YAHPBDHPAX@Z 1000eb10 f   hud.obj
 0001:0000db30       ?__MsgFunc_GameMode@@YAHPBDHPAX@Z 1000eb30 f   hud.obj
 0001:0000db50       ?__CmdFunc_OpenCommandMenu@@YAXXZ 1000eb50 f   hud.obj
 0001:0000db70       ?__CmdFunc_InputPlayerSpecial@@YAXXZ 1000eb70 f   hud.obj
 0001:0000db80       ?__CmdFunc_CloseCommandMenu@@YAXXZ 1000eb80 f   hud.obj
 0001:0000db90       ?__CmdFunc_ForceCloseCommandMenu@@YAXXZ 1000eb90 f   hud.obj
 0001:0000dba0       ?__CmdFunc_ToggleServerBrowser@@YAXXZ 1000eba0 f   hud.obj
 0001:0000dbb0       ?__MsgFunc_ValClass@@YAHPBDHPAX@Z 1000ebb0 f   hud.obj
 0001:0000dbe0       ?__MsgFunc_TeamNames@@YAHPBDHPAX@Z 1000ebe0 f   hud.obj
 0001:0000dc10       ?__MsgFunc_Feign@@YAHPBDHPAX@Z 1000ec10 f   hud.obj
 0001:0000dc40       ?__MsgFunc_Detpack@@YAHPBDHPAX@Z 1000ec40 f   hud.obj
 0001:0000dc70       ?__MsgFunc_VGUIMenu@@YAHPBDHPAX@Z 1000ec70 f   hud.obj
 0001:0000dca0       ?__MsgFunc_MOTD@@YAHPBDHPAX@Z 1000eca0 f   hud.obj
 0001:0000dcd0       ?__MsgFunc_BuildSt@@YAHPBDHPAX@Z 1000ecd0 f   hud.obj
 0001:0000dd00       ?__MsgFunc_RandomPC@@YAHPBDHPAX@Z 1000ed00 f   hud.obj
 0001:0000dd30       ?__MsgFunc_ServerName@@YAHPBDHPAX@Z 1000ed30 f   hud.obj
 0001:0000dd60       ?__MsgFunc_ScoreInfo@@YAHPBDHPAX@Z 1000ed60 f   hud.obj
 0001:0000dd90       ?__MsgFunc_TeamScore@@YAHPBDHPAX@Z 1000ed90 f   hud.obj
 0001:0000ddc0       ?__MsgFunc_TeamInfo@@YAHPBDHPAX@Z 1000edc0 f   hud.obj
 0001:0000ddf0       ?__MsgFunc_Spectator@@YAHPBDHPAX@Z 1000edf0 f   hud.obj
 0001:0000de20       ?__MsgFunc_AllowSpec@@YAHPBDHPAX@Z 1000ee20 f   hud.obj
 0001:0000de50       ?canDrawSidebar@CHud@@QAEHXZ 1000ee50 f   hud.obj
 0001:0000de90       ?attemptDrawBrokenTrans@CHud@@QAEXHHHH@Z 1000ee90 f   hud.obj
 0001:0000dfe0       ?attemptDrawBrokenTransLightAndWhite@CHud@@QAEXHHHH@Z 1000efe0 f   hud.obj
 0001:0000e170       ?playWeaponSelectMoveSound@CHud@@QAEXXZ 1000f170 f   hud.obj
 0001:0000e200       ?command_sneaky@@YAXXZ     1000f200 f   hud.obj
 0001:0000e220       ?command_updateCameraPerspectiveF@@YAXXZ 1000f220 f   hud.obj
 0001:0000e230       ?command_updateCameraPerspectiveT@@YAXXZ 1000f230 f   hud.obj
 0001:0000e240       ?command_god2@@YAXXZ       1000f240 f   hud.obj
 0001:0000e250       ?command_noclip2@@YAXXZ    1000f250 f   hud.obj
 0001:0000e260       ?command_fvoxtoggle@@YAXXZ 1000f260 f   hud.obj
 0001:0000e270       ??1CHud@@QAE@XZ            1000f270 f   hud.obj
 0001:0000e370       ?getGenericRedColor@CHud@@QAEXAAH00@Z 1000f370 f   hud.obj
 0001:0000e3a0       ?getGenericOrangeColor@CHud@@QAEXAAH00@Z 1000f3a0 f   hud.obj
 0001:0000e3d0       ?getGenericGreenColor@CHud@@QAEXAAH00@Z 1000f3d0 f   hud.obj
 0001:0000e400       ?GetSpriteIndex@CHud@@QAEHPBD@Z 1000f400 f   hud.obj
 0001:0000e450       ?VidInit@CHud@@QAEXXZ      1000f450 f   hud.obj
 0001:0000e950       ?MsgFunc_Logo@CHud@@QAAHPBDHPAX@Z 1000f950 f   hud.obj
 0001:0000e980       ?COM_FileBase@@YAXPBDPAD@Z 1000f980 f   hud.obj
 0001:0000ea10       ?HUD_GetFOV@@YAMXZ         1000fa10 f   hud.obj
 0001:0000ea80       ?MsgFunc_SetFOV@CHud@@QAAHPBDHPAX@Z 1000fa80 f   hud.obj
 0001:0000eb40       ?AddHudElem@CHud@@QAEXPAVCHudBase@@@Z 1000fb40 f   hud.obj
 0001:0000eb90       ?GetSensitivity@CHud@@QAEMXZ 1000fb90 f   hud.obj
 0001:0000eba0       ?writeVersionInfo@@YAXPADH@Z 1000fba0 f   hud.obj
 0001:0000ec60       ?GetPlayerTextColor@CHLVoiceStatusHelper@@UAEXHQAH@Z 1000fc60 f i hud.obj
 0001:0000ecc0       ?UpdateCursorState@CHLVoiceStatusHelper@@UAEXXZ 1000fcc0 f i hud.obj
 0001:0000ecd0       ?GetAckIconHeight@CHLVoiceStatusHelper@@UAEHXZ 1000fcd0 f i hud.obj
 0001:0000ecf0       ?CanShowSpeakerLabels@CHLVoiceStatusHelper@@UAE_NXZ 1000fcf0 f i hud.obj
 0001:0000ed20       ??_GCHudMenu@@UAEPAXI@Z    1000fd20 f i hud.obj
 0001:0000ed20       ??_GCHudGeiger@@UAEPAXI@Z  1000fd20 f i hud.obj
 0001:0000ed20       ??_GCHudAmmoSecondary@@UAEPAXI@Z 1000fd20 f i hud.obj
 0001:0000ed20       ??_GCHudHealth@@UAEPAXI@Z  1000fd20 f i health.obj
 0001:0000ed20       ??_ECHudMessage@@UAEPAXI@Z 1000fd20 f i hud.obj
 0001:0000ed20       ??_GCHudFlashlight@@UAEPAXI@Z 1000fd20 f i hud.obj
 0001:0000ed20       ??_ECHudHealth@@UAEPAXI@Z  1000fd20 f i health.obj
 0001:0000ed20       ??_ECHudAmmoSecondary@@UAEPAXI@Z 1000fd20 f i hud.obj
 0001:0000ed20       ??_ECHudBattery@@UAEPAXI@Z 1000fd20 f i hud.obj
 0001:0000ed20       ??_GCHudStatusBar@@UAEPAXI@Z 1000fd20 f i hud.obj
 0001:0000ed20       ??_GCHudTextMessage@@UAEPAXI@Z 1000fd20 f i hud.obj
 0001:0000ed20       ??_GCHudSayText@@UAEPAXI@Z 1000fd20 f i hud.obj
 0001:0000ed20       ??_ECHudFlashlight@@UAEPAXI@Z 1000fd20 f i hud.obj
 0001:0000ed20       ??_GCHudSpectator@@UAEPAXI@Z 1000fd20 f i hud.obj
 0001:0000ed20       ??_ECHudDeathNotice@@UAEPAXI@Z 1000fd20 f i hud.obj
 0001:0000ed20       ??_GCCustomMessage@@UAEPAXI@Z 1000fd20 f i custom_message.obj
 0001:0000ed20       ??_GCHudAmmo@@UAEPAXI@Z    1000fd20 f i ammo.obj
 0001:0000ed20       ??_GCHudMessage@@UAEPAXI@Z 1000fd20 f i hud.obj
 0001:0000ed20       ??_ECHudGeiger@@UAEPAXI@Z  1000fd20 f i hud.obj
 0001:0000ed20       ??_ECHudBase@@UAEPAXI@Z    1000fd20 f i ammo.obj
 0001:0000ed20       ??_ECHudTextMessage@@UAEPAXI@Z 1000fd20 f i hud.obj
 0001:0000ed20       ??_GCHudBattery@@UAEPAXI@Z 1000fd20 f i hud.obj
 0001:0000ed20       ??_GCHudStatusIcons@@UAEPAXI@Z 1000fd20 f i hud.obj
 0001:0000ed20       ??_GCHudDeathNotice@@UAEPAXI@Z 1000fd20 f i hud.obj
 0001:0000ed20       ??_ECHudTrain@@UAEPAXI@Z   1000fd20 f i hud.obj
 0001:0000ed20       ??_ECHudStatusIcons@@UAEPAXI@Z 1000fd20 f i hud.obj
 0001:0000ed20       ??_GCHudTrain@@UAEPAXI@Z   1000fd20 f i hud.obj
 0001:0000ed20       ??_ECHudSayText@@UAEPAXI@Z 1000fd20 f i hud.obj
 0001:0000ed20       ??_ECHudAmmo@@UAEPAXI@Z    1000fd20 f i ammo.obj
 0001:0000ed20       ??_ECCustomMessage@@UAEPAXI@Z 1000fd20 f i custom_message.obj
 0001:0000ed20       ??_ECHudSpectator@@UAEPAXI@Z 1000fd20 f i hud.obj
 0001:0000ed20       ??_ECHudStatusBar@@UAEPAXI@Z 1000fd20 f i hud.obj
 0001:0000ed20       ??_GCHudBase@@UAEPAXI@Z    1000fd20 f i ammo.obj
 0001:0000ed20       ??_ECHudMenu@@UAEPAXI@Z    1000fd20 f i hud.obj
 0001:0000ed50       ?__MsgFunc_Logo@@YAHPBDHPAX@Z 1000fd50 f   hud.obj
 0001:0000ed70       ?__MsgFunc_SetFOV@@YAHPBDHPAX@Z 1000fd70 f   hud.obj
 0001:0000ed90       ?attemptDrawBrokenTrans@CHud@@QAEXHHPAUrect_s@@@Z 1000fd90 f   hud.obj
 0001:0000edc0       ?attemptDrawBrokenTransLightAndWhite@CHud@@QAEXHHPAUrect_s@@@Z 1000fdc0 f   hud.obj
 0001:0000edf0       ?Init@CHud@@QAEXXZ         1000fdf0 f   hud.obj
 0001:0000f470       ?getGenericGUIColor@CHud@@QAEXAAH00@Z 10010470 f   hud.obj
 0001:0000f490       ?getGenericEmptyColor@CHud@@QAEXAAH00@Z 10010490 f   hud.obj
 0001:0000f4e0       ??0CHud@@QAE@XZ            100104e0 f   hud.obj
 0001:0000f610       ?drawAdditiveFilter@CHud@@QAEXHABH00HHHPAUrect_s@@0@Z 10010610 f   hud.obj
 0001:0000f680       ?drawPartialFromBottom@CHud@@QAEXABHPBUrect_s@@M00AAH220@Z 10010680 f   hud.obj
 0001:0000f730       ?drawPartialFromLeft@CHud@@QAEXABHPBUrect_s@@M00AAH220@Z 10010730 f   hud.obj
 0001:0000f7d0       ?drawAdditiveFilter@CHud@@QAEXHABH00HHHPAUrect_s@@@Z 100107d0 f   hud.obj
 0001:0000f810       ?drawPartialFromBottom@CHud@@QAEXABHPBUrect_s@@M00AAH22@Z 10010810 f   hud.obj
 0001:0000f850       ?drawPartialFromLeft@CHud@@QAEXABHPBUrect_s@@M00AAH22@Z 10010850 f   hud.obj
 0001:0000f890       ?MsgFunc_ResetHUD@CHud@@QAAHPBDHPAX@Z 10010890 f   hud_msg.obj
 0001:0000f8d0       ?MsgFunc_ViewMode@CHud@@QAAXPBDHPAX@Z 100108d0 f   hud_msg.obj
 0001:0000f8e0       ?MsgFunc_InitHUD@CHud@@QAAXPBDHPAX@Z 100108e0 f   hud_msg.obj
 0001:0000f920       ?MsgFunc_GameMode@CHud@@QAAHPBDHPAX@Z 10010920 f   hud_msg.obj
 0001:0000f950       ?MsgFunc_Concuss@CHud@@QAAHPBDHPAX@Z 10010950 f   hud_msg.obj
 0001:0000f9b0       ?Think@CHud@@QAEXXZ        100109b0 f   hud_redraw.obj
 0001:0000fb50       ?Redraw@CHud@@QAEHMH@Z     10010b50 f   hud_redraw.obj
 0001:0000fed0       ?ScaleColors@@YAXAAH00H@Z  10010ed0 f   hud_redraw.obj
 0001:0000ff20       ?DrawHudString@CHud@@QAEHHHHPADHHH@Z 10010f20 f   hud_redraw.obj
 0001:0000ff80       ?DrawHudNumber@CHud@@QAEHHHHHHHHHABH@Z 10010f80 f   hud_redraw.obj
 0001:00010360       ?GetNumWidth@CHud@@QAEHHH@Z 10011360 f   hud_redraw.obj
 0001:000103b0       ?DrawHudNumber@CHud@@QAEHHHHHHHH@Z 100113b0 f   hud_redraw.obj
 0001:000103f0       ?DrawHudNumber@CHud@@QAEHHHHHHHHH@Z 100113f0 f   hud_redraw.obj
 0001:00010430       ?ListResponse@CHudServers@@QAEXPAUnet_response_s@@@Z 10011430 f   hud_servers.obj
 0001:000104c0       ?CompareServers@CHudServers@@QAEHPAUserver_s@1@0@Z 100114c0 f   hud_servers.obj
 0001:00010550       ?AddServer@CHudServers@@QAEXPAPAUserver_s@1@PAU21@@Z 10011550 f   hud_servers.obj
 0001:000105e0       ?ServerListSize@CHudServers@@QAEHXZ 100115e0 f   hud_servers.obj
 0001:00010610       ?FindRequest@CHudServers@@QAEPAUrequest_s@1@HPAU21@@Z 10011610 f   hud_servers.obj
 0001:00010640       ?RemoveServerFromList@CHudServers@@QAEXPAPAUrequest_s@1@PAU21@@Z 10011640 f   hud_servers.obj
 0001:00010670       ?ClearRequestList@CHudServers@@QAEXPAPAUrequest_s@1@@Z 10011670 f   hud_servers.obj
 0001:000106a0       ?ClearServerList@CHudServers@@QAEXPAPAUserver_s@1@@Z 100116a0 f   hud_servers.obj
 0001:000106e0       ?CompareField@@YAHPAUserver_s@CHudServers@@0PBDH@Z 100116e0 f   hud_servers.obj
 0001:000107a0       ?ServerListCompareFunc@@YGHPAUserver_s@CHudServers@@0PBD@Z 100117a0 f   hud_servers.obj
 0001:000107d0       ?FnServerCompare@@YAHPBX0@Z 100117d0 f   hud_servers.obj
 0001:000107f0       ?SortServers@CHudServers@@QAEXPBD@Z 100117f0 f   hud_servers.obj
 0001:000108d0       ?GetServer@CHudServers@@AAEPAUserver_s@1@H@Z 100118d0 f   hud_servers.obj
 0001:00010900       ?GetServerInfo@CHudServers@@QAEPADH@Z 10011900 f   hud_servers.obj
 0001:00010920       ?CancelRequest@CHudServers@@QAEXXZ 10011920 f   hud_servers.obj
 0001:00010950       ?LoadMasterAddresses@CHudServers@@QAEHHPAHPAUnetadr_s@@@Z 10011950 f   hud_servers.obj
 0001:00010d10       ?isQuerying@CHudServers@@QAEHXZ 10011d10 f   hud_servers.obj
 0001:00010d20       ??0CHudServers@@QAE@XZ     10011d20 f   hud_servers.obj
 0001:00010d70       ??1CHudServers@@QAE@XZ     10011d70 f   hud_servers.obj
 0001:00010e00       ?ServersIsQuerying@@YAHXZ  10011e00 f   hud_servers.obj
 0001:00010e20       ?ServersGetInfo@@YAPBDH@Z  10011e20 f   hud_servers.obj
 0001:00010e40       ?SortServers@@YAXPBD@Z     10011e40 f   hud_servers.obj
 0001:00010e60       ?ServersCancel@@YAXXZ      10011e60 f   hud_servers.obj
 0001:00010e70       ?ListResponse@@YAXPAUnet_response_s@@@Z 10011e70 f   hud_servers.obj
 0001:00010e90       ?ServerResponse@CHudServers@@QAEXPAUnet_response_s@@@Z 10011e90 f   hud_servers.obj
 0001:00010ff0       ?RequestList@CHudServers@@QAEXXZ 10011ff0 f   hud_servers.obj
 0001:000110f0       ?ServersShutdown@@YAXXZ    100120f0 f   hud_servers.obj
 0001:00011120       ?ServersInit@@YAXXZ        10012120 f   hud_servers.obj
 0001:00011150       ?ServersList@@YAXXZ        10012150 f   hud_servers.obj
 0001:00011160       ?ServerResponse@@YAXPAUnet_response_s@@@Z 10012160 f   hud_servers.obj
 0001:00011180       ?QueryThink@CHudServers@@QAEXXZ 10012180 f   hud_servers.obj
 0001:00011230       ?RequestBroadcastList@CHudServers@@QAEXH@Z 10012230 f   hud_servers.obj
 0001:00011360       ?BroadcastServersList@@YAXH@Z 10012360 f   hud_servers.obj
 0001:00011380       ?Think@CHudServers@@QAEXN@Z 10012380 f   hud_servers.obj
 0001:000113e0       ?ServersThink@@YAXN@Z      100123e0 f   hud_servers.obj
 0001:00011400       ?SpectatorSpray@@YAXXZ     10012400 f   hud_spectator.obj
 0001:00011500       ?SpectatorHelp@@YAXXZ      10012500 f   hud_spectator.obj
 0001:00011550       ?SpectatorMenu@@YAXXZ      10012550 f   hud_spectator.obj
 0001:000115a0       ?ToggleScores@@YAXXZ       100125a0 f   hud_spectator.obj
 0001:000115d0       ?UTIL_StringToVector@@YAXPAMPBD@Z 100125d0 f   hud_spectator.obj
 0001:00011670       ?UTIL_FindEntityInMap@@YAHPADPAM1@Z 10012670 f   hud_spectator.obj
 0001:000119c0       ?SetSpectatorStartPosition@CHudSpectator@@QAEXXZ 100129c0 f   hud_spectator.obj
 0001:00011ac0       ?VidInit@CHudSpectator@@UAEHXZ 10012ac0 f   hud_spectator.obj
 0001:00011b60       ?Draw@CHudSpectator@@UAEHM@Z 10012b60 f   hud_spectator.obj
 0001:00011f00       ?HandleButtonsUp@CHudSpectator@@QAEXH@Z 10012f00 f   hud_spectator.obj
 0001:00011f50       ?IsActivePlayer@CHudSpectator@@QAE_NPAUcl_entity_s@@@Z 10012f50 f   hud_spectator.obj
 0001:00011fa0       ?ParseOverviewFile@CHudSpectator@@QAE_NXZ 10012fa0 f   hud_spectator.obj
 0001:000125d0       ?LoadMapSprites@CHudSpectator@@QAEXXZ 100135d0 f   hud_spectator.obj
 0001:00012600       ?DrawOverviewLayer@CHudSpectator@@QAEXXZ 10013600 f   hud_spectator.obj
 0001:00012a70       ?DrawOverviewEntities@CHudSpectator@@QAEXXZ 10013a70 f   hud_spectator.obj
 0001:000134a0       ?CheckOverviewEntities@CHudSpectator@@QAEXXZ 100144a0 f   hud_spectator.obj
 0001:000134e0       ?AddOverviewEntityToList@CHudSpectator@@QAE_NHPAUcl_entity_s@@N@Z 100144e0 f   hud_spectator.obj
 0001:00013540       ?CheckSettings@CHudSpectator@@QAEXXZ 10014540 f   hud_spectator.obj
 0001:00013780       ?ToggleInset@CHudSpectator@@QAEH_N@Z 10014780 f   hud_spectator.obj
 0001:000137d0       ?Reset@CHudSpectator@@UAEXXZ 100147d0 f   hud_spectator.obj
 0001:00013840       ?FindNextPlayer@CHudSpectator@@QAEX_N@Z 10014840 f   hud_spectator.obj
 0001:000139d0       ?SetModes@CHudSpectator@@QAEXHH@Z 100149d0 f   hud_spectator.obj
 0001:00013ce0       ?DrawOverview@CHudSpectator@@QAEXXZ 10014ce0 f   hud_spectator.obj
 0001:00013d40       ?AddOverviewEntity@CHudSpectator@@QAE_NHPAUcl_entity_s@@PBD@Z 10014d40 f   hud_spectator.obj
 0001:00013dc0       ?DeathMessage@CHudSpectator@@QAEXH@Z 10014dc0 f   hud_spectator.obj
 0001:00013e10       ?InitHUDData@CHudSpectator@@UAEXXZ 10014e10 f   hud_spectator.obj
 0001:00013ee0       ?SpectatorMode@@YAXXZ      10014ee0 f   hud_spectator.obj
 0001:00013f50       ?Init@CHudSpectator@@UAEHXZ 10014f50 f   hud_spectator.obj
 0001:000140f0       ?DirectorMessage@CHudSpectator@@QAEXHPAX@Z 100150f0 f   hud_spectator.obj
 0001:00014470       ?HandleButtonsDown@CHudSpectator@@QAEXH@Z 10015470 f   hud_spectator.obj
 0001:00014640       ?UpdateClientData@CHud@@QAEHPAUclient_data_s@@M@Z 10015640 f   hud_update.obj
 0001:000146d0       ?MoveToward@@YAMMMM@Z      100156d0 f   in_camera.obj
 0001:000147c0       ?CAM_PitchUpDown@@YAXXZ    100157c0 f   in_camera.obj
 0001:000147d0       ?CAM_PitchUpUp@@YAXXZ      100157d0 f   in_camera.obj
 0001:000147e0       ?CAM_PitchDownDown@@YAXXZ  100157e0 f   in_camera.obj
 0001:000147f0       ?CAM_PitchDownUp@@YAXXZ    100157f0 f   in_camera.obj
 0001:00014800       ?CAM_YawLeftDown@@YAXXZ    10015800 f   in_camera.obj
 0001:00014810       ?CAM_YawLeftUp@@YAXXZ      10015810 f   in_camera.obj
 0001:00014820       ?CAM_YawRightDown@@YAXXZ   10015820 f   in_camera.obj
 0001:00014830       ?CAM_YawRightUp@@YAXXZ     10015830 f   in_camera.obj
 0001:00014840       ?CAM_InDown@@YAXXZ         10015840 f   in_camera.obj
 0001:00014850       ?CAM_InUp@@YAXXZ           10015850 f   in_camera.obj
 0001:00014860       ?CAM_OutDown@@YAXXZ        10015860 f   in_camera.obj
 0001:00014870       ?CAM_OutUp@@YAXXZ          10015870 f   in_camera.obj
 0001:00014880       ?CAM_ToThirdPerson@@YAXXZ  10015880 f   in_camera.obj
 0001:000148f0       ?CAM_ToFirstPerson@@YAXXZ  100158f0 f   in_camera.obj
 0001:00014910       ?CAM_ToggleSnapto@@YAXXZ   10015910 f   in_camera.obj
 0001:00014940       ?CAM_StartMouseMove@@YAXXZ 10015940 f   in_camera.obj
 0001:000149f0       ?CAM_EndMouseMove@@YAXXZ   100159f0 f   in_camera.obj
 0001:00014a00       ?CAM_StartDistance@@YAXXZ  10015a00 f   in_camera.obj
 0001:00014a80       ?CAM_EndDistance@@YAXXZ    10015a80 f   in_camera.obj
 0001:00014aa0       _CL_IsThirdPerson          10015aa0 f   in_camera.obj
 0001:00014ad0       _CL_CameraOffset           10015ad0 f   in_camera.obj
 0001:00014b00       ?CAM_Init@@YAXXZ           10015b00 f   in_camera.obj
 0001:00014d60       _CAM_Think                 10015d60 f   in_camera.obj
 0001:00015320       ?KB_ConvertString@@YAHPADPAPAD@Z 10016320 f   input.obj
 0001:00015470       _KB_Find                   10016470 f   input.obj
 0001:000154b0       ?KB_Add@@YAXPBDPAUkbutton_s@@@Z 100164b0 f   input.obj
 0001:00015520       ?KB_Init@@YAXXZ            10016520 f   input.obj
 0001:00015560       ?KB_Shutdown@@YAXXZ        10016560 f   input.obj
 0001:00015590       ?KeyDown@@YAXPAUkbutton_s@@@Z 10016590 f   input.obj
 0001:00015600       ?KeyUp@@YAXPAUkbutton_s@@@Z 10016600 f   input.obj
 0001:00015670       _HUD_Key_Event             10016670 f   input.obj
 0001:000156a0       ?IN_BreakDown@@YAXXZ       100166a0 f   input.obj
 0001:000156b0       ?IN_BreakUp@@YAXXZ         100166b0 f   input.obj
 0001:000156c0       ?IN_KLookDown@@YAXXZ       100166c0 f   input.obj
 0001:000156d0       ?IN_KLookUp@@YAXXZ         100166d0 f   input.obj
 0001:000156e0       ?IN_JLookDown@@YAXXZ       100166e0 f   input.obj
 0001:000156f0       ?IN_JLookUp@@YAXXZ         100166f0 f   input.obj
 0001:00015700       ?IN_MLookDown@@YAXXZ       10016700 f   input.obj
 0001:00015710       ?IN_UpDown@@YAXXZ          10016710 f   input.obj
 0001:00015720       ?IN_UpUp@@YAXXZ            10016720 f   input.obj
 0001:00015730       ?IN_DownDown@@YAXXZ        10016730 f   input.obj
 0001:00015740       ?IN_DownUp@@YAXXZ          10016740 f   input.obj
 0001:00015750       ?IN_LeftDown@@YAXXZ        10016750 f   input.obj
 0001:00015760       ?IN_LeftUp@@YAXXZ          10016760 f   input.obj
 0001:00015770       ?IN_RightDown@@YAXXZ       10016770 f   input.obj
 0001:00015780       ?IN_RightUp@@YAXXZ         10016780 f   input.obj
 0001:00015790       ?IN_ForwardDown@@YAXXZ     10016790 f   input.obj
 0001:000157b0       ?IN_ForwardUp@@YAXXZ       100167b0 f   input.obj
 0001:000157d0       ?IN_BackDown@@YAXXZ        100167d0 f   input.obj
 0001:000157f0       ?IN_BackUp@@YAXXZ          100167f0 f   input.obj
 0001:00015810       ?IN_LookupDown@@YAXXZ      10016810 f   input.obj
 0001:00015820       ?IN_LookupUp@@YAXXZ        10016820 f   input.obj
 0001:00015830       ?IN_LookdownDown@@YAXXZ    10016830 f   input.obj
 0001:00015840       ?IN_LookdownUp@@YAXXZ      10016840 f   input.obj
 0001:00015850       ?IN_MoveleftDown@@YAXXZ    10016850 f   input.obj
 0001:00015870       ?IN_MoveleftUp@@YAXXZ      10016870 f   input.obj
 0001:00015890       ?IN_MoverightDown@@YAXXZ   10016890 f   input.obj
 0001:000158b0       ?IN_MoverightUp@@YAXXZ     100168b0 f   input.obj
 0001:000158d0       ?IN_SpeedDown@@YAXXZ       100168d0 f   input.obj
 0001:000158e0       ?IN_SpeedUp@@YAXXZ         100168e0 f   input.obj
 0001:000158f0       ?IN_StrafeDown@@YAXXZ      100168f0 f   input.obj
 0001:00015900       ?IN_StrafeUp@@YAXXZ        10016900 f   input.obj
 0001:00015910       ?IN_Attack2Down@@YAXXZ     10016910 f   input.obj
 0001:00015930       ?IN_Attack2Up@@YAXXZ       10016930 f   input.obj
 0001:00015940       ?IN_UseDown@@YAXXZ         10016940 f   input.obj
 0001:00015960       ?IN_UseUp@@YAXXZ           10016960 f   input.obj
 0001:00015970       ?IN_JumpDown@@YAXXZ        10016970 f   input.obj
 0001:00015990       ?IN_JumpUp@@YAXXZ          10016990 f   input.obj
 0001:000159a0       ?IN_DuckDown@@YAXXZ        100169a0 f   input.obj
 0001:000159c0       ?IN_DuckUp@@YAXXZ          100169c0 f   input.obj
 0001:000159d0       ?IN_ReloadDown@@YAXXZ      100169d0 f   input.obj
 0001:000159e0       ?IN_ReloadUp@@YAXXZ        100169e0 f   input.obj
 0001:000159f0       ?IN_Alt1Down@@YAXXZ        100169f0 f   input.obj
 0001:00015a00       ?IN_Alt1Up@@YAXXZ          10016a00 f   input.obj
 0001:00015a10       ?IN_GraphDown@@YAXXZ       10016a10 f   input.obj
 0001:00015a20       ?IN_GraphUp@@YAXXZ         10016a20 f   input.obj
 0001:00015a30       ?IN_AttackDown@@YAXXZ      10016a30 f   input.obj
 0001:00015a50       ?IN_AttackUp@@YAXXZ        10016a50 f   input.obj
 0001:00015a70       ?IN_Impulse@@YAXXZ         10016a70 f   input.obj
 0001:00015a90       ?IN_ScoreDown@@YAXXZ       10016a90 f   input.obj
 0001:00015ab0       ?IN_ScoreUp@@YAXXZ         10016ab0 f   input.obj
 0001:00015ad0       ?IN_MLookUp@@YAXXZ         10016ad0 f   input.obj
 0001:00015b00       ?CL_KeyState@@YAMPAUkbutton_s@@@Z 10016b00 f   input.obj
 0001:00015ba0       ?CL_AdjustAngles@@YAXMPAM@Z 10016ba0 f   input.obj
 0001:00015d60       ?CL_IsDead@@YAHXZ          10016d60 f   input.obj
 0001:00015d70       ?CL_ButtonBits@@YAHH@Z     10016d70 f   input.obj
 0001:00015ec0       ?CL_ResetButtonBits@@YAXH@Z 10016ec0 f   input.obj
 0001:00015f00       ?InitInput@@YAXXZ          10016f00 f   input.obj
 0001:00016410       ?ShutdownInput@@YAXXZ      10017410 f   input.obj
 0001:00016420       _HUD_Shutdown              10017420 f   input.obj
 0001:00016430       _CL_CreateMove             10017430 f   input.obj
 0001:000167c0       ?Force_CenterView_f@@YAXXZ 100177c0 f   inputw32.obj
 0001:000167f0       _IN_ActivateMouse          100177f0 f   inputw32.obj
 0001:00016830       _IN_DeactivateMouse        10017830 f   inputw32.obj
 0001:00016860       ?IN_StartupMouse@@YAXXZ    10017860 f   inputw32.obj
 0001:00016930       ?IN_Shutdown@@YAXXZ        10017930 f   inputw32.obj
 0001:00016940       ?IN_ResetMouse@@YAXXZ      10017940 f   inputw32.obj
 0001:00016960       _IN_MouseEvent             10017960 f   inputw32.obj
 0001:000169e0       ?IN_MouseMove@@YAXMPAUusercmd_s@@@Z 100179e0 f   inputw32.obj
 0001:00016c70       _IN_Accumulate             10017c70 f   inputw32.obj
 0001:00016cd0       _IN_ClearStates            10017cd0 f   inputw32.obj
 0001:00016cf0       ?IN_StartupJoystick@@YAXXZ 10017cf0 f   inputw32.obj
 0001:00016e80       ?RawValuePointer@@YAPAKH@Z 10017e80 f   inputw32.obj
 0001:00016ee0       ?Joy_AdvancedUpdate_f@@YAXXZ 10017ee0 f   inputw32.obj
 0001:00017180       ?IN_Commands@@YAXXZ        10018180 f   inputw32.obj
 0001:000172e0       ?IN_ReadJoystick@@YAHXZ    100182e0 f   inputw32.obj
 0001:00017340       ?IN_JoyMove@@YAXMPAUusercmd_s@@@Z 10018340 f   inputw32.obj
 0001:000177e0       ?IN_Move@@YAXMPAUusercmd_s@@@Z 100187e0 f   inputw32.obj
 0001:00017820       ?IN_Init@@YAXXZ            10018820 f   inputw32.obj
 0001:00017a40       ?InitHUDData@CHudMenu@@UAEXXZ 10018a40 f   menu.obj
 0001:00017a50       ?Reset@CHudMenu@@UAEXXZ    10018a50 f   menu.obj
 0001:00017a60       ?Draw@CHudMenu@@UAEHM@Z    10018a60 f   menu.obj
 0001:00017ba0       ?SelectMenuItem@CHudMenu@@QAEXH@Z 10018ba0 f   menu.obj
 0001:00017c10       ?MsgFunc_ShowMenu@CHudMenu@@QAEHPBDHPAX@Z 10018c10 f   menu.obj
 0001:00017d50       ?__MsgFunc_ShowMenu@@YAHPBDHPAX@Z 10018d50 f   menu.obj
 0001:00017d70       ?Init@CHudMenu@@UAEHXZ     10018d70 f   menu.obj
 0001:00017db0       ?VidInit@CHudMessage@@UAEHXZ 10018db0 f   message.obj
 0001:00017df0       ?Reset@CHudMessage@@UAEXXZ 10018df0 f   message.obj
 0001:00017e30       ?FadeBlend@CHudMessage@@QAEMMMMM@Z 10018e30 f   message.obj
 0001:00017ed0       ?XPosition@CHudMessage@@QAEHMHH@Z 10018ed0 f   message.obj
 0001:00017f50       ?YPosition@CHudMessage@@QAEHMH@Z 10018f50 f   message.obj
 0001:00017fd0       ?MessageScanNextChar@CHudMessage@@QAEXXZ 10018fd0 f   message.obj
 0001:00018190       ?MessageScanStart@CHudMessage@@QAEXXZ 10019190 f   message.obj
 0001:000182d0       ?MessageDrawScan@CHudMessage@@QAEXPAUclient_textmessage_s@@M@Z 100192d0 f   message.obj
 0001:000184d0       ?Draw@CHudMessage@@UAEHM@Z 100194d0 f   message.obj
 0001:00018860       ?MessageAdd@CHudMessage@@QAEXPBDM@Z 10019860 f   message.obj
 0001:00018a00       ?MsgFunc_HudText@CHudMessage@@QAEHPBDHPAX@Z 10019a00 f   message.obj
 0001:00018a50       ?MsgFunc_GameTitle@CHudMessage@@QAEHPBDHPAX@Z 10019a50 f   message.obj
 0001:00018a90       ?MessageAdd@CHudMessage@@QAEXPAUclient_textmessage_s@@@Z 10019a90 f   message.obj
 0001:00018ae0       ?__MsgFunc_HudText@@YAHPBDHPAX@Z 10019ae0 f   message.obj
 0001:00018b00       ?__MsgFunc_GameTitle@@YAHPBDHPAX@Z 10019b00 f   message.obj
 0001:00018b20       ?Init@CHudMessage@@UAEHXZ  10019b20 f   message.obj
 0001:00018b70       ?BEGIN_READ@@YAXPAXH@Z     10019b70 f   parsemsg.obj
 0001:00018ba0       ?READ_CHAR@@YAHXZ          10019ba0 f   parsemsg.obj
 0001:00018bd0       ?READ_BYTE@@YAHXZ          10019bd0 f   parsemsg.obj
 0001:00018c00       ?READ_SHORT@@YAHXZ         10019c00 f   parsemsg.obj
 0001:00018c50       ?READ_WORD@@YAHXZ          10019c50 f   parsemsg.obj
 0001:00018c60       ?READ_LONG@@YAHXZ          10019c60 f   parsemsg.obj
 0001:00018cc0       ?READ_FLOAT@@YAMXZ         10019cc0 f   parsemsg.obj
 0001:00018d00       ?READ_STRING@@YAPADXZ      10019d00 f   parsemsg.obj
 0001:00018d50       ?READ_COORD@@YAMXZ         10019d50 f   parsemsg.obj
 0001:00018d70       _anglemod                  10019d70 f   pm_math.obj
 0001:00018da0       _AngleVectors              10019da0 f   pm_math.obj
 0001:00018ee0       _NormalizeAngles           10019ee0 f   pm_math.obj
 0001:00018f70       _VectorCompare             10019f70 f   pm_math.obj
 0001:00018f70       ?VectorCompare@@YAHPBM0@Z  10019f70 f   studio_util.obj
 0001:00018fb0       _CrossProduct              10019fb0 f   pm_math.obj
 0001:00018ff0       ?Length@@YAMPBM@Z          10019ff0 f   util.obj
 0001:00018ff0       _Length                    10019ff0 f   pm_math.obj
 0001:00019040       _Distance                  1001a040 f   pm_math.obj
 0001:00019090       _VectorNormalize           1001a090 f   pm_math.obj
 0001:00019100       _VectorScale               1001a100 f   pm_math.obj
 0001:00019100       ?VectorScale@@YAXPBMMPAM@Z 1001a100 f   util.obj
 0001:00019130       _getSafeSqureRoot          1001a130 f   pm_shared.obj
 0001:00019170       _PM_SwapTextures           1001a170 f   pm_shared.obj
 0001:00019210       _PM_SortTextures           1001a210 f   pm_shared.obj
 0001:00019290       _PM_InitTextureTypes       1001a290 f   pm_shared.obj
 0001:00019520       _PM_FindTextureType        1001a520 f   pm_shared.obj
 0001:00019580       _PM_PlayStepSound          1001a580 f   pm_shared.obj
 0001:00019f30       _PM_MapTextureTypeStepType 1001af30 f   pm_shared.obj
 0001:00019fb0       _PM_CatagorizeTextureType  1001afb0 f   pm_shared.obj
 0001:0001a0b0       _PM_UpdateStepSound        1001b0b0 f   pm_shared.obj
 0001:0001a3d0       _PM_AddToTouched           1001b3d0 f   pm_shared.obj
 0001:0001a470       _PM_CheckVelocity          1001b470 f   pm_shared.obj
 0001:0001a560       _PM_ClipVelocity           1001b560 f   pm_shared.obj
 0001:0001a680       _PM_AddCorrectGravity      1001b680 f   pm_shared.obj
 0001:0001a710       _PM_FixupGravityVelocity   1001b710 f   pm_shared.obj
 0001:0001a780       _PM_FlyMove                1001b780 f   pm_shared.obj
 0001:0001ad90       _PM_Accelerate             1001bd90 f   pm_shared.obj
 0001:0001ae60       _PM_WalkMove               1001be60 f   pm_shared.obj
 0001:0001b3b0       _PM_Friction               1001c3b0 f   pm_shared.obj
 0001:0001b5a0       _PM_AirAccelerate          1001c5a0 f   pm_shared.obj
 0001:0001b680       _PM_WaterMove              1001c680 f   pm_shared.obj
 0001:0001ba30       _PM_AirMove                1001ca30 f   pm_shared.obj
 0001:0001bbe0       _PM_InWater                1001cbe0 f   pm_shared.obj
 0001:0001bc00       _PM_CheckWater             1001cc00 f   pm_shared.obj
 0001:0001bde0       _PM_CatagorizePosition     1001cde0 f   pm_shared.obj
 0001:0001bf30       _PM_GetRandomStuckOffsets  1001cf30 f   pm_shared.obj
 0001:0001bf90       _PM_ResetStuckOffsets      1001cf90 f   pm_shared.obj
 0001:0001bfb0       _PM_CheckStuck             1001cfb0 f   pm_shared.obj
 0001:0001c2c0       _PM_SpectatorMove          1001d2c0 f   pm_shared.obj
 0001:0001c6e0       _PM_SplineFraction         1001d6e0 f   pm_shared.obj
 0001:0001c720       _PM_FixPlayerCrouchStuck   1001d720 f   pm_shared.obj
 0001:0001c7c0       _PM_LadderMove             1001d7c0 f   pm_shared.obj
 0001:0001cce0       _PM_Ladder                 1001dce0 f   pm_shared.obj
 0001:0001cdd0       _PM_WaterJump              1001ddd0 f   pm_shared.obj
 0001:0001ce90       _PM_AddGravity             1001de90 f   pm_shared.obj
 0001:0001cf00       _PM_PushEntity             1001df00 f   pm_shared.obj
 0001:0001cfd0       _PM_Physics_Toss           1001dfd0 f   pm_shared.obj
 0001:0001d2f0       _PM_NoClip                 1001e2f0 f   pm_shared.obj
 0001:0001d410       _PM_Jump                   1001e410 f   pm_shared.obj
 0001:0001d860       _PM_CheckWaterJump         1001e860 f   pm_shared.obj
 0001:0001db20       _PM_CheckFalling           1001eb20 f   pm_shared.obj
 0001:0001dd80       _PM_PlayWaterSounds        1001ed80 f   pm_shared.obj
 0001:0001dea0       _PM_CalcRoll               1001eea0 f   pm_shared.obj
 0001:0001df50       _PM_DropPunchAngle         1001ef50 f   pm_shared.obj
 0001:0001dfb0       _PM_CheckParamters         1001efb0 f   pm_shared.obj
 0001:0001e1c0       _PM_ReduceTimers           1001f1c0 f   pm_shared.obj
 0001:0001e290       _PM_CreateStuckTable       1001f290 f   pm_shared.obj
 0001:0001e550       _PM_GetPhysEntInfo         1001f550 f   pm_shared.obj
 0001:0001e580       _PM_Init                   1001f580 f   pm_shared.obj
 0001:0001e5b0       _PM_CatagorizePositionBASIC 1001f5b0 f   pm_shared.obj
 0001:0001e5c0       _PM_UnDuck                 1001f5c0 f   pm_shared.obj
 0001:0001e740       _PM_Duck                   1001f740 f   pm_shared.obj
 0001:0001e9a0       _PM_PlayerMove             1001f9a0 f   pm_shared.obj
 0001:0001edc0       _PM_Move                   1001fdc0 f   pm_shared.obj
 0001:0001ee90       ?InitHUDData@CHudSayText@@UAEXXZ 1001fe90 f   saytext.obj
 0001:0001eef0       ?ScrollTextUp@@YAHXZ       1001fef0 f   saytext.obj
 0001:0001ef60       ?Draw@CHudSayText@@UAEHM@Z 1001ff60 f   saytext.obj
 0001:0001f0f0       ?EnsureTextFitsInOneLineAndWrapIfHaveTo@CHudSayText@@QAEXH@Z 100200f0 f   saytext.obj
 0001:0001f320       ?SayTextPrint@CHudSayText@@QAEXPBDHH@Z 10020320 f   saytext.obj
 0001:0001f490       ?MsgFunc_SayText@CHudSayText@@QAEHPBDHPAX@Z 10020490 f   saytext.obj
 0001:0001f4d0       ?__MsgFunc_SayText@@YAHPBDHPAX@Z 100204d0 f   saytext.obj
 0001:0001f4f0       ?Init@CHudSayText@@UAEHXZ  100204f0 f   saytext.obj
 0001:0001f560       ?Reset@CHudStatusIcons@@UAEXXZ 10020560 f   status_icons.obj
 0001:0001f580       ?Draw@CHudStatusIcons@@UAEHM@Z 10020580 f   status_icons.obj
 0001:0001f5f0       ?EnableIcon@CHudStatusIcons@@QAEXPADEEE@Z 100205f0 f   status_icons.obj
 0001:0001f700       ?DisableIcon@CHudStatusIcons@@QAEXPAD@Z 10020700 f   status_icons.obj
 0001:0001f750       ?MsgFunc_StatusIcon@CHudStatusIcons@@QAEHPBDHPAX@Z 10020750 f   status_icons.obj
 0001:0001f7c0       ?__MsgFunc_StatusIcon@@YAHPBDHPAX@Z 100207c0 f   status_icons.obj
 0001:0001f7e0       ?Init@CHudStatusIcons@@UAEHXZ 100207e0 f   status_icons.obj
 0001:0001f820       ?Reset@CHudStatusBar@@UAEXXZ 10020820 f   statusbar.obj
 0001:0001f880       ?ParseStatusString@CHudStatusBar@@QAEXH@Z 10020880 f   statusbar.obj
 0001:0001faf0       ?Draw@CHudStatusBar@@UAEHM@Z 10020af0 f   statusbar.obj
 0001:0001fc70       ?MsgFunc_StatusText@CHudStatusBar@@QAEHPBDHPAX@Z 10020c70 f   statusbar.obj
 0001:0001fcf0       ?MsgFunc_StatusValue@CHudStatusBar@@QAEHPBDHPAX@Z 10020cf0 f   statusbar.obj
 0001:0001fd40       ?__MsgFunc_StatusText@@YAHPBDHPAX@Z 10020d40 f   statusbar.obj
 0001:0001fd60       ?__MsgFunc_StatusValue@@YAHPBDHPAX@Z 10020d60 f   statusbar.obj
 0001:0001fd80       ?Init@CHudStatusBar@@UAEHXZ 10020d80 f   statusbar.obj
 0001:0001fde0       ?AngleMatrix@@YAXPBMPAY03M@Z 10020de0 f   studio_util.obj
 0001:0001ff10       ?VectorTransform@@YAXPBMQAY03MPAM@Z 10020f10 f   studio_util.obj
 0001:0001ff70       ?ConcatTransforms@@YAXQAY03M00@Z 10020f70 f   studio_util.obj
 0001:000200b0       ?AngleQuaternion@@YAXPAMQAM@Z 100210b0 f   studio_util.obj
 0001:000201b0       ?QuaternionSlerp@@YAXQAM0M0@Z 100211b0 f   studio_util.obj
 0001:000203f0       ?QuaternionMatrix@@YAXQAMPAY03M@Z 100213f0 f   studio_util.obj
 0001:000204c0       ?MatrixCopy@@YAXQAY03M0@Z  100214c0 f   studio_util.obj
 0001:000204e0       ?DropShadows@@YAXXZ        100214e0 f   StudioModelRenderer.obj
 0001:000204f0       ?Init@CStudioModelRenderer@@UAEXXZ 100214f0 f   StudioModelRenderer.obj
 0001:00020570       ??0CStudioModelRenderer@@QAE@XZ 10021570 f   StudioModelRenderer.obj
 0001:000205d0       ??1CStudioModelRenderer@@UAE@XZ 100215d0 f   StudioModelRenderer.obj
 0001:000205e0       ?StudioCalcBoneAdj@CStudioModelRenderer@@UAEXMPAMPBE1E@Z 100215e0 f   StudioModelRenderer.obj
 0001:00020610       ?StudioCalcBoneAdj@CStudioModelRenderer@@UAEXMPAMPBE1EE@Z 10021610 f   StudioModelRenderer.obj
 0001:00020850       ?StudioCalcBoneQuaterion@CStudioModelRenderer@@UAEXHMPAUmstudiobone_t@@PAUmstudioanim_t@@PAM2@Z 10021850 f   StudioModelRenderer.obj
 0001:00020a20       ?StudioCalcBonePosition@CStudioModelRenderer@@UAEXHMPAUmstudiobone_t@@PAUmstudioanim_t@@PAM2@Z 10021a20 f   StudioModelRenderer.obj
 0001:00020b50       ?StudioSlerpBones@CStudioModelRenderer@@UAEXQAY03MQAY02M01M@Z 10021b50 f   StudioModelRenderer.obj
 0001:00020c80       ?StudioGetAnim@CStudioModelRenderer@@UAEPAUmstudioanim_t@@PAUmodel_s@@PAUmstudioseqdesc_t@@@Z 10021c80 f   StudioModelRenderer.obj
 0001:00020d20       ?StudioPlayerBlend@CStudioModelRenderer@@UAEXPAUmstudioseqdesc_t@@PAHPAM@Z 10021d20 f   StudioModelRenderer.obj
 0001:00020e00       ?StudioSetUpTransform@CStudioModelRenderer@@UAEXH@Z 10021e00 f   StudioModelRenderer.obj
 0001:00021350       ?StudioEstimateInterpolant@CStudioModelRenderer@@UAEMXZ 10022350 f   StudioModelRenderer.obj
 0001:000213c0       ?StudioCalcRotations@CStudioModelRenderer@@UAEXQAY02MPAY03MPAUmstudioseqdesc_t@@PAUmstudioanim_t@@M@Z 100223c0 f   StudioModelRenderer.obj
 0001:000213f0       ?StudioCalcRotations@CStudioModelRenderer@@UAEXQAY02MPAY03MPAUmstudioseqdesc_t@@PAUmstudioanim_t@@ME@Z 100223f0 f   StudioModelRenderer.obj
 0001:00021600       ?StudioFxTransform@CStudioModelRenderer@@UAEXPAUcl_entity_s@@QAY03M@Z 10022600 f   StudioModelRenderer.obj
 0001:00021730       ?StudioEstimateFrame@CStudioModelRenderer@@UAEMPAUmstudioseqdesc_t@@@Z 10022730 f   StudioModelRenderer.obj
 0001:000218b0       ?StudioSetupBones@CStudioModelRenderer@@UAEXXZ 100228b0 f   StudioModelRenderer.obj
 0001:000218c0       ?StudioSetupBones@CStudioModelRenderer@@UAEXE@Z 100228c0 f   StudioModelRenderer.obj
 0001:00022510       ?StudioSaveBones@CStudioModelRenderer@@UAEXXZ 10023510 f   StudioModelRenderer.obj
 0001:000225c0       ?StudioMergeBones@CStudioModelRenderer@@UAEXPAUmodel_s@@@Z 100235c0 f   StudioModelRenderer.obj
 0001:000225e0       ?StudioMergeBones@CStudioModelRenderer@@UAEXPAUmodel_s@@E@Z 100235e0 f   StudioModelRenderer.obj
 0001:000228a0       ?StudioEstimateGait@CStudioModelRenderer@@UAEXPAUentity_state_s@@@Z 100238a0 f   StudioModelRenderer.obj
 0001:00022b70       ?StudioProcessGait@CStudioModelRenderer@@UAEXPAUentity_state_s@@@Z 10023b70 f   StudioModelRenderer.obj
 0001:00022ef0       ??0entity_state_s@@QAE@ABU0@@Z 10023ef0 f i StudioModelRenderer.obj
 0001:00023250       ?StudioCalcAttachments@CStudioModelRenderer@@UAEXXZ 10024250 f   StudioModelRenderer.obj
 0001:000232f0       ?StudioRenderModel@CStudioModelRenderer@@UAEXXZ 100242f0 f   StudioModelRenderer.obj
 0001:00023390       ?StudioRenderFinal_Software@CStudioModelRenderer@@UAEXXZ 10024390 f   StudioModelRenderer.obj
 0001:00023470       ?StudioRenderFinal_Hardware@CStudioModelRenderer@@UAEXXZ 10024470 f   StudioModelRenderer.obj
 0001:000235c0       ?StudioRenderFinal@CStudioModelRenderer@@UAEXXZ 100245c0 f   StudioModelRenderer.obj
 0001:000235e0       ?StudioDrawModel@CStudioModelRenderer@@UAEHH@Z 100245e0 f   StudioModelRenderer.obj
 0001:00023f30       ??0cl_entity_s@@QAE@ABU0@@Z 10024f30 f i StudioModelRenderer.obj
 0001:00024350       ?StudioDrawPlayer@CStudioModelRenderer@@UAEHHPAUentity_state_s@@@Z 10025350 f   StudioModelRenderer.obj
 0001:00024c40       ?LocaliseTextString@CHudTextMessage@@SAPADPBDPADH@Z 10025c40 f   text_message.obj
 0001:00024d20       ?BufferedLocaliseTextString@CHudTextMessage@@SAPADPBD@Z 10025d20 f   text_message.obj
 0001:00024d40       ?LookupString@CHudTextMessage@@QAEPADPBDPAH@Z 10025d40 f   text_message.obj
 0001:00024da0       ?StripEndNewlineFromString@@YAXPAD@Z 10025da0 f   text_message.obj
 0001:00024dd0       ?ConvertCRtoNL@@YAPADPAD@Z 10025dd0 f   text_message.obj
 0001:00024df0       ?MsgFunc_TextMsg@CHudTextMessage@@QAEHPBDHPAX@Z 10025df0 f   text_message.obj
 0001:00025020       ?__MsgFunc_TextMsg@@YAHPBDHPAX@Z 10026020 f   text_message.obj
 0001:00025040       ?Init@CHudTextMessage@@UAEHXZ 10026040 f   text_message.obj
 0001:00025080       ?VidInit@CHudTrain@@UAEHXZ 10026080 f   train.obj
 0001:00025090       ?Draw@CHudTrain@@UAEHM@Z   10026090 f   train.obj
 0001:00025180       ?MsgFunc_Train@CHudTrain@@QAEHPBDHPAX@Z 10026180 f   train.obj
 0001:000251c0       ?__MsgFunc_Train@@YAHPBDHPAX@Z 100261c0 f   train.obj
 0001:000251e0       ?Init@CHudTrain@@UAEHXZ    100261e0 f   train.obj
 0001:00025210       ?RenderFog@@YAXM@Z         10026210 f   tri.obj
 0001:00025360       _HUD_DrawNormalTriangles   10026360 f   tri.obj
 0001:00025370       ?updateClientCVarRefs@@YAXXZ 10026370 f   util.obj
 0001:000256f0       ?VectorAngles@@YAXPBMPAM@Z 100266f0 f   util.obj
 0001:00025800       ?VectorNormalize@@YAMPAM@Z 10026800 f   util.obj
 0001:00025870       ?VectorInverse@@YAXPAM@Z   10026870 f   util.obj
 0001:00025890       _VectorMA                  10026890 f   pm_math.obj
 0001:00025890       ?VectorMA@@YAXPBMM0PAM@Z   10026890 f   util.obj
 0001:000258d0       ?LoadSprite@@YAHPBD@Z      100268d0 f   util.obj
 0001:00025930       ?SetCrosshairFiltered@@YAXHUrect_s@@HHHH@Z 10026930 f   util.obj
 0001:000259f0       ?generateColor@@YAXPAH@Z   100269f0 f   util.obj
 0001:00025b10       ?generateColorDec@@YAXPAM@Z 10026b10 f   util.obj
 0001:00025c20       ?randomAbsoluteValue@@YAMABM0@Z 10026c20 f i util.obj
 0001:00025cb0       ?randomValue@@YAMABM0@Z    10026cb0 f i util.obj
 0001:00025ce0       ?getTimePeriodAndBackSmooth@@YAMABM0000@Z 10026ce0 f i util.obj
 0001:00025da0       ?drawStringFabulous@@YAXHHPBD@Z 10026da0 f   util.obj
 0001:00025e30       ?drawStringFabulousVert@@YAXHHPBD@Z 10026e30 f   util.obj
 0001:00025ec0       ?drawString@@YAXHHPBDABM11@Z 10026ec0 f   util.obj
 0001:00025f00       ?drawCrazyShit@@YAXM@Z     10026f00 f   util.obj
 0001:000268b0       ?createSendString@@YAXPADPBDH@Z 100278b0 f   util.obj
 0001:000268d0       ?sendAutoFOV@@YAXXZ        100278d0 f   util.obj
 0001:00026920       ?resetModCVarsClientOnly@@YAXXZ 10027920 f   util.obj
 0001:00026f80       ?SetCrosshairFiltered@@YAXHUrect_s@@HHH@Z 10027f80 f   util.obj
 0001:00026fc0       ?actionPerformed@CMenuHandler_StringCommand@@UAEXPAVPanel@vgui@@@Z 10027fc0 f i vgui_ClassMenu.obj
 0001:00026ff0       ?actionPerformed@CMenuHandler_TextWindow@@UAEXPAVPanel@vgui@@@Z 10027ff0 f i vgui_ClassMenu.obj
 0001:00027020       ?paintBackground@CTransparentPanel@@UAEXXZ 10028020 f i vgui_ClassMenu.obj
 0001:00027060       ?Reset@CMenuPanel@@UAEXXZ  10028060 f i vgui_ClassMenu.obj
 0001:00027080       ?Open@CMenuPanel@@UAEXXZ   10028080 f i vgui_ClassMenu.obj
 0001:000270a0       ?Update@CClassMenuPanel@@UAEXXZ 100280a0 f   vgui_ClassMenu.obj
 0001:00027470       ?SlotInput@CClassMenuPanel@@UAE_NH@Z 10028470 f   vgui_ClassMenu.obj
 0001:00027500       ?Initialize@CClassMenuPanel@@UAEXXZ 10028500 f   vgui_ClassMenu.obj
 0001:00027530       ?SetActiveInfo@CClassMenuPanel@@UAEXH@Z 10028530 f   vgui_ClassMenu.obj
 0001:000275d0       ?Close@CMenuPanel@@UAEXXZ  100285d0 f i vgui_ClassMenu.obj
 0001:00027600       ?SlotInput@CMenuPanel@@UAE_NH@Z 10028600 f i vgui_ClassMenu.obj
 0001:00027610       ??0CClassMenuPanel@@QAE@HHHHHH@Z 10028610 f   vgui_ClassMenu.obj
 0001:00028490       ?Reset@CClassMenuPanel@@UAEXXZ 10029490 f i vgui_ClassMenu.obj
 0001:000284b0       ??0TextEntry@vgui@@QAE@ABV01@@Z 100294b0 f i vgui_ConsolePanel.obj
 0001:00028590       ??4TextEntry@vgui@@QAEAAV01@ABV01@@Z 10029590 f i vgui_ConsolePanel.obj
 0001:00028650       ??0EtchedBorder@vgui@@QAE@ABV01@@Z 10029650 f i vgui_ConsolePanel.obj
 0001:000286c0       ??0LoweredBorder@vgui@@QAE@ABV01@@Z 100296c0 f i vgui_ConsolePanel.obj
 0001:00028730       ??4LoweredBorder@vgui@@QAEAAV01@ABV01@@Z 10029730 f i vgui_ConsolePanel.obj
 0001:00028730       ??4EtchedBorder@vgui@@QAEAAV01@ABV01@@Z 10029730 f i vgui_ConsolePanel.obj
 0001:00028750       ??0DataInputStream@vgui@@QAE@ABV01@@Z 10029750 f i vgui_ControlConfigPanel.obj
 0001:000287a0       ??4DataInputStream@vgui@@QAEAAV01@ABV01@@Z 100297a0 f i vgui_ControlConfigPanel.obj
 0001:000287c0       ?close@DataInputStream@vgui@@$4PPPPPPPM@A@AEXAA_N@Z 100297c0 f i vgui_ControlConfigPanel.obj
 0001:000287d0       ?seekEnd@DataInputStream@vgui@@$4PPPPPPPM@A@AEXAA_N@Z 100297d0 f i vgui_ControlConfigPanel.obj
 0001:000287e0       ?seekRelative@DataInputStream@vgui@@$4PPPPPPPM@A@AEXHAA_N@Z 100297e0 f i vgui_ControlConfigPanel.obj
 0001:000287f0       ?readUChar@DataInputStream@vgui@@$4PPPPPPPM@A@AEEAA_N@Z 100297f0 f i vgui_ControlConfigPanel.obj
 0001:00028800       ?readUChar@DataInputStream@vgui@@$4PPPPPPPM@A@AEXPAEHAA_N@Z 10029800 f i vgui_ControlConfigPanel.obj
 0001:00028810       ?getAvailable@DataInputStream@vgui@@$4PPPPPPPM@A@AEHAA_N@Z 10029810 f i vgui_ControlConfigPanel.obj
 0001:00028820       ?seekStart@DataInputStream@vgui@@$4PPPPPPPM@A@AEXAA_N@Z 10029820 f i vgui_ControlConfigPanel.obj
 0001:00028830       ?GetTGANameForRes@@YAPADPBD@Z 10029830 f   vgui_CustomObjects.obj
 0001:000288a0       ?LoadTGAForRes@@YAPAVBitmapTGA@vgui@@PBD@Z 100298a0 f   vgui_CustomObjects.obj
 0001:000288f0       ?Init@CommandButton@@QAEXXZ 100298f0 f   vgui_CustomObjects.obj
 0001:00028970       ?RecalculateText@CommandButton@@AAEXXZ 10029970 f   vgui_CustomObjects.obj
 0001:00028a10       ?setText@CommandButton@@UAEXPBD@Z 10029a10 f   vgui_CustomObjects.obj
 0001:00028a40       ?setBoundKey@CommandButton@@QAEXD@Z 10029a40 f   vgui_CustomObjects.obj
 0001:00028a60       ?getBoundKey@CommandButton@@QAEDXZ 10029a60 f   vgui_CustomObjects.obj
 0001:00028a70       ?AddSubMenu@CommandButton@@QAEXPAVCCommandMenu@@@Z 10029a70 f   vgui_CustomObjects.obj
 0001:00028a90       ?UpdateSubMenus@CommandButton@@QAEXH@Z 10029a90 f   vgui_CustomObjects.obj
 0001:00028ab0       ?paint@CommandButton@@UAEXXZ 10029ab0 f   vgui_CustomObjects.obj
 0001:00028b20       ?paintBackground@CommandButton@@UAEXXZ 10029b20 f   vgui_CustomObjects.obj
 0001:00028ba0       ?getParentMenu@CommandButton@@QAEPAVCCommandMenu@@XZ 10029ba0 f   vgui_CustomObjects.obj
 0001:00028bb0       ?setParentMenu@CommandButton@@QAEXPAVCCommandMenu@@@Z 10029bb0 f   vgui_CustomObjects.obj
 0001:00028bc0       ?IsNotValid@ClassButton@@UAEHXZ 10029bc0 f   vgui_CustomObjects.obj
 0001:00028c60       ??0CImageLabel@@QAE@PBDHH@Z 10029c60 f   vgui_CustomObjects.obj
 0001:00028cb0       ??0CImageLabel@@QAE@PBDHHHH@Z 10029cb0 f   vgui_CustomObjects.obj
 0001:00028d10       ?getImageWide@CImageLabel@@UAEHXZ 10029d10 f   vgui_CustomObjects.obj
 0001:00028d50       ?getImageTall@CImageLabel@@UAEHXZ 10029d50 f   vgui_CustomObjects.obj
 0001:00028d90       ?LoadImageA@CImageLabel@@QAEXPBD@Z 10029d90 f   vgui_CustomObjects.obj
 0001:00028f10       ?paintBackground@CCommandMenu@@UAEXXZ 10029f10 f   vgui_CustomObjects.obj
 0001:00028f60       ?paint@CTFScrollButton@@UAEXXZ 10029f60 f   vgui_CustomObjects.obj
 0001:00028fd0       ?paintBackground@CTFSlider@@UAEXXZ 10029fd0 f   vgui_CustomObjects.obj
 0001:000290e0       ?cursorEntered@CHandler_MenuButtonOver@@UAEXPAVPanel@vgui@@@Z 1002a0e0 f   vgui_CustomObjects.obj
 0001:00029110       ?actionPerformed@CMenuHandler_StringCommandClassSelect@@UAEXPAVPanel@vgui@@@Z 1002a110 f   vgui_CustomObjects.obj
 0001:00029170       ??0CommandButton@@QAE@PBDHHHH_N@Z 1002a170 f   vgui_CustomObjects.obj
 0001:000291d0       ??0CommandButton@@QAE@HPBDHHHH_N@Z 1002a1d0 f   vgui_CustomObjects.obj
 0001:00029230       ??0CommandButton@@QAE@PBDHHHH_N1@Z 1002a230 f   vgui_CustomObjects.obj
 0001:00029290       ?cursorEntered@CommandButton@@QAEXXZ 1002a290 f   vgui_CustomObjects.obj
 0001:000292d0       ?cursorExited@CommandButton@@QAEXXZ 1002a2d0 f   vgui_CustomObjects.obj
 0001:000292f0       ??0CTFScrollButton@@QAE@HPBDHHHH@Z 1002a2f0 f   vgui_CustomObjects.obj
 0001:00029380       ??0CTFScrollPanel@@QAE@HHHH@Z 1002a380 f   vgui_CustomObjects.obj
 0001:00029610       ?cursorEntered@CHandler_CommandButtonHighlight@@UAEXPAVPanel@vgui@@@Z 1002a610 f i vgui_CustomObjects.obj
 0001:00029620       ?cursorExited@CHandler_CommandButtonHighlight@@UAEXPAVPanel@vgui@@@Z 1002a620 f i vgui_CustomObjects.obj
 0001:00029630       ??0CGridEntry@CGrid@vgui@@QAE@XZ 1002a630 f   vgui_grid.obj
 0001:00029640       ?GetRowHeight@CGrid@vgui@@QAEHH@Z 1002a640 f   vgui_grid.obj
 0001:00029670       ?GetEntryBox@CGrid@vgui@@QAE_NHHAAH000@Z 1002a670 f   vgui_grid.obj
 0001:000296e0       ?CalcDrawHeight@CGrid@vgui@@QAEHXZ 1002a6e0 f   vgui_grid.obj
 0001:00029720       ?paintBackground@CGrid@vgui@@UAEXXZ 1002a720 f   vgui_grid.obj
 0001:00029730       ?Clear@CGrid@vgui@@IAEXXZ  1002a730 f   vgui_grid.obj
 0001:00029760       ?GridEntry@CGrid@vgui@@IAEPAVCGridEntry@12@HH@Z 1002a760 f   vgui_grid.obj
 0001:000297b0       ?CalcColOffsets@CGrid@vgui@@IAEXH@Z 1002a7b0 f   vgui_grid.obj
 0001:00029810       ?CalcRowOffsets@CGrid@vgui@@IAEXH@Z 1002a810 f   vgui_grid.obj
 0001:00029870       ?getCellAtPoint@CGrid@vgui@@QAE_NHHAAH0@Z 1002a870 f   vgui_grid.obj
 0001:00029900       ??0CGrid@vgui@@QAE@XZ      1002a900 f   vgui_grid.obj
 0001:00029920       ?Term@CGrid@vgui@@QAEXXZ   1002a920 f   vgui_grid.obj
 0001:00029970       ?SetEntry@CGrid@vgui@@QAE_NHHPAVPanel@2@@Z 1002a970 f   vgui_grid.obj
 0001:000299d0       ?SetSpacing@CGrid@vgui@@QAEXHH@Z 1002a9d0 f   vgui_grid.obj
 0001:00029a20       ?SetColumnWidth@CGrid@vgui@@QAE_NHH@Z 1002aa20 f   vgui_grid.obj
 0001:00029a60       ?SetRowHeight@CGrid@vgui@@QAE_NHH@Z 1002aa60 f   vgui_grid.obj
 0001:00029aa0       ?CalcFitRowHeight@CGrid@vgui@@QAEHH@Z 1002aaa0 f   vgui_grid.obj
 0001:00029b10       ?AutoSetRowHeights@CGrid@vgui@@QAEXXZ 1002ab10 f   vgui_grid.obj
 0001:00029b40       ?CopyColumnWidths@CGrid@vgui@@QAE_NPAV12@@Z 1002ab40 f   vgui_grid.obj
 0001:00029ba0       ?RepositionContents@CGrid@vgui@@QAEXXZ 1002aba0 f   vgui_grid.obj
 0001:00029c30       ?paint@CGrid@vgui@@UAEXXZ  1002ac30 f   vgui_grid.obj
 0001:00029cf0       ?SetRowUnderline@CGrid@vgui@@QAEXH_NHHHHH@Z 1002acf0 f   vgui_grid.obj
 0001:00029d40       ??1CGrid@vgui@@UAE@XZ      1002ad40 f   vgui_grid.obj
 0001:00029d50       ?SetDimensions@CGrid@vgui@@QAE_NHH@Z 1002ad50 f   vgui_grid.obj
 0001:00029ea0       ??_ECGrid@vgui@@UAEPAXI@Z  1002aea0 f i vgui_grid.obj
 0001:00029ea0       ??_GCGrid@vgui@@UAEPAXI@Z  1002aea0 f i vgui_grid.obj
 0001:00029ed0       ??0Layout@vgui@@QAE@ABV01@@Z 1002aed0 f i vgui_int.obj
 0001:00029ee0       ??0BorderLayout@vgui@@QAE@ABV01@@Z 1002aee0 f i vgui_int.obj
 0001:00029f00       ??0SurfaceBase@vgui@@QAE@ABV01@@Z 1002af00 f i vgui_int.obj
 0001:00029f50       ??4SurfaceBase@vgui@@QAEAAV01@ABV01@@Z 1002af50 f i vgui_int.obj
 0001:00029f90       _VGui_ViewportPaintBackground 1002af90 f   vgui_int.obj
 0001:00029fa0       ?VGui_GetPanel@@YAPAXXZ    1002afa0 f   vgui_int.obj
 0001:00029fb0       _VGui_Startup              1002afb0 f   vgui_int.obj
 0001:0002a070       ?intChanged@ListBoxSignal@CListBox@vgui@@UAEXHPAVPanel@3@@Z 1002b070 f i vgui_listbox.obj
 0001:0002a090       ?Term@CListBox@vgui@@QAEXXZ 1002b090 f   vgui_listbox.obj
 0001:0002a100       ?GetNumItems@CListBox@vgui@@QAEHXZ 1002b100 f   vgui_listbox.obj
 0001:0002a120       ?GetScrollMax@CListBox@vgui@@QAEHXZ 1002b120 f   vgui_listbox.obj
 0001:0002a140       ??0CListBox@vgui@@QAE@XZ   1002b140 f   vgui_listbox.obj
 0001:0002a280       ??1CListBox@vgui@@QAE@XZ   1002b280 f   vgui_listbox.obj
 0001:0002a290       ?InternalLayout@CListBox@vgui@@IAEXXZ 1002b290 f   vgui_listbox.obj
 0001:0002a3b0       ?SetScrollRange@CListBox@vgui@@QAEXH@Z 1002b3b0 f   vgui_listbox.obj
 0001:0002a3f0       ?AddItem@CListBox@vgui@@QAEXPAVPanel@2@@Z 1002b3f0 f   vgui_listbox.obj
 0001:0002a4a0       ?setPos@CListBox@vgui@@UAEXHH@Z 1002b4a0 f   vgui_listbox.obj
 0001:0002a4d0       ?setSize@CListBox@vgui@@UAEXHH@Z 1002b4d0 f   vgui_listbox.obj
 0001:0002a500       ?setPixelScroll@CListBox@vgui@@UAEXH@Z 1002b500 f   vgui_listbox.obj
 0001:0002a530       ?seekStart@MemoryInputStream@@UAEXAA_N@Z 1002b530 f i vgui_loadtga.obj
 0001:0002a550       ?seekRelative@MemoryInputStream@@UAEXHAA_N@Z 1002b550 f i vgui_loadtga.obj
 0001:0002a570       ?seekEnd@MemoryInputStream@@UAEXAA_N@Z 1002b570 f i vgui_loadtga.obj
 0001:0002a590       ?getAvailable@MemoryInputStream@@UAEHAA_N@Z 1002b590 f i vgui_loadtga.obj
 0001:0002a5a0       ?readUChar@MemoryInputStream@@UAEEAA_N@Z 1002b5a0 f i vgui_loadtga.obj
 0001:0002a5e0       ?readUChar@MemoryInputStream@@UAEXPAEHAA_N@Z 1002b5e0 f i vgui_loadtga.obj
 0001:0002a610       ?close@MemoryInputStream@@UAEXAA_N@Z 1002b610 f i vgui_loadtga.obj
 0001:0002a620       ?vgui_LoadTGA@@YAPAVBitmapTGA@vgui@@PBD@Z 1002b620 f   vgui_loadtga.obj
 0001:0002a6d0       ?vgui_LoadTGANoInvertAlpha@@YAPAVBitmapTGA@vgui@@PBD@Z 1002b6d0 f   vgui_loadtga.obj
 0001:0002a780       ??0StackLayout@vgui@@QAE@ABV01@@Z 1002b780 f i vgui_MOTDWindow.obj
 0001:0002a7a0       ??4StackLayout@vgui@@QAEAAV01@ABV01@@Z 1002b7a0 f i vgui_MOTDWindow.obj
 0001:0002a7c0       ??0CMessageWindowPanel@@QAE@PBD0HHHHHH@Z 1002b7c0 f   vgui_MOTDWindow.obj
 0001:0002aea0       ?CMessageWindowPanel_Create@@YAPAVCMenuPanel@@PBD0HHHHHH@Z 1002bea0 f   vgui_MOTDWindow.obj
 0001:0002af30       ?Scheme_Init@@YAXXZ        1002bf30 f   vgui_SchemeManager.obj
 0001:0002af50       ??0CScheme@CSchemeManager@@QAE@XZ 1002bf50 f   vgui_SchemeManager.obj
 0001:0002af70       ??1CScheme@CSchemeManager@@QAE@XZ 1002bf70 f   vgui_SchemeManager.obj
 0001:0002b0b0       ??1CSchemeManager@@UAE@XZ  1002c0b0 f   vgui_SchemeManager.obj
 0001:0002b0f0       ?getSchemeHandle@CSchemeManager@@QAEHPBD@Z 1002c0f0 f   vgui_SchemeManager.obj
 0001:0002b140       ?getSafeScheme@CSchemeManager@@AAEPAVCScheme@1@H@Z 1002c140 f   vgui_SchemeManager.obj
 0001:0002b160       ?getFont@CSchemeManager@@QAEPAVFont@vgui@@H@Z 1002c160 f   vgui_SchemeManager.obj
 0001:0002b180       ?getFgColor@CSchemeManager@@QAEXHAAH000@Z 1002c180 f   vgui_SchemeManager.obj
 0001:0002b1c0       ?getBgColor@CSchemeManager@@QAEXHAAH000@Z 1002c1c0 f   vgui_SchemeManager.obj
 0001:0002b200       ?getFgArmedColor@CSchemeManager@@QAEXHAAH000@Z 1002c200 f   vgui_SchemeManager.obj
 0001:0002b240       ?getBgArmedColor@CSchemeManager@@QAEXHAAH000@Z 1002c240 f   vgui_SchemeManager.obj
 0001:0002b280       ?getBorderColor@CSchemeManager@@QAEXHAAH000@Z 1002c280 f   vgui_SchemeManager.obj
 0001:0002b2c0       ??0CSchemeManager@@QAE@HH@Z 1002c2c0 f   vgui_SchemeManager.obj
 0001:0002bb00       ??_GCSchemeManager@@UAEPAXI@Z 1002cb00 f i vgui_SchemeManager.obj
 0001:0002bb00       ??_ECSchemeManager@@UAEPAXI@Z 1002cb00 f i vgui_SchemeManager.obj
 0001:0002bb30       ?actionPerformed@CMenuHandler_StringCommandWatch@@UAEXPAVPanel@vgui@@@Z 1002cb30 f i vgui_ScorePanel.obj
 0001:0002bc60       ??0CTextImage2@@QAE@XZ     1002cc60 f i vgui_ScorePanel.obj
 0001:0002bd00       ?getSize@CTextImage2@@UAEXAAH0@Z 1002cd00 f i vgui_ScorePanel.obj
 0001:0002bd60       ?doPaint@CTextImage2@@UAEXPAVPanel@vgui@@@Z 1002cd60 f i vgui_ScorePanel.obj
 0001:0002bd90       ?setPos@CTextImage2@@UAEXHH@Z 1002cd90 f i vgui_ScorePanel.obj
 0001:0002be00       ?setColor@CTextImage2@@UAEXVColor@vgui@@@Z 1002ce00 f i vgui_ScorePanel.obj
 0001:0002be30       ??0CLabelHeader@@QAE@XZ    1002ce30 f i vgui_ScorePanel.obj
 0001:0002bf10       ?setText@CLabelHeader@@UAEXHPBD@Z 1002cf10 f i vgui_ScorePanel.obj
 0001:0002bfb0       ?setText@CLabelHeader@@UAEXPBD@Z 1002cfb0 f i vgui_ScorePanel.obj
 0001:0002c040       ?getTextSize@CLabelHeader@@UAEXAAH0@Z 1002d040 f i vgui_ScorePanel.obj
 0001:0002c060       ?setFgColor@CLabelHeader@@UAEXHHHH@Z 1002d060 f i vgui_ScorePanel.obj
 0001:0002c110       ?setFgColor@CLabelHeader@@UAEXW4SchemeColor@Scheme@vgui@@@Z 1002d110 f i vgui_ScorePanel.obj
 0001:0002c160       ?setFont@CLabelHeader@@UAEXPAVFont@vgui@@@Z 1002d160 f i vgui_ScorePanel.obj
 0001:0002c180       ?Initialize@ScorePanel@@QAEXXZ 1002d180 f   vgui_ScorePanel.obj
 0001:0002c1c0       ?HACK_GetPlayerUniqueID@@YA_NHQAD@Z 1002d1c0 f   vgui_ScorePanel.obj
 0001:0002c1e0       ?SortPlayers@ScorePanel@@QAEXHPAD@Z 1002d1e0 f   vgui_ScorePanel.obj
 0001:0002c300       ?FillGrid@ScorePanel@@QAEXXZ 1002d300 f   vgui_ScorePanel.obj
 0001:0002cc60       ?DeathMsg@ScorePanel@@QAEXHH@Z 1002dc60 f   vgui_ScorePanel.obj
 0001:0002ccc0       ?mousePressed@ScorePanel@@UAEXW4MouseCode@vgui@@PAVPanel@3@@Z 1002dcc0 f   vgui_ScorePanel.obj
 0001:0002ce90       ?MouseOverCell@ScorePanel@@QAEXHH@Z 1002de90 f   vgui_ScorePanel.obj
 0001:0002cf20       ?paintBackground@CLabelHeader@@UAEXXZ 1002df20 f   vgui_ScorePanel.obj
 0001:0002cfc0       ?calcAlignment@CLabelHeader@@QAEXHHAAH0@Z 1002dfc0 f   vgui_ScorePanel.obj
 0001:0002d0b0       ??1CLabelHeader@@QAE@XZ    1002e0b0 f i vgui_ScorePanel.obj
 0001:0002d0f0       ?internalMousePressed@HitTestPanel@ScorePanel@@UAEXW4MouseCode@vgui@@@Z 1002e0f0 f   vgui_ScorePanel.obj
 0001:0002d130       ??0ScorePanel@@QAE@HHHH@Z  1002e130 f   vgui_ScorePanel.obj
 0001:0002da00       ?SortTeams@ScorePanel@@QAEXXZ 1002ea00 f   vgui_ScorePanel.obj
 0001:0002dc40       ?cursorMoved@ScorePanel@@UAEXHHPAVPanel@vgui@@@Z 1002ec40 f   vgui_ScorePanel.obj
 0001:0002dcc0       ?paint@CLabelHeader@@UAEXXZ 1002ecc0 f   vgui_ScorePanel.obj
 0001:0002dea0       ?Update@ScorePanel@@QAEXXZ 1002eea0 f   vgui_ScorePanel.obj
 0001:0002dfa0       ?RebuildTeams@ScorePanel@@QAEXXZ 1002efa0 f   vgui_ScorePanel.obj
 0001:0002e120       ?Open@ScorePanel@@QAEXXZ   1002f120 f   vgui_ScorePanel.obj
 0001:0002e150       ?DoConnect@ServerBrowserTablePanel@?A0x5998a8a3@@QAEXXZ 1002f150 f i vgui_ServerBrowser.obj
 0001:0002e1d0       ?getRowCount@ServerBrowserTablePanel@?A0x5998a8a3@@UAEHXZ 1002f1d0 f i vgui_ServerBrowser.obj
 0001:0002e240       ?getCellTall@ServerBrowserTablePanel@?A0x5998a8a3@@UAEHH@Z 1002f240 f i vgui_ServerBrowser.obj
 0001:0002e270       ?getCellRenderer@ServerBrowserTablePanel@?A0x5998a8a3@@UAEPAVPanel@vgui@@HH_N00@Z 1002f270 f i vgui_ServerBrowser.obj
 0001:0002e480       ?actionPerformed@ConnectHandler@?A0x5998a8a3@@UAEXPAVPanel@vgui@@@Z 1002f480 f i vgui_ServerBrowser.obj
 0001:0002e500       ?actionPerformed@RefreshHandler@?A0x5998a8a3@@UAEXPAVPanel@vgui@@@Z 1002f500 f i vgui_ServerBrowser.obj
 0001:0002e510       ?actionPerformed@StopHandler@?A0x5998a8a3@@UAEXPAVPanel@vgui@@@Z 1002f510 f i vgui_ServerBrowser.obj
 0001:0002e520       ?actionPerformed@CancelHandler@?A0x5998a8a3@@UAEXPAVPanel@vgui@@@Z 1002f520 f i vgui_ServerBrowser.obj
 0001:0002e530       ?mouseDoublePressed@LabelSortInputHandler@@UAEXW4MouseCode@vgui@@PAVPanel@3@@Z 1002f530 f i vgui_ServerBrowser.obj
 0001:0002e530       ?mousePressed@LabelSortInputHandler@@UAEXW4MouseCode@vgui@@PAVPanel@3@@Z 1002f530 f i vgui_ServerBrowser.obj
 0001:0002e540       ??0CSBLabel@@QAE@PAD0@Z    1002f540 f i vgui_ServerBrowser.obj
 0001:0002e5c0       ??0ServerBrowser@@QAE@HHHH@Z 1002f5c0 f   vgui_ServerBrowser.obj
 0001:0002eca0       ?setSize@ServerBrowser@@UAEXHH@Z 1002fca0 f   vgui_ServerBrowser.obj
 0001:0002ee20       ?mousePressed@CBrowser_InputSignal@?A0x5998a8a3@@UAEXW4MouseCode@vgui@@PAVPanel@4@@Z 1002fe20 f   vgui_ServerBrowser.obj
 0001:0002eea0       ?mouseDoublePressed@CBrowser_InputSignal@?A0x5998a8a3@@UAEXW4MouseCode@vgui@@PAVPanel@4@@Z 1002fea0 f   vgui_ServerBrowser.obj
 0001:0002ef20       ?paintBackground@ColorButton@@UAEXXZ 1002ff20 f i vgui_SpectatorPanel.obj
 0001:0002f030       ?paint@ColorButton@@UAEXXZ 10030030 f i vgui_SpectatorPanel.obj
 0001:0002f0d0       ??0SpectatorPanel@@QAE@HHHH@Z 100300d0 f   vgui_SpectatorPanel.obj
 0001:0002f100       ??1SpectatorPanel@@UAE@XZ  10030100 f   vgui_SpectatorPanel.obj
 0001:0002f110       ?Initialize@SpectatorPanel@@QAEXXZ 10030110 f   vgui_SpectatorPanel.obj
 0001:000303c0       ?ShowMenu@SpectatorPanel@@QAEX_N@Z 100313c0 f   vgui_SpectatorPanel.obj
 0001:000305a0       ?GetSpectatorLabel@@YAPBDH@Z 100315a0 f   vgui_SpectatorPanel.obj
 0001:00030600       ?Update@SpectatorPanel@@QAEXXZ 10031600 f   vgui_SpectatorPanel.obj
 0001:00030980       ??_ESpectatorPanel@@UAEPAXI@Z 10031980 f i vgui_SpectatorPanel.obj
 0001:00030980       ??_GSpectatorPanel@@UAEPAXI@Z 10031980 f i vgui_SpectatorPanel.obj
 0001:000309b0       ?ActionSignal@SpectatorPanel@@QAEXH@Z 100319b0 f   vgui_SpectatorPanel.obj
 0001:00030a70       ?EnableInsetView@SpectatorPanel@@QAEX_N@Z 10031a70 f   vgui_SpectatorPanel.obj
 0001:00030c90       ?actionPerformed@CSpectatorHandler_Command@@UAEXPAVPanel@vgui@@@Z 10031c90 f i vgui_SpectatorPanel.obj
 0001:00030ca0       ??1Surface@vgui@@QAE@XZ    10031ca0 f i vgui_TeamFortressViewport.obj
 0001:00030cb0       ??0Surface@vgui@@QAE@ABV01@@Z 10031cb0 f i vgui_TeamFortressViewport.obj
 0001:00030d20       ??4Surface@vgui@@QAEAAV01@ABV01@@Z 10031d20 f i vgui_TeamFortressViewport.obj
 0001:00030d90       ??0MenuSeparator@vgui@@QAE@ABV01@@Z 10031d90 f i vgui_TeamFortressViewport.obj
 0001:00030db0       ??4MenuSeparator@vgui@@QAEAAV01@ABV01@@Z 10031db0 f i vgui_TeamFortressViewport.obj
 0001:00030dd0       ??0BuildGroup@vgui@@QAE@ABV01@@Z 10031dd0 f i vgui_TeamFortressViewport.obj
 0001:00030e80       ??4BuildGroup@vgui@@QAEAAV01@ABV01@@Z 10031e80 f i vgui_TeamFortressViewport.obj
 0001:00030f20       ?paintBackground@TeamOnlyCommandButton@@UAEXXZ 10031f20 f i vgui_TeamFortressViewport.obj
 0001:00030f20       ?paintBackground@SpectToggleButton@@UAEXXZ 10031f20 f i vgui_TeamFortressViewport.obj
 0001:00030f20       ?paintBackground@SpectButton@@UAEXXZ 10031f20 f i vgui_TeamFortressViewport.obj
 0001:00030f70       ?paint@TeamOnlyCommandButton@@UAEXXZ 10031f70 f i vgui_TeamFortressViewport.obj
 0001:00030f70       ?paint@SpectButton@@UAEXXZ 10031f70 f i vgui_TeamFortressViewport.obj
 0001:00030fc0       ??0CMenuHandler_StringCommand@@QAE@PAD@Z 10031fc0 f i vgui_TeamFortressViewport.obj
 0001:00031000       ?IsNotValid@TeamButton@@UAEHXZ 10032000 f i vgui_TeamFortressViewport.obj
 0001:00031030       ??0FeignButton@@QAE@HPBDHHHH@Z 10032030 f i vgui_TeamFortressViewport.obj
 0001:00031070       ?IsNotValid@FeignButton@@UAEHXZ 10032070 f i vgui_TeamFortressViewport.obj
 0001:000310a0       ?IsNotValid@SpectateButton@@UAEHXZ 100320a0 f i vgui_TeamFortressViewport.obj
 0001:000310c0       ??0DisguiseButton@@QAE@HPBDHHHH@Z 100320c0 f i vgui_TeamFortressViewport.obj
 0001:00031100       ?IsNotValid@DisguiseButton@@UAEHXZ 10032100 f i vgui_TeamFortressViewport.obj
 0001:00031140       ??0DetpackButton@@QAE@HPBDHHHH@Z 10032140 f i vgui_TeamFortressViewport.obj
 0001:00031180       ?IsNotValid@DetpackButton@@UAEHXZ 10032180 f i vgui_TeamFortressViewport.obj
 0001:000311b0       ??0BuildButton@@QAE@HHPBDHHHH@Z 100321b0 f i vgui_TeamFortressViewport.obj
 0001:00031200       ?IsNotValid@BuildButton@@UAEHXZ 10032200 f i vgui_TeamFortressViewport.obj
 0001:00031290       ?IsNotValid@MapButton@@UAEHXZ 10032290 f i vgui_TeamFortressViewport.obj
 0001:000312f0       ?IsNotValid@TeamOnlyCommandButton@@UAEHXZ 100322f0 f i vgui_TeamFortressViewport.obj
 0001:00031310       ??0ToggleCommandButton@@QAE@PBD0HHHH_N@Z 10032310 f i vgui_TeamFortressViewport.obj
 0001:000314c0       ?cursorExited@SpectToggleButton@@UAEXPAVPanel@vgui@@@Z 100324c0 f i vgui_TeamFortressViewport.obj
 0001:000314c0       ?cursorExited@ToggleCommandButton@@UAEXPAVPanel@vgui@@@Z 100324c0 f i vgui_TeamFortressViewport.obj
 0001:000314d0       ?paint@ToggleCommandButton@@UAEXXZ 100324d0 f i vgui_TeamFortressViewport.obj
 0001:00031530       ??0SpectToggleButton@@QAE@PBD0HHHH_N@Z 10032530 f i vgui_TeamFortressViewport.obj
 0001:00031640       ?cursorEntered@SpectToggleButton@@UAEXPAVPanel@vgui@@@Z 10032640 f i vgui_TeamFortressViewport.obj
 0001:00031640       ?cursorEntered@ToggleCommandButton@@UAEXPAVPanel@vgui@@@Z 10032640 f i vgui_TeamFortressViewport.obj
 0001:00031650       ?mousePressed@ToggleCommandButton@@UAEXW4MouseCode@vgui@@PAVPanel@3@@Z 10032650 f i vgui_TeamFortressViewport.obj
 0001:00031650       ?mousePressed@SpectToggleButton@@UAEXW4MouseCode@vgui@@PAVPanel@3@@Z 10032650 f i vgui_TeamFortressViewport.obj
 0001:00031670       ?paint@SpectToggleButton@@UAEXXZ 10032670 f i vgui_TeamFortressViewport.obj
 0001:000316e0       ?SetNextMenu@CMenuPanel@@QAEXPAV1@@Z 100326e0 f i vgui_TeamFortressViewport.obj
 0001:00031730       ?AddButton@CCommandMenu@@QAEXPAVCommandButton@@@Z 10032730 f   vgui_TeamFortressViewport.obj
 0001:000317a0       ?ClearButtonsOfArmedState@CCommandMenu@@QAEXXZ 100327a0 f   vgui_TeamFortressViewport.obj
 0001:000317f0       ?FindButtonWithSubmenu@CCommandMenu@@QAEPAVCommandButton@@PAV1@@Z 100327f0 f   vgui_TeamFortressViewport.obj
 0001:00031840       ?RecalculateVisibles@CCommandMenu@@QAE_NH_N@Z 10032840 f   vgui_TeamFortressViewport.obj
 0001:000319f0       ?RecalculatePositions@CCommandMenu@@QAEXH@Z 100329f0 f   vgui_TeamFortressViewport.obj
 0001:00031ab0       ?MakeVisible@CCommandMenu@@QAEXPAV1@@Z 10032ab0 f   vgui_TeamFortressViewport.obj
 0001:00031ae0       ?CreateSubMenu@TeamFortressViewport@@QAEPAVCCommandMenu@@PAVCommandButton@@PAV2@HH@Z 10032ae0 f   vgui_TeamFortressViewport.obj
 0001:00031dc0       ??2TeamFortressViewport@@SAPAXI@Z 10032dc0 f   vgui_TeamFortressViewport.obj
 0001:00031df0       ?mousePressed@CViewPortInputHandler@@UAEXW4MouseCode@vgui@@PAVPanel@3@@Z 10032df0 f i vgui_TeamFortressViewport.obj
 0001:00031e10       ?CreateDisguiseSubmenu@TeamFortressViewport@@QAEPAVCCommandMenu@@PAVCommandButton@@PAV2@PBDHH@Z 10032e10 f   vgui_TeamFortressViewport.obj
 0001:00031fb0       ?CreateCustomButton@TeamFortressViewport@@QAEPAVCommandButton@@PAD0H@Z 10032fb0 f   vgui_TeamFortressViewport.obj
 0001:00033d70       ?IsScoreBoardVisible@TeamFortressViewport@@QAE_NXZ 10034d70 f   vgui_TeamFortressViewport.obj
 0001:00033d90       ?SetCurrentCommandMenu@TeamFortressViewport@@QAEXPAVCCommandMenu@@@Z 10034d90 f   vgui_TeamFortressViewport.obj
 0001:00033de0       ?UpdateCommandMenu@TeamFortressViewport@@QAEXH@Z 10034de0 f   vgui_TeamFortressViewport.obj
 0001:00033e10       ?UpdateSpectatorPanel@TeamFortressViewport@@QAEXXZ 10034e10 f   vgui_TeamFortressViewport.obj
 0001:000341c0       ?CreateScoreBoard@TeamFortressViewport@@QAEXXZ 100351c0 f   vgui_TeamFortressViewport.obj
 0001:000342c0       ?CreateServerBrowser@TeamFortressViewport@@QAEXXZ 100352c0 f   vgui_TeamFortressViewport.obj
 0001:00034360       ?SetCurrentMenu@TeamFortressViewport@@QAEXPAVCMenuPanel@@@Z 10035360 f   vgui_TeamFortressViewport.obj
 0001:000343a0       ?CreateTextWindow@TeamFortressViewport@@QAEPAVCMenuPanel@@H@Z 100353a0 f   vgui_TeamFortressViewport.obj
 0001:000347e0       ?AllowedToPrintText@TeamFortressViewport@@QAE_NXZ 100357e0 f   vgui_TeamFortressViewport.obj
 0001:00034820       ?ShowTeamMenu@TeamFortressViewport@@AAEPAVCMenuPanel@@XZ 10035820 f   vgui_TeamFortressViewport.obj
 0001:00034850       ?CreateTeamMenu@TeamFortressViewport@@AAEXXZ 10035850 f   vgui_TeamFortressViewport.obj
 0001:000348f0       ?ShowClassMenu@TeamFortressViewport@@AAEPAVCMenuPanel@@XZ 100358f0 f   vgui_TeamFortressViewport.obj
 0001:00034920       ?CreateClassMenu@TeamFortressViewport@@AAEXXZ 10035920 f   vgui_TeamFortressViewport.obj
 0001:000349c0       ?CreateSpectatorMenu@TeamFortressViewport@@AAEXXZ 100359c0 f   vgui_TeamFortressViewport.obj
 0001:00034a60       ?UpdateOnPlayerInfo@TeamFortressViewport@@QAEXXZ 10035a60 f   vgui_TeamFortressViewport.obj
 0001:00034ab0       ?UpdateCursorState@TeamFortressViewport@@QAEXXZ 10035ab0 f   vgui_TeamFortressViewport.obj
 0001:00034ba0       ?GetAllPlayersInfo@TeamFortressViewport@@QAEXXZ 10035ba0 f   vgui_TeamFortressViewport.obj
 0001:00034be0       ?paintBackground@TeamFortressViewport@@UAEXXZ 10035be0 f   vgui_TeamFortressViewport.obj
 0001:00034d50       ?SlotInput@TeamFortressViewport@@QAE_NH@Z 10035d50 f   vgui_TeamFortressViewport.obj
 0001:00034d80       ?MsgFunc_ValClass@TeamFortressViewport@@QAEHPBDHPAX@Z 10035d80 f   vgui_TeamFortressViewport.obj
 0001:00034dd0       ?MsgFunc_TeamNames@TeamFortressViewport@@QAEHPBDHPAX@Z 10035dd0 f   vgui_TeamFortressViewport.obj
 0001:00034e90       ?MsgFunc_Feign@TeamFortressViewport@@QAEHPBDHPAX@Z 10035e90 f   vgui_TeamFortressViewport.obj
 0001:00034ed0       ?MsgFunc_Detpack@TeamFortressViewport@@QAEHPBDHPAX@Z 10035ed0 f   vgui_TeamFortressViewport.obj
 0001:00034f10       ?MsgFunc_BuildSt@TeamFortressViewport@@QAEHPBDHPAX@Z 10035f10 f   vgui_TeamFortressViewport.obj
 0001:00034f50       ?MsgFunc_RandomPC@TeamFortressViewport@@QAEHPBDHPAX@Z 10035f50 f   vgui_TeamFortressViewport.obj
 0001:00034f80       ?MsgFunc_ServerName@TeamFortressViewport@@QAEHPBDHPAX@Z 10035f80 f   vgui_TeamFortressViewport.obj
 0001:00034fc0       ?MsgFunc_ScoreInfo@TeamFortressViewport@@QAEHPBDHPAX@Z 10035fc0 f   vgui_TeamFortressViewport.obj
 0001:00035060       ?MsgFunc_TeamScore@TeamFortressViewport@@QAEHPBDHPAX@Z 10036060 f   vgui_TeamFortressViewport.obj
 0001:00035100       ?MsgFunc_TeamInfo@TeamFortressViewport@@QAEHPBDHPAX@Z 10036100 f   vgui_TeamFortressViewport.obj
 0001:00035170       ?DeathMsg@TeamFortressViewport@@QAEXHH@Z 10036170 f   vgui_TeamFortressViewport.obj
 0001:00035180       ?MsgFunc_Spectator@TeamFortressViewport@@QAEHPBDHPAX@Z 10036180 f   vgui_TeamFortressViewport.obj
 0001:000351c0       ?MsgFunc_AllowSpec@TeamFortressViewport@@QAEHPBDHPAX@Z 100361c0 f   vgui_TeamFortressViewport.obj
 0001:00035210       ?cursorEntered@CMenuHandler_PopupSubMenuInput@@UAEXPAVPanel@vgui@@@Z 10036210 f i vgui_TeamFortressViewport.obj
 0001:00035240       ?actionPerformed@CMenuHandler_ToggleCvar@@UAEXPAVPanel@vgui@@@Z 10036240 f i vgui_TeamFortressViewport.obj
 0001:00035270       ?KeyInput@CCommandMenu@@QAE_NH@Z 10036270 f   vgui_TeamFortressViewport.obj
 0001:00035300       ?CreateCommandMenu@TeamFortressViewport@@QAEHPADHH_NMMH@Z 10036300 f   vgui_TeamFortressViewport.obj
 0001:00035e70       ?ToggleServerBrowser@TeamFortressViewport@@QAEXXZ 10036e70 f   vgui_TeamFortressViewport.obj
 0001:00035ec0       ?HideCommandMenu@TeamFortressViewport@@QAEXXZ 10036ec0 f   vgui_TeamFortressViewport.obj
 0001:00035f50       ?ShowScoreBoard@TeamFortressViewport@@QAEXXZ 10036f50 f   vgui_TeamFortressViewport.obj
 0001:00035f80       ?HideScoreBoard@TeamFortressViewport@@QAEXXZ 10036f80 f   vgui_TeamFortressViewport.obj
 0001:00035fc0       ?ShowVGUIMenu@TeamFortressViewport@@QAEXH@Z 10036fc0 f   vgui_TeamFortressViewport.obj
 0001:00036120       ?HideTopMenu@TeamFortressViewport@@QAEXXZ 10037120 f   vgui_TeamFortressViewport.obj
 0001:00036160       ?KeyInput@TeamFortressViewport@@QAEHHHPBD@Z 10037160 f   vgui_TeamFortressViewport.obj
 0001:00036320       ?MsgFunc_VGUIMenu@TeamFortressViewport@@QAEHPBDHPAX@Z 10037320 f   vgui_TeamFortressViewport.obj
 0001:00036380       ?MsgFunc_MOTD@TeamFortressViewport@@QAEHPBDHPAX@Z 10037380 f   vgui_TeamFortressViewport.obj
 0001:00036420       ?InputSignalHideCommandMenu@TeamFortressViewport@@QAEXXZ 10037420 f   vgui_TeamFortressViewport.obj
 0001:00036450       ?HideVGUIMenu@TeamFortressViewport@@QAEXXZ 10037450 f   vgui_TeamFortressViewport.obj
 0001:00036480       ?Initialize@TeamFortressViewport@@QAEXXZ 10037480 f   vgui_TeamFortressViewport.obj
 0001:00036590       ?ShowCommandMenu@TeamFortressViewport@@QAEXH@Z 10037590 f   vgui_TeamFortressViewport.obj
 0001:00036660       ?InputPlayerSpecial@TeamFortressViewport@@QAEXXZ 10037660 f   vgui_TeamFortressViewport.obj
 0001:000366c0       ??0TeamFortressViewport@@QAE@HHHH@Z 100376c0 f   vgui_TeamFortressViewport.obj
 0001:00036b10       ?Initialize@CTeamMenuPanel@@UAEXXZ 10037b10 f   vgui_teammenu.obj
 0001:00036b40       ?Update@CTeamMenuPanel@@UAEXXZ 10037b40 f   vgui_teammenu.obj
 0001:00037140       ?SlotInput@CTeamMenuPanel@@UAE_NH@Z 10038140 f   vgui_teammenu.obj
 0001:000371e0       ?Open@CTeamMenuPanel@@UAEXXZ 100381e0 f   vgui_teammenu.obj
 0001:000371e0       ?Open@CClassMenuPanel@@UAEXXZ 100381e0 f   vgui_ClassMenu.obj
 0001:00037210       ?paintBackground@CTeamMenuPanel@@UAEXXZ 10038210 f   vgui_teammenu.obj
 0001:00037260       ?SetActiveInfo@CTeamMenuPanel@@UAEXH@Z 10038260 f   vgui_teammenu.obj
 0001:00037300       ??0CTeamMenuPanel@@QAE@HHHHHH@Z 10038300 f   vgui_teammenu.obj
 0001:00037fc0       ?Reset@CTeamMenuPanel@@UAEXXZ 10038fc0 f i vgui_teammenu.obj
 0001:00037fe0       ?V_CalcBob@@YAMPAUref_params_s@@@Z 10038fe0 f   view.obj
 0001:00038130       ?V_CalcRoll@@YAMVVector@@0MM@Z 10039130 f   view.obj
 0001:000381e0       ?V_StartPitchDrift@@YAXXZ  100391e0 f   view.obj
 0001:00038240       ?V_StopPitchDrift@@YAXXZ   10039240 f   view.obj
 0001:00038260       ?V_DriftPitch@@YAXPAUref_params_s@@@Z 10039260 f   view.obj
 0001:00038410       ?V_CalcGunAngle@@YAXPAUref_params_s@@@Z 10039410 f   view.obj
 0001:00038560       ?V_AddIdle@@YAXPAUref_params_s@@@Z 10039560 f   view.obj
 0001:000385f0       ?V_CalcViewRoll@@YAXPAUref_params_s@@@Z 100395f0 f   view.obj
 0001:00038690       ?V_CalcIntermissionRefdef@@YAXPAUref_params_s@@@Z 10039690 f   view.obj
 0001:000387d0       ?V_SmoothInterpolateAngles@@YAXPAM00M@Z 100397d0 f   view.obj
 0001:00038900       ?V_GetChaseOrigin@@YAXPAM0M0@Z 10039900 f   view.obj
 0001:00038a30       ?V_GetSingleTargetCam@@YAXPAUcl_entity_s@@PAM1@Z 10039a30 f   view.obj
 0001:00038be0       ?MaxAngleBetweenAngles@@YAMPAM0@Z 10039be0 f   view.obj
 0001:00038d40       ?V_GetDoubleTargetsCam@@YAXPAUcl_entity_s@@0PAM1@Z 10039d40 f   view.obj
 0001:00038fb0       ?V_GetDirectedChasePosition@@YAXPAUcl_entity_s@@0PAM1@Z 10039fb0 f   view.obj
 0001:00039100       ?V_GetChasePos@@YAXHPAM00@Z 1003a100 f   view.obj
 0001:00039250       ?V_ResetChaseCam@@YAXXZ    1003a250 f   view.obj
 0001:00039260       ?V_GetInEyePos@@YAXHPAM0@Z 1003a260 f   view.obj
 0001:00039340       ?V_GetMapFreePosition@@YAXPAM00@Z 1003a340 f   view.obj
 0001:000393f0       ?V_GetMapChasePosition@@YAXHPAM00@Z 1003a3f0 f   view.obj
 0001:00039520       ?V_FindViewModelByWeaponModel@@YAHH@Z 1003a520 f   view.obj
 0001:000395a0       ?V_DropPunchAngle@@YAXMPAM@Z 1003a5a0 f   view.obj
 0001:00039600       ?V_PunchAxis@@YAXHM@Z      1003a600 f   view.obj
 0001:00039620       ?V_Init@@YAXXZ             1003a620 f   view.obj
 0001:00039720       ?V_CalcNormalRefdef@@YAXPAUref_params_s@@@Z 1003a720 f   view.obj
 0001:0003a3b0       ?V_CalcSpectatorRefdef@@YAXPAUref_params_s@@@Z 1003b3b0 f   view.obj
 0001:0003a960       _V_CalcRefdef              1003b960 f   view.obj
 0001:0003a9b0       ??0CCrossbow@@QAE@XZ       1003b9b0 f   crossbow.obj
 0001:0003a9d0       ?Spawn@CCrossbow@@UAEXXZ   1003b9d0 f   crossbow.obj
 0001:0003aa20       ?customAttachToPlayer@CCrossbow@@UAEXPAVCBasePlayer@@@Z 1003ba20 f   crossbow.obj
 0001:0003aa50       ?Precache@CCrossbow@@UAEXXZ 1003ba50 f   crossbow.obj
 0001:0003aad0       ?GetItemInfo@CCrossbow@@UAEHPAUItemInfo@@@Z 1003bad0 f   crossbow.obj
 0001:0003ab30       ?Deploy@CCrossbow@@UAEHXZ  1003bb30 f   crossbow.obj
 0001:0003ab90       ?Holster@CCrossbow@@UAEXH@Z 1003bb90 f   crossbow.obj
 0001:0003ac10       ?FireBolt@CCrossbow@@QAEXXZ 1003bc10 f   crossbow.obj
 0001:0003ae40       ?SecondaryAttack@CCrossbow@@UAEXXZ 1003be40 f   crossbow.obj
 0001:0003af00       ?Reload@CCrossbow@@UAEXXZ  1003bf00 f   crossbow.obj
 0001:0003af50       ?WeaponIdle@CCrossbow@@UAEXXZ 1003bf50 f   crossbow.obj
 0001:0003b0a0       ??$GetClassPtr@VCCrossbow@@@@YAPAVCCrossbow@@PAV0@@Z 1003c0a0 f i crossbow.obj
 0001:0003b140       _weapon_crossbow           1003c140 f   crossbow.obj
 0001:0003b150       ?FireSniperBolt@CCrossbow@@QAEXXZ 1003c150 f   crossbow.obj
 0001:0003b350       ?Spawn@CCrossbowAmmo@@EAEXXZ 1003c350 f i crossbow.obj
 0001:0003b380       ?Precache@CCrossbowAmmo@@EAEXXZ 1003c380 f i crossbow.obj
 0001:0003b3a0       ?AddAmmo@CCrossbowAmmo@@EAEHPAVCBaseEntity@@@Z 1003c3a0 f i crossbow.obj
 0001:0003b420       ?PrimaryAttack@CCrossbow@@UAEXXZ 1003c420 f   crossbow.obj
 0001:0003b470       ??$GetClassPtr@VCCrossbowAmmo@@@@YAPAVCCrossbowAmmo@@PAV0@@Z 1003c470 f i crossbow.obj
 0001:0003b520       _ammo_crossbow             1003c520 f   crossbow.obj
 0001:0003b530       ?Spawn@CCrowbar@@UAEXXZ    1003c530 f   crowbar.obj
 0001:0003b580       ?Precache@CCrowbar@@UAEXXZ 1003c580 f   crowbar.obj
 0001:0003b610       ?GetItemInfo@CCrowbar@@UAEHPAUItemInfo@@@Z 1003c610 f   crowbar.obj
 0001:0003b660       ?Deploy@CCrowbar@@UAEHXZ   1003c660 f   crowbar.obj
 0001:0003b6a0       ?Holster@CCrowbar@@UAEXH@Z 1003c6a0 f   crowbar.obj
 0001:0003b6e0       ?Smack@CCrowbar@@QAEXXZ    1003c6e0 f   crowbar.obj
 0001:0003b700       ?Swing@CCrowbar@@QAEHH@Z   1003c700 f   crowbar.obj
 0001:0003b9d0       ?WeaponIdle@CCrowbar@@UAEXXZ 1003c9d0 f   crowbar.obj
 0001:0003ba60       ?SwingAgain@CCrowbar@@QAEXXZ 1003ca60 f   crowbar.obj
 0001:0003ba70       ??$GetClassPtr@VCCrowbar@@@@YAPAVCCrowbar@@PAV0@@Z 1003ca70 f i crowbar.obj
 0001:0003bb20       _weapon_crowbar            1003cb20 f   crowbar.obj
 0001:0003bb30       ?PrimaryAttack@CCrowbar@@UAEXXZ 1003cb30 f   crowbar.obj
 0001:0003bb70       ?customAttachToPlayer@CEgon@@UAEXPAVCBasePlayer@@@Z 1003cb70 f   egon.obj
 0001:0003bb90       ?Spawn@CEgon@@UAEXXZ       1003cb90 f   egon.obj
 0001:0003bbe0       ?Precache@CEgon@@UAEXXZ    1003cbe0 f   egon.obj
 0001:0003bc90       ?Deploy@CEgon@@UAEHXZ      1003cc90 f   egon.obj
 0001:0003bcf0       ?AddToPlayer@CGauss@@UAEHPAVCBasePlayer@@@Z 1003ccf0 f   gauss.obj
 0001:0003bcf0       ?AddToPlayer@CEgon@@UAEHPAVCBasePlayer@@@Z 1003ccf0 f   egon.obj
 0001:0003bcf0       ?AddToPlayer@CCrossbow@@UAEHPAVCBasePlayer@@@Z 1003ccf0 f   crossbow.obj
 0001:0003bcf0       ?AddToPlayer@CPython@@UAEHPAVCBasePlayer@@@Z 1003ccf0 f   python.obj
 0001:0003bcf0       ?AddToPlayer@CShotgun@@UAEHPAVCBasePlayer@@@Z 1003ccf0 f   shotgun.obj
 0001:0003bcf0       ?AddToPlayer@CMP5@@UAEHPAVCBasePlayer@@@Z 1003ccf0 f   mp5.obj
 0001:0003bcf0       ?AddToPlayer@CRpg@@UAEHPAVCBasePlayer@@@Z 1003ccf0 f   rpg.obj
 0001:0003bcf0       ?AddToPlayer@CHgun@@UAEHPAVCBasePlayer@@@Z 1003ccf0 f   hornetgun.obj
 0001:0003bd50       ?GetItemInfo@CEgon@@UAEHPAUItemInfo@@@Z 1003cd50 f   egon.obj
 0001:0003bdc0       ?GetPulseInterval@CEgon@@QAEMXZ 1003cdc0 f   egon.obj
 0001:0003bdf0       ?HasAmmo@CEgon@@QAEHXZ     1003cdf0 f   egon.obj
 0001:0003be10       ??0CEgon@@QAE@XZ           1003ce10 f   egon.obj
 0001:0003bee0       ?WeaponIdle@CEgon@@UAEXXZ  1003cee0 f   egon.obj
 0001:0003c0c0       ?EndAttack@CEgon@@QAEXXZ   1003d0c0 f   egon.obj
 0001:0003c140       ??$GetClassPtr@VCEgon@@@@YAPAVCEgon@@PAV0@@Z 1003d140 f i egon.obj
 0001:0003c1e0       _weapon_egon               1003d1e0 f   egon.obj
 0001:0003c1f0       ?Holster@CEgon@@UAEXH@Z    1003d1f0 f   egon.obj
 0001:0003c250       ?Fire@CEgon@@QAEXABVVector@@0@Z 1003d250 f   egon.obj
 0001:0003c2c0       ?AddAmmo@CEgonAmmo@@EAEHPAVCBaseEntity@@@Z 1003d2c0 f i egon.obj
 0001:0003c2c0       ?AddAmmo@CGaussAmmo@@EAEHPAVCBaseEntity@@@Z 1003d2c0 f i gauss.obj
 0001:0003c330       ?Attack@CEgon@@QAEXXZ      1003d330 f   egon.obj
 0001:0003c650       ?ItemPostFrame@CEgon@@UAEXXZ 1003d650 f   egon.obj
 0001:0003ca30       ??$GetClassPtr@VCEgonAmmo@@@@YAPAVCEgonAmmo@@PAV0@@Z 1003da30 f i egon.obj
 0001:0003cae0       _ammo_egonclip             1003dae0 f   egon.obj
 0001:0003caf0       ?EV_HLDM_PlayTextureSound@@YAMHPAUpmtrace_s@@PAM1H@Z 1003daf0 f   ev_hldm.obj
 0001:0003cf50       ?EV_HLDM_DamageDecal@@YAPADPAUphysent_s@@@Z 1003df50 f   ev_hldm.obj
 0001:0003cfd0       ?EV_HLDM_GunshotDecalTrace@@YAXPAUpmtrace_s@@PAD@Z 1003dfd0 f   ev_hldm.obj
 0001:0003d070       ?EV_HLDM_DecalGunshot@@YAXPAUpmtrace_s@@H@Z 1003e070 f   ev_hldm.obj
 0001:0003d0b0       ?EV_HLDM_CheckTracer@@YAHHPAM000HHPAH@Z 1003e0b0 f   ev_hldm.obj
 0001:0003d1a0       _EV_FireMP52               1003e1a0 f   ev_hldm.obj
 0001:0003d2b0       _EV_SpinGauss              1003e2b0 f   ev_hldm.obj
 0001:0003d310       ?EV_StopPreviousGauss@@YAXH@Z 1003e310 f   ev_hldm.obj
 0001:0003d340       ?createBall@@YAXPAHPAVVector@@@Z 1003e340 f   ev_hldm.obj
 0001:0003d460       ?createBallPowerup@@YAXPAHPAVVector@@@Z 1003e460 f   ev_hldm.obj
 0001:0003d580       ?createBallVomit@@YAXPAHPAVVector@@1@Z 1003e580 f   ev_hldm.obj
 0001:0003d680       ?generateFreakyLight@@YAXABVVector@@@Z 1003e680 f   ev_hldm.obj
 0001:0003d840       ?generateFreakyLaser@@YAXABVVector@@@Z 1003e840 f   ev_hldm.obj
 0001:0003dae0       _EV_FreakyLight            1003eae0 f   ev_hldm.obj
 0001:0003dbb0       _EV_FriendlyVomit          1003ebb0 f   ev_hldm.obj
 0001:0003dc40       ?shrapnelHitCallback@@YAXPAUtempent_s@@PAUpmtrace_s@@@Z 1003ec40 f   ev_hldm.obj
 0001:0003dcb0       ?createShrapnel@@YAXPAHPAVVector@@HMM@Z 1003ecb0 f   ev_hldm.obj
 0001:0003de60       _EV_QuakeExplosionEffect   1003ee60 f   ev_hldm.obj
 0001:0003df90       _EV_ShowBalls              1003ef90 f   ev_hldm.obj
 0001:0003dff0       _EV_ShowBallsPowerup       1003eff0 f   ev_hldm.obj
 0001:0003e050       _EV_Crowbar                1003f050 f   ev_hldm.obj
 0001:0003e120       ?EV_BoltCallback@@YAXPAUtempent_s@@MM@Z 1003f120 f   ev_hldm.obj
 0001:0003e170       _EV_FireCrossbow           1003f170 f   ev_hldm.obj
 0001:0003e2a0       _EV_FireRpg                1003f2a0 f   ev_hldm.obj
 0001:0003e370       _EV_EgonStop               1003f370 f   ev_hldm.obj
 0001:0003e430       _EV_HornetGunFire          1003f430 f   ev_hldm.obj
 0001:0003e530       _EV_TrainPitchAdjust       1003f530 f   ev_hldm.obj
 0001:0003e7c0       ?EV_RocketTrailCallback@@YAXPAUtempent_s@@MM@Z 1003f7c0 f   ev_hldm.obj
 0001:0003e8b0       _EV_Trail                  1003f8b0 f   ev_hldm.obj
 0001:0003e930       ?EV_rocketAlphaTrailThink@@YAXPAUtempent_s@@MM@Z 1003f930 f   ev_hldm.obj
 0001:0003ea80       _EV_rocketAlphaTrail       1003fa80 f   ev_hldm.obj
 0001:0003eaf0       _EV_Mirror                 1003faf0 f   ev_hldm.obj
 0001:0003ec30       _EV_FireGauss              1003fc30 f   ev_hldm.obj
 0001:0003f6c0       _EV_FireCrossbow2          100406c0 f   ev_hldm.obj
 0001:0003fb10       _EV_EgonFire               10040b10 f   ev_hldm.obj
 0001:0003fe80       _EV_TripmineFire           10040e80 f   ev_hldm.obj
 0001:0003ffa0       _EV_SnarkFire              10040fa0 f   ev_hldm.obj
 0001:00040140       ?EV_HLDM_FireBullets@@YAXHPAM00H00MHHPAHMM@Z 10041140 f   ev_hldm.obj
 0001:00040410       _EV_FireGlock1             10041410 f   ev_hldm.obj
 0001:00040710       _EV_FireGlock2             10041710 f   ev_hldm.obj
 0001:000409f0       _EV_FireShotGunDouble      100419f0 f   ev_hldm.obj
 0001:00040c40       _EV_FireShotGunSingle      10041c40 f   ev_hldm.obj
 0001:00040e80       _EV_FireMP5                10041e80 f   ev_hldm.obj
 0001:000410b0       _EV_FirePython             100420b0 f   ev_hldm.obj
 0001:00041250       ?GetFullChargeTime@CGauss@@QAEMXZ 10042250 f   gauss.obj
 0001:00041290       ?customAttachToPlayer@CGauss@@UAEXPAVCBasePlayer@@@Z 10042290 f   gauss.obj
 0001:000412c0       ?Spawn@CGauss@@UAEXXZ      100422c0 f   gauss.obj
 0001:00041310       ?Precache@CGauss@@UAEXXZ   10042310 f   gauss.obj
 0001:000413e0       ?GetItemInfo@CGauss@@UAEHPAUItemInfo@@@Z 100423e0 f   gauss.obj
 0001:00041450       ?Deploy@CGauss@@UAEHXZ     10042450 f   gauss.obj
 0001:00041490       ?Holster@CGauss@@UAEXH@Z   10042490 f   gauss.obj
 0001:00041530       ?ItemPreFrame@CGauss@@UAEXXZ 10042530 f   gauss.obj
 0001:00041530       ?ItemPreFrame@CGlock@@UAEXXZ 10042530 f   glock.obj
 0001:00041530       ?ItemPreFrame@CEgon@@UAEXXZ 10042530 f   egon.obj
 0001:00041540       ?ItemPostFrame@CGauss@@UAEXXZ 10042540 f   gauss.obj
 0001:000415a0       ?postChargeAnimCheck@CGauss@@QAEXXZ 100425a0 f   gauss.obj
 0001:000417d0       ?Fire@CGauss@@QAEXVVector@@0M@Z 100427d0 f   gauss.obj
 0001:000418f0       ??$GetClassPtr@VCGauss@@@@YAPAVCGauss@@PAV0@@Z 100428f0 f i gauss.obj
 0001:000419a0       ?Spawn@CGaussAmmo@@EAEXXZ  100429a0 f i gauss.obj
 0001:000419d0       ?Precache@CGaussAmmo@@EAEXXZ 100429d0 f i gauss.obj
 0001:000419f0       _weapon_gauss              100429f0 f   gauss.obj
 0001:00041a00       ?StartFire@CGauss@@QAEXXZ  10042a00 f   gauss.obj
 0001:00041b90       ??$GetClassPtr@VCGaussAmmo@@@@YAPAVCGaussAmmo@@PAV0@@Z 10042b90 f i gauss.obj
 0001:00041c40       ?attemptFirePrimary@CGauss@@QAEXXZ 10042c40 f   gauss.obj
 0001:00041d90       ?StartFireDecision@CGauss@@QAEXXZ 10042d90 f   gauss.obj
 0001:00041e00       ?WeaponIdle@CGauss@@UAEXXZ 10042e00 f   gauss.obj
 0001:000420a0       _ammo_gaussclip            100430a0 f   gauss.obj
 0001:000420b0       ?chargeWork@CGauss@@QAEXXZ 100430b0 f   gauss.obj
 0001:00042530       ?PrimaryAttack@CGauss@@UAEXXZ 10043530 f   gauss.obj
 0001:00042590       ?SecondaryAttack@CGauss@@UAEXXZ 10043590 f   gauss.obj
 0001:000425b0       ??0CHandGrenade@@QAE@XZ    100435b0 f   handgrenade.obj
 0001:000425d0       ?customAttachToPlayer@CHandGrenade@@UAEXPAVCBasePlayer@@@Z 100435d0 f   handgrenade.obj
 0001:000425f0       ?Spawn@CHandGrenade@@UAEXXZ 100435f0 f   handgrenade.obj
 0001:00042640       ?ExtractAmmo@CHandGrenade@@UAEHPAVCBasePlayerWeapon@@@Z 10043640 f   handgrenade.obj
 0001:000426d0       ?AddPrimaryAmmo@CHandGrenade@@UAEHHPADHH@Z 100436d0 f   handgrenade.obj
 0001:00042790       ?Precache@CHandGrenade@@UAEXXZ 10043790 f   handgrenade.obj
 0001:000427d0       ?GetItemInfo@CHandGrenade@@UAEHPAUItemInfo@@@Z 100437d0 f   handgrenade.obj
 0001:00042840       ?Deploy@CHandGrenade@@UAEHXZ 10043840 f   handgrenade.obj
 0001:00042880       ?CanHolster@CHandGrenade@@UAEHXZ 10043880 f   handgrenade.obj
 0001:000428a0       ?ItemPreFrame@CHandGrenade@@UAEXXZ 100438a0 f   handgrenade.obj
 0001:000428f0       ?Holster@CHandGrenade@@UAEXH@Z 100438f0 f   handgrenade.obj
 0001:000429c0       ?PrimaryAttack@CHandGrenade@@UAEXXZ 100439c0 f   handgrenade.obj
 0001:00042bd0       ?WeaponIdle@CHandGrenade@@UAEXXZ 10043bd0 f   handgrenade.obj
 0001:000430e0       ??$GetClassPtr@VCHandGrenade@@@@YAPAVCHandGrenade@@PAV0@@Z 100440e0 f i handgrenade.obj
 0001:00043180       _weapon_handgrenade        10044180 f   handgrenade.obj
 0001:00043190       ?TakeHealth@CBaseEntity@@UAEHMH@Z 10044190 f   hl_baseentity.obj
 0001:000431a0       ??0CBaseEntity@@QAE@XZ     100441a0 f   hl_baseentity.obj
 0001:000431b0       ?DamageDecal@CBaseEntity@@UAEHH@Z 100441b0 f   hl_baseentity.obj
 0001:000431c0       ?DamageDecal@CBaseEntity@@UAEHHH@Z 100441c0 f   hl_baseentity.obj
 0001:000431d0       ?ISoundMask@CBaseMonster@@UAEHXZ 100441d0 f   hl_baseentity.obj
 0001:000431d0       ?getHasPathFindingModA@CBaseMonster@@UAEHXZ 100441d0 f   hl_baseentity.obj
 0001:000431d0       ?hasSeeEnemyFix@CBaseMonster@@UAEHXZ 100441d0 f   hl_baseentity.obj
 0001:000431d0       ?Respawn@CBasePlayerItem@@UAEPAVCBaseEntity@@XZ 100441d0 f   hl_baseentity.obj
 0001:000431d0       ?FCanActiveIdle@CBaseMonster@@UAEHXZ 100441d0 f   hl_baseentity.obj
 0001:000431d0       ?HasHumanGibs@CBaseMonster@@UAEHXZ 100441d0 f   hl_baseentity.obj
 0001:000431d0       ?onResetBlend1@CBaseAnimating@@UAEHXZ 100441d0 f   hl_baseentity.obj
 0001:000431d0       ?Classify@CBasePlayer@@UAEHXZ 100441d0 f   hl_baseentity.obj
 0001:000431d0       ?isSizeGiant@CBaseMonster@@UAEHXZ 100441d0 f   hl_baseentity.obj
 0001:000431d0       ?IsPlayer@CBaseEntity@@UAEHXZ 100441d0 f   chumtoadweapon.obj
 0001:000431d0       ?ObjectCaps@CBasePlayer@@UAEHXZ 100441d0 f   hl_baseentity.obj
 0001:000431d0       ?IsNotValid@CommandButton@@UAEHXZ 100441d0 f   vgui_CustomObjects.obj
 0001:000431d0       ?isOrganic@CBaseEntity@@UAEHXZ 100441d0 f   hl_baseentity.obj
 0001:000431d0       ?ShouldFadeOnDeath@CBasePlayer@@UAEHXZ 100441d0 f   hl_baseentity.obj
 0001:000431d0       ?GetNextTarget@CBaseEntity@@UAEPAV1@XZ 100441d0 f   hl_baseentity.obj
 0001:000431d0       ?EV_TFC_IsAllyTeam@@YAHHH@Z 100441d0 f   ev_hldm.obj
 0001:000431d0       ?iItemSlot@CBasePlayerItem@@UAEHXZ 100441d0 f   hl_weapons.obj
 0001:000431d0       ?FCanCheckAttacks@CBaseMonster@@UAEHXZ 100441d0 f   hl_baseentity.obj
 0001:000431d0       ?canResetBlend2@CBaseAnimating@@UAEHXZ 100441d0 f   hl_baseentity.obj
 0001:000431d0       ?canResetBlend1@CBaseAnimating@@UAEHXZ 100441d0 f   hl_baseentity.obj
 0001:000431d0       ?getGermanModel@CBaseMonster@@UAEPBDXZ 100441d0 f   hl_baseentity.obj
 0001:000431d0       ?UseDecrement@CBasePlayerWeapon@@UAEHXZ 100441d0 f   hl_weapons.obj
 0001:000431d0       ?getHasPathFindingMod@CBaseMonster@@UAEHXZ 100441d0 f   hl_baseentity.obj
 0001:000431d0       ?PBestScent@CBaseMonster@@UAEPAVCSound@@XZ 100441d0 f   hl_baseentity.obj
 0001:000431d0       ?Init@CHudBase@@UAEHXZ     100441d0 f   ammo.obj
 0001:000431d0       ?isDestructibleInanimate@CBaseEntity@@UAEHXZ 100441d0 f   hl_baseentity.obj
 0001:000431d0       ?UTIL_FindEntityInSphere@@YAPAVCBaseEntity@@PAV1@ABVVector@@M@Z 100441d0 f   hl_baseentity.obj
 0001:000431d0       ?isOrganic@CBaseMonster@@UAEHXZ 100441d0 f   hl_baseentity.obj
 0001:000431d0       ?IsWorldAffiliated@CBaseEntity@@UAEHXZ 100441d0 f   hl_baseentity.obj
 0001:000431d0       ?skipSpawnStuckCheck@CBaseMonster@@UAEHXZ 100441d0 f   hl_baseentity.obj
 0001:000431d0       ?FRefreshRouteChaseEnemySmart@CBaseMonster@@UAEHXZ 100441d0 f   hl_baseentity.obj
 0001:000431d0       ?ShouldWeaponIdle@CBasePlayerWeapon@@UAEHXZ 100441d0 f   chumtoadweapon.obj
 0001:000431d0       ?GetPickupWalkerName@CBasePlayerWeapon@@UAEPBDXZ 100441d0 f   hl_baseentity.obj
 0001:000431d0       ?usesSoundSentenceSave@CBaseEntity@@UAEHXZ 100441d0 f   hl_baseentity.obj
 0001:000431d0       ?PBestSound@CBaseMonster@@UAEPAVCSound@@XZ 100441d0 f   hl_baseentity.obj
 0001:000431d0       ?usesAdvancedAnimSystem@CBaseMonster@@UAEHXZ 100441d0 f   hl_baseentity.obj
 0001:000431d0       ?allowedToSetActivity@CBaseMonster@@UAEHXZ 100441d0 f   hl_baseentity.obj
 0001:000431d0       ?IsSneaking@CBaseEntity@@UAEHXZ 100441d0 f   chumtoadweapon.obj
 0001:000431d0       ?getIsBarnacleVictimException@CBaseEntity@@UAEHXZ 100441d0 f   hl_baseentity.obj
 0001:000431d0       ?IsBreakable@CBaseEntity@@UAEHXZ 100441d0 f   hl_baseentity.obj
 0001:000431d0       ?IgnoreConditions@CBaseMonster@@UAEHXZ 100441d0 f   hl_baseentity.obj
 0001:000431d0       ?BestVisibleEnemy@CBaseMonster@@UAEPAVCBaseEntity@@XZ 100441d0 f   hl_baseentity.obj
 0001:000431d0       ?isTalkMonster@CBaseEntity@@UAEHXZ 100441d0 f   hl_baseentity.obj
 0001:000431d0       ?ShouldFadeOnDeath@CBaseMonster@@UAEHXZ 100441d0 f   hl_baseentity.obj
 0001:000431d0       ?getHeardBaitSoundSchedule@CBaseMonster@@UAE?AW4SCHEDULE_TYPE@@XZ 100441d0 f   hl_baseentity.obj
 0001:000431d0       ?Create@CBaseEntity@@SAPAV1@PBDABVVector@@1HPAUedict_s@@@Z 100441d0 f   hl_baseentity.obj
 0001:000431d0       ?VidInit@CHudBase@@UAEHXZ  100441d0 f   ammo.obj
 0001:000431d0       _HUD_GetUserEntity         100441d0 f   entity.obj
 0001:000431d0       ?usesSoundSentenceSave@CBaseMonster@@UAEHXZ 100441d0 f   hl_baseentity.obj
 0001:000431d0       ?GetToggleState@CBaseEntity@@UAEHXZ 100441d0 f   chumtoadweapon.obj
 0001:000431d0       ?GetStumpedWaitSchedule@CBaseMonster@@UAEPAUSchedule_t@@XZ 100441d0 f   hl_baseentity.obj
 0001:000431d0       ?Illumination@CBasePlayer@@UAEHXZ 100441d0 f   hl_baseentity.obj
 0001:000431d0       ?onResetBlend2@CBaseAnimating@@UAEHXZ 100441d0 f   hl_baseentity.obj
 0001:000431d0       ?FRefreshRoute@CBaseMonster@@UAEHXZ 100441d0 f   hl_baseentity.obj
 0001:000431d0       ?Classify@CBaseEntity@@UAEHXZ 100441d0 f   chumtoadweapon.obj
 0001:000431d0       ?isOrganic@CGrenade@@UAEHXZ 100441d0 f   hl_baseentity.obj
 0001:000431d0       ?pickupWalkerReplaceCheck@CBasePlayerWeapon@@UAEPAVCBaseEntity@@XZ 100441d0 f   hl_baseentity.obj
 0001:000431d0       ?isBreakableOrchild@CBaseEntity@@UAEHXZ 100441d0 f   hl_baseentity.obj
 0001:000431d0       ?getMonsterBlockIdleAutoUpdate@CBaseMonster@@UAEHXZ 100441d0 f   hl_baseentity.obj
 0001:000431d0       ?Respawn@CBaseEntity@@UAEPAV1@XZ 100441d0 f   hl_baseentity.obj
 0001:000431d0       ?usesSoundSentenceSave@CChumToadWeapon@@UAEHXZ 100441d0 f   chumtoadweapon.obj
 0001:000431d0       ?getGermanModelRequirement@CBaseMonster@@UAEHXZ 100441d0 f   hl_baseentity.obj
 0001:000431d0       ?FBecomeProne@CBaseEntity@@UAEHXZ 100441d0 f   chumtoadweapon.obj
 0001:000431d0       ?ShootTimed@CGrenade@@SAPAV1@PAUentvars_s@@VVector@@1M@Z 100441d0 f   hl_baseentity.obj
 0001:000431d0       ?isProvoked@CBaseEntity@@UAEHXZ 100441d0 f   hl_baseentity.obj
 0001:000431d0       ?forceIdleFrameReset@CBaseMonster@@UAEHXZ 100441d0 f   hl_baseentity.obj
 0001:000431d0       ?IsNetClient@CBaseEntity@@UAEHXZ 100441d0 f   chumtoadweapon.obj
 0001:000431d0       ?IsWorld@CBaseEntity@@UAEHXZ 100441d0 f   hl_baseentity.obj
 0001:000431d0       ?stub_PrecacheModel@@YAHPAD@Z 100441d0 f   com_weapons.obj
 0001:000431d0       ?MyMonsterPointer@CBaseEntity@@UAEPAVCBaseMonster@@XZ 100441d0 f   chumtoadweapon.obj
 0001:000431d0       ?isBasePlayerWeapon@CBaseEntity@@UAEHXZ 100441d0 f   glock.obj
 0001:000431d0       ?GetSchedule@CBaseMonster@@UAEPAUSchedule_t@@XZ 100441d0 f   hl_baseentity.obj
 0001:000431d0       ?getNormalModel@CBaseMonster@@UAEPBDXZ 100441d0 f   hl_baseentity.obj
 0001:000431d0       ?stub_PrecacheSound@@YAHPAD@Z 100441d0 f   com_weapons.obj
 0001:000431d0       ?MySquadMonsterPointer@CBaseEntity@@UAEPAVCSquadMonster@@XZ 100441d0 f   chumtoadweapon.obj
 0001:000431d0       ?onResetBlend0@CBaseAnimating@@UAEHXZ 100441d0 f   hl_baseentity.obj
 0001:000431d0       ?DetermineGibHeadBlock@CBaseMonster@@UAEHXZ 100441d0 f   hl_baseentity.obj
 0001:000431d0       ?HasAlienGibs@CBaseMonster@@UAEHXZ 100441d0 f   hl_baseentity.obj
 0001:000431d0       ?isProvokable@CBaseEntity@@UAEHXZ 100441d0 f   hl_baseentity.obj
 0001:000431d0       ?canResetBlend0@CBaseAnimating@@UAEHXZ 100441d0 f   hl_baseentity.obj
 0001:000431e0       ?TraceAttack@CGrenade@@UAEXPAUentvars_s@@MVVector@@PAUTraceResult@@HHH@Z 100441e0 f   hl_baseentity.obj
 0001:000431e0       ?TraceAttack@CBaseEntity@@UAEXPAUentvars_s@@MVVector@@PAUTraceResult@@HHH@Z 100441e0 f   hl_baseentity.obj
 0001:000431e0       ?TraceAttack@CBaseMonster@@UAEXPAUentvars_s@@MVVector@@PAUTraceResult@@HHH@Z 100441e0 f   hl_baseentity.obj
 0001:000431e0       ?TraceAttack@CBasePlayer@@UAEXPAUentvars_s@@MVVector@@PAUTraceResult@@HHH@Z 100441e0 f   hl_baseentity.obj
 0001:000431f0       ?TraceAttack@CBaseMonster@@UAEXPAUentvars_s@@MVVector@@PAUTraceResult@@HHHPAH@Z 100441f0 f   hl_baseentity.obj
 0001:000431f0       ?TraceAttack@CBasePlayer@@UAEXPAUentvars_s@@MVVector@@PAUTraceResult@@HHHPAH@Z 100441f0 f   hl_baseentity.obj
 0001:000431f0       ?TraceAttack@CGrenade@@UAEXPAUentvars_s@@MVVector@@PAUTraceResult@@HHHPAH@Z 100441f0 f   hl_baseentity.obj
 0001:000431f0       ?TraceAttack@CBaseEntity@@UAEXPAUentvars_s@@MVVector@@PAUTraceResult@@HHHPAH@Z 100441f0 f   hl_baseentity.obj
 0001:00043200       ?keyTyped@SpectToggleButton@@UAEXW4KeyCode@vgui@@PAVPanel@3@@Z 10044200 f   vgui_TeamFortressViewport.obj
 0001:00043200       ?AddPointsToTeam@CBaseEntity@@UAEXHH@Z 10044200 f   chumtoadweapon.obj
 0001:00043200       ?mousePressed@CDefaultInputSignal@vgui@@UAEXW4MouseCode@2@PAVPanel@2@@Z 10044200 f   vgui_checkbutton2.obj
 0001:00043200       ?mouseWheeled@CViewPortInputHandler@@UAEXHPAVPanel@vgui@@@Z 10044200 f   vgui_TeamFortressViewport.obj
 0001:00043200       ?mouseReleased@SpectToggleButton@@UAEXW4MouseCode@vgui@@PAVPanel@3@@Z 10044200 f   vgui_TeamFortressViewport.obj
 0001:00043200       ?keyTyped@ToggleCommandButton@@UAEXW4KeyCode@vgui@@PAVPanel@3@@Z 10044200 f   vgui_TeamFortressViewport.obj
 0001:00043200       ?mouseReleased@CViewPortInputHandler@@UAEXW4MouseCode@vgui@@PAVPanel@3@@Z 10044200 f   vgui_TeamFortressViewport.obj
 0001:00043200       ?keyPressed@CDefaultInputSignal@vgui@@UAEXW4KeyCode@2@PAVPanel@2@@Z 10044200 f   vgui_checkbutton2.obj
 0001:00043200       ?mouseDoublePressed@CViewPortInputHandler@@UAEXW4MouseCode@vgui@@PAVPanel@3@@Z 10044200 f   vgui_TeamFortressViewport.obj
 0001:00043200       ?SendWeaponAnimServerOnly@CBasePlayerWeapon@@UAEXHH@Z 10044200 f   hl_weapons.obj
 0001:00043200       ?keyPressed@CMenuHandler_PopupSubMenuInput@@UAEXW4KeyCode@vgui@@PAVPanel@3@@Z 10044200 f   vgui_TeamFortressViewport.obj
 0001:00043200       ?keyPressed@SpectToggleButton@@UAEXW4KeyCode@vgui@@PAVPanel@3@@Z 10044200 f   vgui_TeamFortressViewport.obj
 0001:00043200       ?keyPressed@ToggleCommandButton@@UAEXW4KeyCode@vgui@@PAVPanel@3@@Z 10044200 f   vgui_TeamFortressViewport.obj
 0001:00043200       ?mouseReleased@CBrowser_InputSignal@?A0x5998a8a3@@UAEXW4MouseCode@vgui@@PAVPanel@4@@Z 10044200 f   vgui_ServerBrowser.obj
 0001:00043200       ?keyPressed@CHandler_MenuButtonOver@@UAEXW4KeyCode@vgui@@PAVPanel@3@@Z 10044200 f   vgui_ClassMenu.obj
 0001:00043200       ?Killed@CBaseMonster@@UAEXPAUentvars_s@@H@Z 10044200 f   hl_baseentity.obj
 0001:00043200       ?keyTyped@CViewPortInputHandler@@UAEXW4KeyCode@vgui@@PAVPanel@3@@Z 10044200 f   vgui_TeamFortressViewport.obj
 0001:00043200       ?setAnimationSmart@CBaseMonster@@UAEXHM@Z 10044200 f   hl_baseentity.obj
 0001:00043200       ?mouseWheeled@CHandler_MenuButtonOver@@UAEXHPAVPanel@vgui@@@Z 10044200 f   vgui_ClassMenu.obj
 0001:00043200       ?keyPressed@CBrowser_InputSignal@?A0x5998a8a3@@UAEXW4KeyCode@vgui@@PAVPanel@4@@Z 10044200 f   vgui_ServerBrowser.obj
 0001:00043200       ?mouseDoublePressed@CDefaultInputSignal@vgui@@UAEXW4MouseCode@2@PAVPanel@2@@Z 10044200 f   vgui_checkbutton2.obj
 0001:00043200       ?mouseReleased@CHandler_MenuButtonOver@@UAEXW4MouseCode@vgui@@PAVPanel@3@@Z 10044200 f   vgui_ClassMenu.obj
 0001:00043200       ?keyReleased@ToggleCommandButton@@UAEXW4KeyCode@vgui@@PAVPanel@3@@Z 10044200 f   vgui_TeamFortressViewport.obj
 0001:00043200       ?keyReleased@CDefaultInputSignal@vgui@@UAEXW4KeyCode@2@PAVPanel@2@@Z 10044200 f   vgui_checkbutton2.obj
 0001:00043200       ?mouseWheeled@CDefaultInputSignal@vgui@@UAEXHPAVPanel@2@@Z 10044200 f   vgui_checkbutton2.obj
 0001:00043200       ?setAnimationSmartAndStop@CBaseMonster@@UAEXHM@Z 10044200 f   hl_baseentity.obj
 0001:00043200       ?mouseReleased@CHandler_ButtonHighlight@@UAEXW4MouseCode@vgui@@PAVPanel@3@@Z 10044200 f   vgui_CustomObjects.obj
 0001:00043200       ?AbsoluteNextThink@CBaseEntity@@UAEXMH@Z 10044200 f   hl_baseentity.obj
 0001:00043200       ?keyReleased@CViewPortInputHandler@@UAEXW4KeyCode@vgui@@PAVPanel@3@@Z 10044200 f   vgui_TeamFortressViewport.obj
 0001:00043200       ?mouseWheeled@CMenuHandler_PopupSubMenuInput@@UAEXHPAVPanel@vgui@@@Z 10044200 f   vgui_TeamFortressViewport.obj
 0001:00043200       ?AddPoints@CBasePlayer@@UAEXHH@Z 10044200 f   hl_baseentity.obj
 0001:00043200       ?setPoweredUpOn@CBaseMonster@@UAEXPAV1@M@Z 10044200 f   hl_baseentity.obj
 0001:00043200       ?mouseDoublePressed@CMenuHandler_PopupSubMenuInput@@UAEXW4MouseCode@vgui@@PAVPanel@3@@Z 10044200 f   vgui_TeamFortressViewport.obj
 0001:00043200       ?keyPressed@LabelSortInputHandler@@UAEXW4KeyCode@vgui@@PAVPanel@3@@Z 10044200 f   vgui_ServerBrowser.obj
 0001:00043200       ?keyReleased@CMenuHandler_PopupSubMenuInput@@UAEXW4KeyCode@vgui@@PAVPanel@3@@Z 10044200 f   vgui_TeamFortressViewport.obj
 0001:00043200       ?keyTyped@LabelSortInputHandler@@UAEXW4KeyCode@vgui@@PAVPanel@3@@Z 10044200 f   vgui_ServerBrowser.obj
 0001:00043200       ?keyPressed@CHandler_ButtonHighlight@@UAEXW4KeyCode@vgui@@PAVPanel@3@@Z 10044200 f   vgui_CustomObjects.obj
 0001:00043200       ?keyTyped@CDefaultInputSignal@vgui@@UAEXW4KeyCode@2@PAVPanel@2@@Z 10044200 f   vgui_checkbutton2.obj
 0001:00043200       ?mouseDoublePressed@CHandler_MenuButtonOver@@UAEXW4MouseCode@vgui@@PAVPanel@3@@Z 10044200 f   vgui_ClassMenu.obj
 0001:00043200       ?SendWeaponAnimServerOnlyReverse@CBasePlayerWeapon@@UAEXHH@Z 10044200 f   hl_weapons.obj
 0001:00043200       ?keyReleased@SpectToggleButton@@UAEXW4KeyCode@vgui@@PAVPanel@3@@Z 10044200 f   vgui_TeamFortressViewport.obj
 0001:00043200       ?keyTyped@CMenuHandler_PopupSubMenuInput@@UAEXW4KeyCode@vgui@@PAVPanel@3@@Z 10044200 f   vgui_TeamFortressViewport.obj
 0001:00043200       ?setAnimationSmartAndStop@CBaseMonster@@UAEXPBDM@Z 10044200 f   hl_baseentity.obj
 0001:00043200       ?mouseReleased@CDefaultInputSignal@vgui@@UAEXW4MouseCode@2@PAVPanel@2@@Z 10044200 f   vgui_checkbutton2.obj
 0001:00043200       ?mousePressed@CHandler_MenuButtonOver@@UAEXW4MouseCode@vgui@@PAVPanel@3@@Z 10044200 f   vgui_ClassMenu.obj
 0001:00043200       ?Killed@CGrenade@@UAEXPAUentvars_s@@H@Z 10044200 f   hl_baseentity.obj
 0001:00043200       ?mouseReleased@LabelSortInputHandler@@UAEXW4MouseCode@vgui@@PAVPanel@3@@Z 10044200 f   vgui_ServerBrowser.obj
 0001:00043200       ?mouseDoublePressed@FooDefaultSliderSignal@?A0xba825ea7@@UAEXW4MouseCode@vgui@@PAVPanel@4@@Z 10044200 f   vgui_slider2.obj
 0001:00043200       ?AddPoints@CBaseEntity@@UAEXHH@Z 10044200 f   chumtoadweapon.obj
 0001:00043200       ?keyTyped@FooDefaultSliderSignal@?A0xba825ea7@@UAEXW4KeyCode@vgui@@PAVPanel@4@@Z 10044200 f   vgui_slider2.obj
 0001:00043200       ?DrawAlphaBlood@CBaseEntity@@UAEXMPAUTraceResult@@@Z 10044200 f   hl_baseentity.obj
 0001:00043200       ?AddPointsToTeam@CBasePlayer@@UAEXHH@Z 10044200 f   hl_baseentity.obj
 0001:00043200       ?forgetForcedEnemy@CBaseMonster@@UAEXPAV1@H@Z 10044200 f   hl_baseentity.obj
 0001:00043200       ?mouseWheeled@LabelSortInputHandler@@UAEXHPAVPanel@vgui@@@Z 10044200 f   vgui_ServerBrowser.obj
 0001:00043200       ?keyPressed@CViewPortInputHandler@@UAEXW4KeyCode@vgui@@PAVPanel@3@@Z 10044200 f   vgui_TeamFortressViewport.obj
 0001:00043200       ?keyTyped@CHandler_MenuButtonOver@@UAEXW4KeyCode@vgui@@PAVPanel@3@@Z 10044200 f   vgui_ClassMenu.obj
 0001:00043200       ?keyReleased@CBrowser_InputSignal@?A0x5998a8a3@@UAEXW4KeyCode@vgui@@PAVPanel@4@@Z 10044200 f   vgui_ServerBrowser.obj
 0001:00043200       ?mouseReleased@CMenuHandler_PopupSubMenuInput@@UAEXW4MouseCode@vgui@@PAVPanel@3@@Z 10044200 f   vgui_TeamFortressViewport.obj
 0001:00043200       ?keyTyped@CHandler_ButtonHighlight@@UAEXW4KeyCode@vgui@@PAVPanel@3@@Z 10044200 f   vgui_CustomObjects.obj
 0001:00043200       ?mouseWheeled@CHandler_ButtonHighlight@@UAEXHPAVPanel@vgui@@@Z 10044200 f   vgui_CustomObjects.obj
 0001:00043200       ?keyReleased@FooDefaultSliderSignal@?A0xba825ea7@@UAEXW4KeyCode@vgui@@PAVPanel@4@@Z 10044200 f   vgui_slider2.obj
 0001:00043200       ?keyTyped@CBrowser_InputSignal@?A0x5998a8a3@@UAEXW4KeyCode@vgui@@PAVPanel@4@@Z 10044200 f   vgui_ServerBrowser.obj
 0001:00043200       ?keyPressed@FooDefaultSliderSignal@?A0xba825ea7@@UAEXW4KeyCode@vgui@@PAVPanel@4@@Z 10044200 f   vgui_slider2.obj
 0001:00043200       ?setAnimationSmart@CBaseMonster@@UAEXPBDM@Z 10044200 f   hl_baseentity.obj
 0001:00043200       ?keyReleased@CHandler_MenuButtonOver@@UAEXW4KeyCode@vgui@@PAVPanel@3@@Z 10044200 f   vgui_ClassMenu.obj
 0001:00043200       ?mouseReleased@ToggleCommandButton@@UAEXW4MouseCode@vgui@@PAVPanel@3@@Z 10044200 f   vgui_TeamFortressViewport.obj
 0001:00043200       ?mouseWheeled@FooDefaultSliderSignal@?A0xba825ea7@@UAEXHPAVPanel@vgui@@@Z 10044200 f   vgui_slider2.obj
 0001:00043200       ?mousePressed@CHandler_ButtonHighlight@@UAEXW4MouseCode@vgui@@PAVPanel@3@@Z 10044200 f   vgui_CustomObjects.obj
 0001:00043200       ?mouseDoublePressed@SpectToggleButton@@UAEXW4MouseCode@vgui@@PAVPanel@3@@Z 10044200 f   vgui_TeamFortressViewport.obj
 0001:00043200       ?keyReleased@LabelSortInputHandler@@UAEXW4KeyCode@vgui@@PAVPanel@3@@Z 10044200 f   vgui_ServerBrowser.obj
 0001:00043200       ?mouseWheeled@SpectToggleButton@@UAEXHPAVPanel@vgui@@@Z 10044200 f   vgui_TeamFortressViewport.obj
 0001:00043200       ?SetNextThink@CBaseEntity@@UAEXMH@Z 10044200 f   hl_baseentity.obj
 0001:00043200       ?mouseWheeled@CBrowser_InputSignal@?A0x5998a8a3@@UAEXHPAVPanel@vgui@@@Z 10044200 f   vgui_ServerBrowser.obj
 0001:00043200       ?mousePressed@CMenuHandler_PopupSubMenuInput@@UAEXW4MouseCode@vgui@@PAVPanel@3@@Z 10044200 f   vgui_TeamFortressViewport.obj
 0001:00043200       ?mouseDoublePressed@ToggleCommandButton@@UAEXW4MouseCode@vgui@@PAVPanel@3@@Z 10044200 f   vgui_TeamFortressViewport.obj
 0001:00043200       ?DrawAlphaBlood@CBaseEntity@@UAEXMABVVector@@@Z 10044200 f   hl_baseentity.obj
 0001:00043200       ?mouseWheeled@ToggleCommandButton@@UAEXHPAVPanel@vgui@@@Z 10044200 f   vgui_TeamFortressViewport.obj
 0001:00043200       ?mouseDoublePressed@CHandler_ButtonHighlight@@UAEXW4MouseCode@vgui@@PAVPanel@3@@Z 10044200 f   vgui_CustomObjects.obj
 0001:00043200       ?keyReleased@CHandler_ButtonHighlight@@UAEXW4KeyCode@vgui@@PAVPanel@3@@Z 10044200 f   vgui_CustomObjects.obj
 0001:00043210       ?UTIL_VecToAngles@@YA?AVVector@@ABV1@@Z 10044210 f   hl_baseentity.obj
 0001:00043240       ?OnTakeDamageSetConditions@CBaseMonster@@UAEXPAUentvars_s@@0MHH@Z 10044240 f   hl_baseentity.obj
 0001:00043250       ?DeadTakeDamage@CBaseMonster@@UAEHPAUentvars_s@@0MH@Z 10044250 f   hl_baseentity.obj
 0001:00043250       ?CheckLocalMove@CBaseMonster@@UAEHABVVector@@0PAVCBaseEntity@@PAM@Z 10044250 f   hl_baseentity.obj
 0001:00043250       ?TakeDamage@CBaseMonster@@UAEHPAUentvars_s@@0MH@Z 10044250 f   hl_baseentity.obj
 0001:00043250       ?TakeDamage@CBasePlayer@@UAEHPAUentvars_s@@0MH@Z 10044250 f   hl_baseentity.obj
 0001:00043250       ?CheckLocalMoveHull@CBaseMonster@@UAEHABVVector@@0PAVCBaseEntity@@PAM@Z 10044250 f   hl_baseentity.obj
 0001:00043250       ?TakeDamage@CGrenade@@UAEHPAUentvars_s@@0MH@Z 10044250 f   hl_baseentity.obj
 0001:00043250       ?TakeDamage@CBaseEntity@@UAEHPAUentvars_s@@0MH@Z 10044250 f   hl_baseentity.obj
 0001:00043260       ?OnControls@CBaseEntity@@UAEHPAUentvars_s@@@Z 10044260 f   chumtoadweapon.obj
 0001:00043260       ?IRelationship@CBaseMonster@@UAEHPAVCBaseEntity@@@Z 10044260 f   hl_baseentity.obj
 0001:00043260       ?ExtractClipAmmo@CBasePlayerWeapon@@UAEHPAV1@@Z 10044260 f   hl_baseentity.obj
 0001:00043260       ?AddDuplicate@CBasePlayerWeapon@@UAEHPAVCBasePlayerItem@@@Z 10044260 f   hl_baseentity.obj
 0001:00043260       ?weaponCanHaveExtraCheck@CBasePlayerItem@@UAEHPAVCBasePlayer@@@Z 10044260 f   chumtoadweapon.obj
 0001:00043260       ?AddPlayerItem@CBasePlayer@@UAEHPAVCBasePlayerItem@@@Z 10044260 f   hl_baseentity.obj
 0001:00043260       ?LookupActivityHeaviest@CBaseMonster@@UAEHH@Z 10044260 f   hl_baseentity.obj
 0001:00043260       ?HasPlayerItem@CBasePlayer@@QAEHPAVCBasePlayerItem@@@Z 10044260 f   hl_baseentity.obj
 0001:00043260       ?getForceAllowNewEnemy@CBaseMonster@@UAEHPAVCBaseEntity@@@Z 10044260 f   hl_baseentity.obj
 0001:00043260       ?LookupActivity@CBaseAnimating@@UAEHH@Z 10044260 f   hl_baseentity.obj
 0001:00043260       ?FInViewCone@CBaseMonster@@UAEHPAVCBaseEntity@@@Z 10044260 f   hl_baseentity.obj
 0001:00043260       ?tryActivitySubstitute@CBaseAnimating@@UAEHH@Z 10044260 f   hl_baseentity.obj
 0001:00043260       ?LookupActivityHard@CBaseAnimating@@UAEHH@Z 10044260 f   hl_baseentity.obj
 0001:00043260       ?Draw@CHudBase@@UAEHM@Z    10044260 f   ammo.obj
 0001:00043260       ?GibMonsterGib@CBaseMonster@@UAEHH@Z 10044260 f   hl_baseentity.obj
 0001:00043260       ?LookupActivityFiltered@CBaseMonster@@UAEHH@Z 10044260 f   hl_baseentity.obj
 0001:00043260       ?GetItemInfo@CBasePlayerItem@@UAEHPAUItemInfo@@@Z 10044260 f   hl_weapons.obj
 0001:00043260       ?AddToPlayer@CBasePlayerWeapon@@UAEHPAVCBasePlayer@@@Z 10044260 f   hl_baseentity.obj
 0001:00043260       ?Restore@CBasePlayer@@UAEHAAVCRestore@@@Z 10044260 f   hl_baseentity.obj
 0001:00043260       ?RemovePlayerItem@CBaseEntity@@UAEHPAVCBasePlayerItem@@@Z 10044260 f   chumtoadweapon.obj
 0001:00043260       ?ExtractAmmo@CBasePlayerWeapon@@UAEHPAV1@@Z 10044260 f   hl_baseentity.obj
 0001:00043260       ?RemovePlayerItem@CBasePlayer@@UAEHPAVCBasePlayerItem@@@Z 10044260 f   hl_baseentity.obj
 0001:00043260       ?FVisible@CBaseEntity@@UAEHPAV1@@Z 10044260 f   hl_baseentity.obj
 0001:00043260       ?FInViewCone@CBaseMonster@@UAEHPAVVector@@@Z 10044260 f   hl_baseentity.obj
 0001:00043260       ?_getHeardBaitSoundSchedule@CBaseMonster@@UAE?AW4SCHEDULE_TYPE@@PAVCSound@@@Z 10044260 f   hl_baseentity.obj
 0001:00043260       ?isForceHated@CBaseEntity@@UAEHPAV1@@Z 10044260 f   hl_baseentity.obj
 0001:00043260       ?LookupActivity@CBaseMonster@@UAEHH@Z 10044260 f   hl_baseentity.obj
 0001:00043260       ?interestedInBait@CBaseMonster@@UAEHH@Z 10044260 f   hl_baseentity.obj
 0001:00043260       ?weaponPlayPickupSoundException@CBasePlayerItem@@UAEHPAVCBasePlayer@@@Z 10044260 f   chumtoadweapon.obj
 0001:00043260       ?Save@CBasePlayer@@UAEHAAVCSave@@@Z 10044260 f   hl_baseentity.obj
 0001:00043260       ?ScheduleFromName@CBaseMonster@@UAEPAUSchedule_t@@PBD@Z 10044260 f   hl_baseentity.obj
 0001:00043260       ?GetScheduleOfType@CBaseMonster@@UAEPAUSchedule_t@@H@Z 10044260 f   hl_baseentity.obj
 0001:00043260       ?FValidateHintType@CBaseMonster@@UAEHF@Z 10044260 f   hl_baseentity.obj
 0001:00043260       ?LookupActivityHeaviest@CBaseAnimating@@UAEHH@Z 10044260 f   hl_baseentity.obj
 0001:00043260       ?getHeardBaitSoundSchedule@CBaseMonster@@UAE?AW4SCHEDULE_TYPE@@PAVCSound@@@Z 10044260 f   hl_baseentity.obj
 0001:00043260       ?CheckEnemy@CBaseMonster@@UAEHPAVCBaseEntity@@@Z 10044260 f   hl_baseentity.obj
 0001:00043260       ?FVisible@CBaseEntity@@UAEHABVVector@@@Z 10044260 f   hl_baseentity.obj
 0001:00043260       ?AddPlayerItem@CBaseEntity@@UAEHPAVCBasePlayerItem@@@Z 10044260 f   chumtoadweapon.obj
 0001:00043260       ?UpdateClientData@CBasePlayerWeapon@@UAEHPAVCBasePlayer@@@Z 10044260 f   hl_baseentity.obj
 0001:00043260       ?forcedRelationshipWith@CBaseEntity@@UAEHPAV1@@Z 10044260 f   hl_baseentity.obj
 0001:00043260       ?HasNamedPlayerItem@CBasePlayer@@QAEHPBD@Z 10044260 f   hl_baseentity.obj
 0001:00043270       ?FindCover@CBaseMonster@@UAEHVVector@@0MM@Z 10044270 f   hl_baseentity.obj
 0001:00043270       ?BuildNearestRouteSimple@CBaseMonster@@UAEHVVector@@0MM@Z 10044270 f   hl_baseentity.obj
 0001:00043270       ?BuildNearestRoute@CBaseMonster@@UAEHVVector@@0MM@Z 10044270 f   hl_baseentity.obj
 0001:00043280       ?StudioFrameAdvance@CBaseAnimating@@QAEMM@Z 10044280 f   hl_baseentity.obj
 0001:00043280       ?ChangeYaw@CBaseMonster@@UAEMH@Z 10044280 f   hl_baseentity.obj
 0001:00043290       ?GetGunPositionAI@CBasePlayer@@UAE?AVVector@@XZ 10044290 f   hl_baseentity.obj
 0001:00043290       ?GetGunPositionAI@CBaseMonster@@UAE?AVVector@@XZ 10044290 f   hl_baseentity.obj
 0001:00043290       ?GetGunPosition@CBaseMonster@@UAE?AVVector@@XZ 10044290 f   hl_baseentity.obj
 0001:00043290       ?GetGunPosition@CBasePlayer@@UAE?AVVector@@XZ 10044290 f   hl_baseentity.obj
 0001:000432c0       ?CheckMeleeAttack1@CBaseMonster@@UAEHMM@Z 100442c0 f   hl_baseentity.obj
 0001:000432c0       ?TakeHealth@CBaseMonster@@UAEHMH@Z 100442c0 f   hl_baseentity.obj
 0001:000432c0       ?CanPlaySequence@CBaseMonster@@UAEHHH@Z 100442c0 f   hl_baseentity.obj
 0001:000432c0       ?TakeHealth@CBasePlayer@@UAEHMH@Z 100442c0 f   hl_baseentity.obj
 0001:000432c0       ?NoFriendlyFireImp@CBaseMonster@@UAEHABVVector@@0@Z 100442c0 f   hl_baseentity.obj
 0001:000432c0       ?startCellEditing@ServerBrowserTablePanel@?A0x5998a8a3@@UAEPAVPanel@vgui@@HH@Z 100442c0 f   vgui_ServerBrowser.obj
 0001:000432c0       ?CheckRangeAttack1@CBaseMonster@@UAEHMM@Z 100442c0 f   hl_baseentity.obj
 0001:000432c0       ?CheckMeleeAttack2@CBaseMonster@@UAEHMM@Z 100442c0 f   hl_baseentity.obj
 0001:000432c0       ?ShouldAdvanceRoute@CBaseMonster@@UAEHMM@Z 100442c0 f   hl_baseentity.obj
 0001:000432c0       ?CheckRangeAttack2@CBaseMonster@@UAEHMM@Z 100442c0 f   hl_baseentity.obj
 0001:000432d0       ?PlayScriptedSentence@CBaseMonster@@UAEXPBDMMMHPAVCBaseEntity@@@Z 100442d0 f   hl_baseentity.obj
 0001:000432d0       ?TraceBleed@CBaseEntity@@UAEXMVVector@@PAUTraceResult@@H@Z 100442d0 f   hl_baseentity.obj
 0001:000432e0       ?TraceAttack@CBaseMonster@@UAEXPAUentvars_s@@MVVector@@PAUTraceResult@@HH@Z 100442e0 f   hl_baseentity.obj
 0001:000432e0       ?TraceAttack@CGrenade@@UAEXPAUentvars_s@@MVVector@@PAUTraceResult@@HH@Z 100442e0 f   hl_baseentity.obj
 0001:000432e0       ?TraceAttack@CBaseEntity@@UAEXPAUentvars_s@@MVVector@@PAUTraceResult@@HH@Z 100442e0 f   hl_baseentity.obj
 0001:000432e0       ?TraceAttack@CBasePlayer@@UAEXPAUentvars_s@@MVVector@@PAUTraceResult@@HH@Z 100442e0 f   hl_baseentity.obj
 0001:000432f0       ?TakeDamage@CBaseEntity@@UAEHPAUentvars_s@@0MHH@Z 100442f0 f   hl_baseentity.obj
 0001:000432f0       ?FTriangulate@CBaseMonster@@UAEHABVVector@@0MPAVCBaseEntity@@PAV2@@Z 100442f0 f   hl_baseentity.obj
 0001:000432f0       ?TakeDamage@CBaseMonster@@UAEHPAUentvars_s@@0MHH@Z 100442f0 f   hl_baseentity.obj
 0001:000432f0       ?DeadTakeDamage@CBaseMonster@@UAEHPAUentvars_s@@0MHH@Z 100442f0 f   hl_baseentity.obj
 0001:000432f0       ?TakeDamage@CBasePlayer@@UAEHPAUentvars_s@@0MHH@Z 100442f0 f   hl_baseentity.obj
 0001:000432f0       ?TakeDamage@CGrenade@@UAEHPAUentvars_s@@0MHH@Z 100442f0 f   hl_baseentity.obj
 0001:00043300       ?GetDeathActivity@CBaseMonster@@UAE?AW4Activity@@XZ 10044300 f   hl_baseentity.obj
 0001:00043310       ?iItemSlot@CRpg@@UAEHXZ    10044310 f   hl_weapons.obj
 0001:00043310       ?iItemSlot@CMP5@@UAEHXZ    10044310 f   hl_weapons.obj
 0001:00043310       ?iItemSlot@CShotgun@@UAEHXZ 10044310 f   shotgun.obj
 0001:00043310       ?GetIdealState@CBaseMonster@@UAE?AW4MONSTERSTATE@@XZ 10044310 f   hl_baseentity.obj
 0001:00043310       ?iItemSlot@CCrossbow@@UAEHXZ 10044310 f   crossbow.obj
 0001:00043320       ?DeathNotice@CBaseEntity@@UAEXPAUentvars_s@@@Z 10044320 f   chumtoadweapon.obj
 0001:00043320       ?setModel@CBaseEntity@@UAEXPBD@Z 10044320 f   hl_baseentity.obj
 0001:00043320       ?SetActivity@CBaseMonster@@UAEXW4Activity@@@Z 10044320 f   hl_baseentity.obj
 0001:00043320       ?keyFocusTicked@ToggleCommandButton@@UAEXPAVPanel@vgui@@@Z 10044320 f   vgui_TeamFortressViewport.obj
 0001:00043320       ?keyFocusTicked@LabelSortInputHandler@@UAEXPAVPanel@vgui@@@Z 10044320 f   vgui_ServerBrowser.obj
 0001:00043320       ?wanderAway@CBaseMonster@@UAEXABVVector@@@Z 10044320 f   hl_baseentity.obj
 0001:00043320       ?GibMonsterEnd@CBaseMonster@@UAEXH@Z 10044320 f   hl_baseentity.obj
 0001:00043320       ?keyFocusTicked@CHandler_MenuButtonOver@@UAEXPAVPanel@vgui@@@Z 10044320 f   vgui_ClassMenu.obj
 0001:00043320       ?keyFocusTicked@CViewPortInputHandler@@UAEXPAVPanel@vgui@@@Z 10044320 f   vgui_TeamFortressViewport.obj
 0001:00043320       ?playGunPickupSound@CBaseEntity@@UAEXPAUentvars_s@@@Z 10044320 f   hl_baseentity.obj
 0001:00043320       ?GibMonster@CBaseMonster@@UAEXH@Z 10044320 f   hl_baseentity.obj
 0001:00043320       ?cursorEntered@CBrowser_InputSignal@?A0x5998a8a3@@UAEXPAVPanel@vgui@@@Z 10044320 f   vgui_ServerBrowser.obj
 0001:00043320       ?RunTask@CBaseMonster@@UAEXPAUTask_t@@@Z 10044320 f   hl_baseentity.obj
 0001:00043320       ?KeyValue@CBaseDelay@@UAEXPAUKeyValueData_s@@@Z 10044320 f   hl_baseentity.obj
 0001:00043320       ?cursorExited@CViewPortInputHandler@@UAEXPAVPanel@vgui@@@Z 10044320 f   vgui_TeamFortressViewport.obj
 0001:00043320       ?cursorExited@CBrowser_InputSignal@?A0x5998a8a3@@UAEXPAVPanel@vgui@@@Z 10044320 f   vgui_ServerBrowser.obj
 0001:00043320       ?keyFocusTicked@CHandler_ButtonHighlight@@UAEXPAVPanel@vgui@@@Z 10044320 f   vgui_CustomObjects.obj
 0001:00043320       ?DefaultTouch@CBasePlayerAmmo@@QAEXPAVCBaseEntity@@@Z 10044320 f   hl_baseentity.obj
 0001:00043320       ?SetToggleState@CBaseEntity@@UAEXH@Z 10044320 f   chumtoadweapon.obj
 0001:00043320       ?KeyValue@CBaseMonster@@UAEXPAUKeyValueData_s@@@Z 10044320 f   hl_baseentity.obj
 0001:00043320       ?cursorExited@FooDefaultSliderSignal@?A0xba825ea7@@UAEXPAVPanel@vgui@@@Z 10044320 f   vgui_slider2.obj
 0001:00043320       ?GibMonsterSound@CBaseMonster@@UAEXH@Z 10044320 f   hl_baseentity.obj
 0001:00043320       ?StopFollowing@CBaseMonster@@UAEXH@Z 10044320 f   hl_baseentity.obj
 0001:00043320       ?cursorEntered@LabelSortInputHandler@@UAEXPAVPanel@vgui@@@Z 10044320 f   vgui_ServerBrowser.obj
 0001:00043320       ?EndOfRevive@CBaseMonster@@UAEXH@Z 10044320 f   hl_baseentity.obj
 0001:00043320       ?keyFocusTicked@CBrowser_InputSignal@?A0x5998a8a3@@UAEXPAVPanel@vgui@@@Z 10044320 f   vgui_ServerBrowser.obj
 0001:00043320       ?cursorExited@CMenuHandler_PopupSubMenuInput@@UAEXPAVPanel@vgui@@@Z 10044320 f   vgui_TeamFortressViewport.obj
 0001:00043320       ?heardBulletHit@CBaseMonster@@UAEXPAUentvars_s@@@Z 10044320 f   hl_baseentity.obj
 0001:00043320       ?keyFocusTicked@CDefaultInputSignal@vgui@@UAEXPAVPanel@2@@Z 10044320 f   vgui_checkbutton2.obj
 0001:00043320       ?ForceSpawnFlag@CBaseEntity@@UAEXH@Z 10044320 f   hl_baseentity.obj
 0001:00043320       ?keyFocusTicked@FooDefaultSliderSignal@?A0xba825ea7@@UAEXPAVPanel@vgui@@@Z 10044320 f   vgui_slider2.obj
 0001:00043320       ?cursorExited@CHandler_MenuButtonOver@@UAEXPAVPanel@vgui@@@Z 10044320 f   vgui_ClassMenu.obj
 0001:00043320       ?BarnacleVictimBitten@CBaseMonster@@UAEXPAUentvars_s@@@Z 10044320 f   hl_baseentity.obj
 0001:00043320       ?HandleAnimEvent@CBaseAnimating@@UAEXPAUMonsterEvent_t@@@Z 10044320 f   chumtoadweapon.obj
 0001:00043320       ?HandleEventQueueEvent@CBaseAnimating@@UAEXH@Z 10044320 f   chumtoadweapon.obj
 0001:00043320       ?BarnacleVictimBitten@CBasePlayer@@UAEXPAUentvars_s@@@Z 10044320 f   hl_baseentity.obj
 0001:00043320       ?keyFocusTicked@CMenuHandler_PopupSubMenuInput@@UAEXPAVPanel@vgui@@@Z 10044320 f   vgui_TeamFortressViewport.obj
 0001:00043320       ?SetAnimation@CBasePlayer@@QAEXW4PLAYER_ANIM@@@Z 10044320 f   hl_baseentity.obj
 0001:00043320       ?customAttachToPlayer@CBasePlayerWeapon@@UAEXPAVCBasePlayer@@@Z 10044320 f   crowbar.obj
 0001:00043320       ?cursorEntered@CViewPortInputHandler@@UAEXPAVPanel@vgui@@@Z 10044320 f   vgui_TeamFortressViewport.obj
 0001:00043320       ?setAnimationSmartAndStop@CBaseMonster@@UAEXPBD@Z 10044320 f   hl_baseentity.obj
 0001:00043320       ?DefaultTouchRemoveThink@CBasePlayerItem@@QAEXPAVCBaseEntity@@@Z 10044320 f   hl_baseentity.obj
 0001:00043320       ?HandleAnimEvent@CBaseMonster@@UAEXPAUMonsterEvent_t@@@Z 10044320 f   hl_baseentity.obj
 0001:00043320       ?keyFocusTicked@SpectToggleButton@@UAEXPAVPanel@vgui@@@Z 10044320 f   vgui_TeamFortressViewport.obj
 0001:00043320       ?StartTask@CBaseMonster@@UAEXPAUTask_t@@@Z 10044320 f   hl_baseentity.obj
 0001:00043320       ?cursorExited@LabelSortInputHandler@@UAEXPAVPanel@vgui@@@Z 10044320 f   vgui_ServerBrowser.obj
 0001:00043320       ?setModel@CBaseMonster@@UAEXPBD@Z 10044320 f   hl_baseentity.obj
 0001:00043320       ?SetActiveInfo@CMenuPanel@@UAEXH@Z 10044320 f   vgui_ClassMenu.obj
 0001:00043320       ?AttachToPlayer@CBasePlayerItem@@UAEXPAVCBasePlayer@@@Z 10044320 f   hl_baseentity.obj
 0001:00043320       ?cursorExited@CDefaultInputSignal@vgui@@UAEXPAVPanel@2@@Z 10044320 f   vgui_checkbutton2.obj
 0001:00043320       ?Look@CBaseMonster@@UAEXH@Z 10044320 f   hl_baseentity.obj
 0001:00043320       ?setAnimationSmart@CBaseMonster@@UAEXPBD@Z 10044320 f   hl_baseentity.obj
 0001:00043320       ?playAmmoPickupSound@CBaseEntity@@UAEXPAUentvars_s@@@Z 10044320 f   hl_baseentity.obj
 0001:00043320       ?cursorEntered@CDefaultInputSignal@vgui@@UAEXPAVPanel@2@@Z 10044320 f   vgui_checkbutton2.obj
 0001:00043320       ?cursorEntered@FooDefaultSliderSignal@?A0xba825ea7@@UAEXPAVPanel@vgui@@@Z 10044320 f   vgui_slider2.obj
 0001:00043320       ?DefaultTouch@CBasePlayerItem@@QAEXPAVCBaseEntity@@@Z 10044320 f   hl_baseentity.obj
 0001:00043320       ?Move@CBaseMonster@@UAEXM@Z 10044320 f   hl_baseentity.obj
 0001:00043320       ?removeFromPoweredUpCommandList@CBaseMonster@@UAEXPAV1@@Z 10044320 f   hl_baseentity.obj
 0001:00043330       ?UTIL_WeaponTimeBase@@YAMXZ 10044330 f   com_weapons.obj
 0001:00043330       ?getBarnacleForwardOffset@CBaseMonster@@UAEMXZ 10044330 f   hl_baseentity.obj
 0001:00043330       ?MoveYawDegreeTolerance@CBaseMonster@@UAEMXZ 10044330 f   hl_baseentity.obj
 0001:00043330       ?GetDelay@CBaseEntity@@UAEMXZ 10044330 f   chumtoadweapon.obj
 0001:00043330       ?randomIdleAnimationDelay@CChumToadWeapon@@UAEMXZ 10044330 f   chumtoadweapon.obj
 0001:00043330       ?randomIdleAnimationDelay@CSqueak@@UAEMXZ 10044330 f   squeakgrenade.obj
 0001:00043330       ?getBarnaclePulledTopOffset@CBaseMonster@@UAEMXZ 10044330 f   hl_baseentity.obj
 0001:00043330       ?getBarnacleAnimationFactor@CBaseMonster@@UAEMXZ 10044330 f   hl_baseentity.obj
 0001:00043340       ?cursorMoved@CHandler_ButtonHighlight@@UAEXHHPAVPanel@vgui@@@Z 10044340 f   vgui_CustomObjects.obj
 0001:00043340       ?cursorMoved@ToggleCommandButton@@UAEXHHPAVPanel@vgui@@@Z 10044340 f   vgui_TeamFortressViewport.obj
 0001:00043340       ?cursorMoved@CMenuHandler_PopupSubMenuInput@@UAEXHHPAVPanel@vgui@@@Z 10044340 f   vgui_TeamFortressViewport.obj
 0001:00043340       ?SetSuitUpdate@CBasePlayer@@QAEXPADHM@Z 10044340 f   hl_baseentity.obj
 0001:00043340       ?DrawAlphaBloodSlash@CBaseEntity@@UAEXMABVVector@@0@Z 10044340 f   hl_baseentity.obj
 0001:00043340       ?cursorMoved@CBrowser_InputSignal@?A0x5998a8a3@@UAEXHHPAVPanel@vgui@@@Z 10044340 f   vgui_ServerBrowser.obj
 0001:00043340       ?cursorMoved@CViewPortInputHandler@@UAEXHHPAVPanel@vgui@@@Z 10044340 f   vgui_TeamFortressViewport.obj
 0001:00043340       ?cursorMoved@CDefaultInputSignal@vgui@@UAEXHHPAVPanel@2@@Z 10044340 f   vgui_checkbutton2.obj
 0001:00043340       ?MoveExecute@CBaseMonster@@UAEXPAVCBaseEntity@@ABVVector@@M@Z 10044340 f   hl_baseentity.obj
 0001:00043340       ?cursorMoved@SpectToggleButton@@UAEXHHPAVPanel@vgui@@@Z 10044340 f   vgui_TeamFortressViewport.obj
 0001:00043340       ?forceNewEnemy@CBaseMonster@@UAEXPAVCBaseEntity@@0H@Z 10044340 f   hl_baseentity.obj
 0001:00043340       ?Killed@CGrenade@@UAEXPAUentvars_s@@0H@Z 10044340 f   hl_baseentity.obj
 0001:00043340       ?cursorMoved@LabelSortInputHandler@@UAEXHHPAVPanel@vgui@@@Z 10044340 f   vgui_ServerBrowser.obj
 0001:00043340       ?MakeIdealYaw@CBaseMonster@@UAEXVVector@@@Z 10044340 f   hl_baseentity.obj
 0001:00043340       ?cursorMoved@CHandler_MenuButtonOver@@UAEXHHPAVPanel@vgui@@@Z 10044340 f   vgui_ClassMenu.obj
 0001:00043340       ?DrawAlphaBlood@CBaseEntity@@UAEXMABVVector@@H@Z 10044340 f   hl_baseentity.obj
 0001:00043340       ?Killed@CBaseMonster@@UAEXPAUentvars_s@@0H@Z 10044340 f   hl_baseentity.obj
 0001:00043350       ?TraceAttack@CGrenade@@UAEXPAUentvars_s@@MVVector@@PAUTraceResult@@H@Z 10044350 f   hl_baseentity.obj
 0001:00043350       ?TraceAttack@CBaseMonster@@UAEXPAUentvars_s@@MVVector@@PAUTraceResult@@H@Z 10044350 f   hl_baseentity.obj
 0001:00043350       ?TraceAttack@CBasePlayer@@UAEXPAUentvars_s@@MVVector@@PAUTraceResult@@H@Z 10044350 f   hl_baseentity.obj
 0001:00043350       ?TraceAttack@CBaseEntity@@UAEXPAUentvars_s@@MVVector@@PAUTraceResult@@H@Z 10044350 f   hl_baseentity.obj
 0001:00043350       ?TraceBleed@CBaseEntity@@UAEXMVVector@@PAUTraceResult@@HH@Z 10044350 f   hl_baseentity.obj
 0001:00043360       ?DetonateUse@CGrenade@@QAEXPAVCBaseEntity@@0W4USE_TYPE@@M@Z 10044360 f   hl_baseentity.obj
 0001:00043360       ?MonsterUse@CBaseMonster@@QAEXPAVCBaseEntity@@0W4USE_TYPE@@M@Z 10044360 f   hl_baseentity.obj
 0001:00043360       ?DrawAlphaBloodSlash@CBaseEntity@@UAEXMABVVector@@0ABH@Z 10044360 f   hl_baseentity.obj
 0001:00043360       ?PlaySentence@CBaseMonster@@UAEXPBDMMM@Z 10044360 f   hl_baseentity.obj
 0001:00043360       ?SetSuitUpdate@CBasePlayer@@QAEXPADHMM@Z 10044360 f   hl_baseentity.obj
 0001:00043370       ?GetAutoaimVector@CBasePlayer@@QAE?AVVector@@M@Z 10044370 f   hl_baseentity.obj
 0001:000433a0       ?TeamID@CBasePlayer@@UAEPBDXZ 100443a0 f   hl_baseentity.obj
 0001:000433a0       ?TeamID@CBaseEntity@@UAEPBDXZ 100443a0 f   chumtoadweapon.obj
 0001:000433b0       ?GiveAmmo@CBasePlayer@@UAEHHPADH@Z 100443b0 f   hl_baseentity.obj
 0001:000433c0       ?Save@CBaseEntity@@UAEHAAVCSave@@@Z 100443c0 f   hl_baseentity.obj
 0001:000433c0       ?Save@CBasePlayerWeapon@@UAEHAAVCSave@@@Z 100443c0 f   hl_baseentity.obj
 0001:000433c0       ?Draw@CCustomMessage@@UAEHM@Z 100443c0 f   custom_message.obj
 0001:000433c0       ?Save@CBaseMonster@@UAEHAAVCSave@@@Z 100443c0 f   hl_baseentity.obj
 0001:000433c0       ?Restore@CBaseMonster@@UAEHAAVCRestore@@@Z 100443c0 f   hl_baseentity.obj
 0001:000433c0       ?Restore@CBasePlayerWeapon@@UAEHAAVCRestore@@@Z 100443c0 f   hl_baseentity.obj
 0001:000433c0       ?IsTriggered@CBaseEntity@@UAEHPAV1@@Z 100443c0 f   chumtoadweapon.obj
 0001:000433c0       ?Save@CBaseAnimating@@UAEHAAVCSave@@@Z 100443c0 f   hl_baseentity.obj
 0001:000433c0       ?Restore@CBaseAnimating@@UAEHAAVCRestore@@@Z 100443c0 f   hl_baseentity.obj
 0001:000433c0       ?Draw@CHudGeiger@@UAEHM@Z  100443c0 f   geiger.obj
 0001:000433c0       ?Restore@CBaseEntity@@UAEHAAVCRestore@@@Z 100443c0 f   hl_baseentity.obj
 0001:000433c0       ?FValidateCover@CBaseMonster@@UAEHABVVector@@@Z 100443c0 f   hl_baseentity.obj
 0001:000433c0       ?AddToPlayer@CBasePlayerItem@@UAEHPAVCBasePlayer@@@Z 100443c0 f   hl_baseentity.obj
 0001:000433d0       ?AddPrimaryAmmo@CBasePlayerWeapon@@UAEHHPADHH@Z 100443d0 f   hl_baseentity.obj
 0001:000433e0       ?AddPrimaryAmmo@CBasePlayerWeapon@@UAEHHPADHHH@Z 100443e0 f   hl_baseentity.obj
 0001:000433f0       ?AddSecondaryAmmo@CBasePlayerWeapon@@QAEHHPADH@Z 100443f0 f   hl_baseentity.obj
 0001:00043400       ?PrimaryAmmoIndex@CBasePlayerWeapon@@UAEHXZ 10044400 f   hl_baseentity.obj
 0001:00043400       ?BloodColor@CGrenade@@UAEHXZ 10044400 f   satchel.obj
 0001:00043400       ?BloodColor@CBaseEntity@@UAEHXZ 10044400 f   chumtoadweapon.obj
 0001:00043400       ?SecondaryAmmoIndex@CBasePlayerWeapon@@UAEHXZ 10044400 f   hl_baseentity.obj
 0001:00043410       ?Respawn@CBasePlayerAmmo@@UAEPAVCBaseEntity@@XZ 10044410 f   hl_baseentity.obj
 0001:00043410       ?GetWeaponPtr@CBasePlayerWeapon@@UAEPAVCBasePlayerItem@@XZ 10044410 f   chumtoadweapon.obj
 0001:00043410       ?MyMonsterPointer@CBaseMonster@@UAEPAV1@XZ 10044410 f   hl_baseentity.obj
 0001:00043420       ??0CBaseAnimating@@QAE@XZ  10044420 f   hl_baseentity.obj
 0001:00043430       ?GetToggleState@CBaseToggle@@UAEHXZ 10044430 f i hl_baseentity.obj
 0001:00043440       ?GetDelay@CBaseToggle@@UAEMXZ 10044440 f i hl_baseentity.obj
 0001:00043450       ??0CBaseMonster@@QAE@XZ    10044450 f   hl_baseentity.obj
 0001:00043460       ?BloodColor@CBaseMonster@@UAEHXZ 10044460 f i hl_baseentity.obj
 0001:00043470       ?IsAlive@CBaseMonster@@UAEHXZ 10044470 f i hl_baseentity.obj
 0001:00043490       ?IsAlive_FromAI@CBaseMonster@@UAEHPAV1@@Z 10044490 f i hl_baseentity.obj
 0001:00043490       ?IsAlive_FromAI@CBaseEntity@@UAEHPAVCBaseMonster@@@Z 10044490 f i chumtoadweapon.obj
 0001:000434d0       ?Stop@CBaseMonster@@UAEXXZ 100444d0 f i hl_baseentity.obj
 0001:000434f0       ?CanPlaySentence@CBaseMonster@@UAEHH@Z 100444f0 f i hl_baseentity.obj
 0001:00043500       ?CoverRadius@CBaseMonster@@UAEMXZ 10044500 f i hl_baseentity.obj
 0001:00043510       ?HearingSensitivity@CBaseMonster@@UAEMXZ 10044510 f i hl_baseentity.obj
 0001:00043520       ?BodyTarget@CBaseMonster@@UAE?AVVector@@ABV2@@Z 10044520 f i hl_baseentity.obj
 0001:00043520       ?BodyTargetMod@CBaseMonster@@UAE?AVVector@@ABV2@@Z 10044520 f i hl_baseentity.obj
 0001:000435b0       ?IsMoving@CBaseMonster@@UAEHXZ 100445b0 f i hl_baseentity.obj
 0001:000435c0       ??0CBasePlayer@@QAE@XZ     100445c0 f   hl_baseentity.obj
 0001:000435d0       ?BodyTarget@CBasePlayer@@UAE?AVVector@@ABV2@@Z 100445d0 f i hl_baseentity.obj
 0001:00043660       ?BodyTargetMod@CBasePlayer@@UAE?AVVector@@ABV2@@Z 10044660 f i hl_baseentity.obj
 0001:000436e0       ?StartSneaking@CBasePlayer@@UAEXXZ 100446e0 f i hl_baseentity.obj
 0001:00043700       ?StopSneaking@CBasePlayer@@UAEXXZ 10044700 f i hl_baseentity.obj
 0001:00043720       ?IsSneaking@CBasePlayer@@UAEHXZ 10044720 f i hl_baseentity.obj
 0001:00043740       ?IsAlive_FromAI@CBasePlayer@@UAEHPAVCBaseMonster@@@Z 10044740 f i hl_baseentity.obj
 0001:00043770       ?Game_HookEvents@@YAXXZ    10044770 f   hl_events.obj
 0001:00043950       ?UpdateBeams@@YAXXZ        10044950 f   hl_objects.obj
 0001:00043a90       ?Game_AddObjects@@YAXXZ    10044a90 f   hl_objects.obj
 0001:00043ab0       ?AlertMessage@@YAXW4ALERT_TYPE@@PADZZ 10044ab0 f   hl_weapons.obj
 0001:00043ae0       ?bIsMultiplayer@@YA_NXZ    10044ae0 f   hl_weapons.obj
 0001:00043af0       ?LoadVModel@@YAXPADPAVCBasePlayer@@@Z 10044af0 f   hl_weapons.obj
 0001:00043b10       ?HUD_PrepEntity@@YAXPAVCBaseEntity@@PAVCBasePlayer@@@Z 10044b10 f   hl_weapons.obj
 0001:00043b90       ?Killed@CBaseEntity@@UAEXPAUentvars_s@@0H@Z 10044b90 f   hl_weapons.obj
 0001:00043ba0       ?DefaultReload@CBasePlayerWeapon@@QAEHHHMH@Z 10044ba0 f   hl_weapons.obj
 0001:00043cc0       ?CanDeploy@CBasePlayerWeapon@@UAEHXZ 10044cc0 f   hl_weapons.obj
 0001:00043d30       ?DefaultDeploy@CBasePlayerWeapon@@QAEHPAD0H0HHMM@Z 10044d30 f   hl_weapons.obj
 0001:00043dc0       ?PlayEmptySound@CBasePlayerWeapon@@UAEHXZ 10044dc0 f   hl_weapons.obj
 0001:00043e00       ?ResetEmptySound@CBasePlayerWeapon@@UAEXXZ 10044e00 f   hl_weapons.obj
 0001:00043e10       ?Holster@CBasePlayerWeapon@@UAEXH@Z 10044e10 f   hl_weapons.obj
 0001:00043e40       ?SendWeaponAnim@CBasePlayerWeapon@@UAEXHHH@Z 10044e40 f   hl_weapons.obj
 0001:00043ea0       ?SendWeaponAnimReverse@CBasePlayerWeapon@@UAEXHHH@Z 10044ea0 f   hl_weapons.obj
 0001:00043f00       ?SendWeaponAnimBypass@CBasePlayerWeapon@@UAEXHH@Z 10044f00 f   hl_weapons.obj
 0001:00043f60       ?SendWeaponAnimBypassReverse@CBasePlayerWeapon@@UAEXHH@Z 10044f60 f   hl_weapons.obj
 0001:00043fc0       ?SendWeaponAnimClientOnly@CBasePlayerWeapon@@UAEXHH@Z 10044fc0 f   hl_weapons.obj
 0001:00044020       ?SendWeaponAnimClientOnlyReverse@CBasePlayerWeapon@@UAEXHH@Z 10045020 f   hl_weapons.obj
 0001:00044080       ?FireBulletsPlayer@CBaseEntity@@QAE?AVVector@@KV2@00MHHHPAUentvars_s@@H@Z 10045080 f   hl_weapons.obj
 0001:00044220       ?setchargeReady@CBasePlayerWeapon@@QAEXH@Z 10045220 f   hl_weapons.obj
 0001:00044250       ?getchargeReady@CBasePlayerWeapon@@QAEHXZ 10045250 f   hl_weapons.obj
 0001:00044260       ?forceBlockLooping@CBasePlayerWeapon@@QAEXXZ 10045260 f   hl_weapons.obj
 0001:00044270       ?stopBlockLooping@CBasePlayerWeapon@@QAEXXZ 10045270 f   hl_weapons.obj
 0001:00044280       ?ItemPreFrame@CBasePlayerWeapon@@UAEXXZ 10045280 f   hl_weapons.obj
 0001:00044290       ?randomIdleAnimationDelay@CBasePlayerWeapon@@UAEMXZ 10045290 f   hl_weapons.obj
 0001:000442e0       ?ItemPostFrame@CBasePlayerWeapon@@UAEXXZ 100452e0 f   hl_weapons.obj
 0001:00044510       ?Killed@CBasePlayer@@UAEXPAUentvars_s@@0H@Z 10045510 f   hl_weapons.obj
 0001:00044540       ?Spawn@CBasePlayer@@UAEXXZ 10045540 f   hl_weapons.obj
 0001:00044570       ?Spawn@CBasePlayer@@UAEXH@Z 10045570 f   hl_weapons.obj
 0001:000445a0       ?UTIL_TraceLine@@YAXABVVector@@0W4IGNORE_MONSTERS@@PAUedict_s@@PAUTraceResult@@@Z 100455a0 f   hl_weapons.obj
 0001:000445c0       ?HUD_InitClientWeapons@@YAXXZ 100455c0 f   hl_weapons.obj
 0001:00044750       ?HUD_GetLastOrg@@YAXPAM@Z  10045750 f   hl_weapons.obj
 0001:00044780       ?HUD_SetLastOrg@@YAXXZ     10045780 f   hl_weapons.obj
 0001:000447c0       ?Killed@CBaseEntity@@UAEXPAUentvars_s@@H@Z 100457c0 f   hl_weapons.obj
 0001:000447e0       ??0CBasePlayerWeapon@@QAE@XZ 100457e0 f   hl_weapons.obj
 0001:00044810       ?Killed@CBasePlayer@@UAEXPAUentvars_s@@H@Z 10045810 f   hl_weapons.obj
 0001:00044830       ?HUD_WeaponsPostThink@@YAXPAUlocal_state_s@@0PAUusercmd_s@@NI@Z 10045830 f   hl_weapons.obj
 0001:00045440       _HUD_PostRunCmd            10046440 f   hl_weapons.obj
 0001:000455a0       ?iItemSlot@CEgon@@UAEHXZ   100465a0 f i egon.obj
 0001:000455a0       ?iItemSlot@CGauss@@UAEHXZ  100465a0 f i gauss.obj
 0001:000455a0       ?iItemSlot@CHgun@@UAEHXZ   100465a0 f i hl_weapons.obj
 0001:000455b0       ?Spawn@CHgun@@UAEXXZ       100465b0 f   hornetgun.obj
 0001:00045600       ?Precache@CHgun@@UAEXXZ    10046600 f   hornetgun.obj
 0001:00045650       ?customAttachToPlayer@CHgun@@UAEXPAVCBasePlayer@@@Z 10046650 f   hornetgun.obj
 0001:00045670       ?GetItemInfo@CHgun@@UAEHPAUItemInfo@@@Z 10046670 f   hornetgun.obj
 0001:000456e0       ?Deploy@CHgun@@UAEHXZ      100466e0 f   hornetgun.obj
 0001:00045710       ?Holster@CHgun@@UAEXH@Z    10046710 f   hornetgun.obj
 0001:00045790       ?PrimaryAttack@CHgun@@UAEXXZ 10046790 f   hornetgun.obj
 0001:00045900       ?SecondaryAttack@CHgun@@UAEXXZ 10046900 f   hornetgun.obj
 0001:00045ab0       ?Reload@CHgun@@UAEXXZ      10046ab0 f   hornetgun.obj
 0001:00045b30       ?WeaponIdle@CHgun@@UAEXXZ  10046b30 f   hornetgun.obj
 0001:00045c20       ??$GetClassPtr@VCHgun@@@@YAPAVCHgun@@PAV0@@Z 10046c20 f i hornetgun.obj
 0001:00045cd0       _weapon_hornetgun          10046cd0 f   hornetgun.obj
 0001:00045ce0       _CreateInterface           10046ce0 f   interface.obj
 0001:00045d50       ?SecondaryAmmoIndex@CMP5@@UAEHXZ 10046d50 f   mp5.obj
 0001:00045d60       ?customAttachToPlayer@CMP5@@UAEXPAVCBasePlayer@@@Z 10046d60 f   mp5.obj
 0001:00045d90       ?Spawn@CMP5@@UAEXXZ        10046d90 f   mp5.obj
 0001:00045df0       ?Precache@CMP5@@UAEXXZ     10046df0 f   mp5.obj
 0001:00045ed0       ?GetItemInfo@CMP5@@UAEHPAUItemInfo@@@Z 10046ed0 f   mp5.obj
 0001:00045f40       ?Deploy@CMP5@@UAEHXZ       10046f40 f   mp5.obj
 0001:00045f70       ?PrimaryAttack@CMP5@@UAEXXZ 10046f70 f   mp5.obj
 0001:00046280       ?SecondaryAttack@CMP5@@UAEXXZ 10047280 f   mp5.obj
 0001:000464b0       ?Reload@CMP5@@UAEXXZ       100474b0 f   mp5.obj
 0001:000464e0       ?WeaponIdle@CMP5@@UAEXXZ   100474e0 f   mp5.obj
 0001:00046580       ??$GetClassPtr@VCMP5@@@@YAPAVCMP5@@PAV0@@Z 10047580 f i mp5.obj
 0001:00046630       ?Spawn@CMP5AmmoClip@@EAEXXZ 10047630 f i mp5.obj
 0001:00046660       ?Precache@CMP5AmmoClip@@EAEXXZ 10047660 f i mp5.obj
 0001:00046680       ?AddAmmo@CMP5AmmoClip@@EAEHPAVCBaseEntity@@@Z 10047680 f i mp5.obj
 0001:000466f0       ?Spawn@CMP5Chainammo@@EAEXXZ 100476f0 f i mp5.obj
 0001:000466f0       ?Spawn@CEgonAmmo@@EAEXXZ   100476f0 f i egon.obj
 0001:00046720       ?Precache@CEgonAmmo@@EAEXXZ 10047720 f i egon.obj
 0001:00046720       ?Precache@CMP5Chainammo@@EAEXXZ 10047720 f i mp5.obj
 0001:00046740       ?AddAmmo@CMP5Chainammo@@EAEHPAVCBaseEntity@@@Z 10047740 f i mp5.obj
 0001:000467b0       ?Spawn@CMP5AmmoGrenade@@EAEXXZ 100477b0 f i mp5.obj
 0001:000467e0       ?Precache@CMP5AmmoGrenade@@EAEXXZ 100477e0 f i mp5.obj
 0001:00046800       ?AddAmmo@CMP5AmmoGrenade@@EAEHPAVCBaseEntity@@@Z 10047800 f i mp5.obj
 0001:00046870       _weapon_mp5                10047870 f   mp5.obj
 0001:00046870       _weapon_9mmAR              10047870 f   mp5.obj
 0001:00046880       ??$GetClassPtr@VCMP5AmmoClip@@@@YAPAVCMP5AmmoClip@@PAV0@@Z 10047880 f i mp5.obj
 0001:00046930       ??$GetClassPtr@VCMP5Chainammo@@@@YAPAVCMP5Chainammo@@PAV0@@Z 10047930 f i mp5.obj
 0001:000469e0       ??$GetClassPtr@VCMP5AmmoGrenade@@@@YAPAVCMP5AmmoGrenade@@PAV0@@Z 100479e0 f i mp5.obj
 0001:00046a90       _ammo_mp5clip              10047a90 f   mp5.obj
 0001:00046a90       _ammo_9mmAR                10047a90 f   mp5.obj
 0001:00046aa0       _ammo_9mmbox               10047aa0 f   mp5.obj
 0001:00046ab0       _ammo_mp5grenades          10047ab0 f   mp5.obj
 0001:00046ab0       _ammo_ARgrenades           10047ab0 f   mp5.obj
 0001:00046ac0       ??0CPython@@QAE@XZ         10047ac0 f   python.obj
 0001:00046af0       ?iItemSlot@CGlock@@UAEHXZ  10047af0 f i glock.obj
 0001:00046af0       ?iItemSlot@CPython@@UAEHXZ 10047af0 f i python.obj
 0001:00046af0       ?ObjectCaps@CBaseEntity@@UAEHXZ 10047af0 f i chumtoadweapon.obj
 0001:00046b00       ?Spawn@CLaserSpotPython@@EAEXXZ 10047b00 f   python.obj
 0001:00046b70       ?Revive@CLaserSpotPython@@QAEXXZ 10047b70 f   python.obj
 0001:00046b90       ?Precache@CLaserSpotPython@@EAEXXZ 10047b90 f   python.obj
 0001:00046ba0       ?CanAttackPython@@YAHMMH@Z 10047ba0 f   python.obj
 0001:00046bd0       ?GetItemInfo@CPython@@UAEHPAUItemInfo@@@Z 10047bd0 f   python.obj
 0001:00046c40       ?customAttachToPlayer@CPython@@UAEXPAVCBasePlayer@@@Z 10047c40 f   python.obj
 0001:00046c60       ?Spawn@CPython@@UAEXXZ     10047c60 f   python.obj
 0001:00046cd0       ?Precache@CPython@@UAEXXZ  10047cd0 f   python.obj
 0001:00046d70       ?Reload@CPython@@UAEXXZ    10047d70 f   python.obj
 0001:00046de0       ?ItemPostFrame@CTripmine@@UAEXXZ 10047de0 f   tripmine.obj
 0001:00046de0       ?ItemPostFrame@CPython@@UAEXXZ 10047de0 f   python.obj
 0001:00046de0       ?ItemPostFrame@CCrossbow@@UAEXXZ 10047de0 f   crossbow.obj
 0001:00046df0       ?updateModel@CPython@@QAEXXZ 10047df0 f   python.obj
 0001:00046e10       ?WeaponIdle@CPython@@UAEXXZ 10047e10 f   python.obj
 0001:00047000       ??$GetClassPtr@VCPython@@@@YAPAVCPython@@PAV0@@Z 10048000 f i python.obj
 0001:000470a0       ?ObjectCaps@CLaserSpotPython@@EAEHXZ 100480a0 f i python.obj
 0001:000470b0       _weapon_357                100480b0 f   python.obj
 0001:000470b0       _weapon_python             100480b0 f   python.obj
 0001:000470c0       ?Deploy@CPython@@UAEHXZ    100480c0 f   python.obj
 0001:00047130       ?Holster@CPython@@UAEXH@Z  10048130 f   python.obj
 0001:000471e0       ?SecondaryAttack@CPython@@UAEXXZ 100481e0 f   python.obj
 0001:00047310       ?PrimaryAttack@CPython@@UAEXXZ 10048310 f   python.obj
 0001:000475e0       ?ItemPreFrame@CPython@@UAEXXZ 100485e0 f   python.obj
 0001:00047720       ??$GetClassPtr@VCLaserSpotPython@@@@YAPAVCLaserSpotPython@@PAV0@@Z 10048720 f i python.obj
 0001:000477d0       ?Spawn@CPythonAmmo@@EAEXXZ 100487d0 f i python.obj
 0001:00047800       ?Precache@CPythonAmmo@@EAEXXZ 10048800 f i python.obj
 0001:00047820       ?AddAmmo@CPythonAmmo@@EAEHPAVCBaseEntity@@@Z 10048820 f i python.obj
 0001:00047890       _laser_spot_python         10048890 f   python.obj
 0001:000478a0       ??$GetClassPtr@VCPythonAmmo@@@@YAPAVCPythonAmmo@@PAV0@@Z 100488a0 f i python.obj
 0001:00047950       _ammo_357                  10048950 f   python.obj
 0001:00047960       ?Reload@CRpg@@UAEXXZ       10048960 f   rpg.obj
 0001:000479c0       ?customAttachToPlayer@CRpg@@UAEXPAVCBasePlayer@@@Z 100489c0 f   rpg.obj
 0001:000479e0       ?Spawn@CRpg@@UAEXXZ        100489e0 f   rpg.obj
 0001:00047a40       ?Precache@CRpg@@UAEXXZ     10048a40 f   rpg.obj
 0001:00047ac0       ?GetItemInfo@CRpg@@UAEHPAUItemInfo@@@Z 10048ac0 f   rpg.obj
 0001:00047b30       ?Deploy@CRpg@@UAEHXZ       10048b30 f   rpg.obj
 0001:00047b80       ?CanHolster@CRpg@@UAEHXZ   10048b80 f   rpg.obj
 0001:00047ba0       ?Holster@CRpg@@UAEXH@Z     10048ba0 f   rpg.obj
 0001:00047bf0       ?SecondaryAttack@CRpg@@UAEXXZ 10048bf0 f   rpg.obj
 0001:00047c20       ?PrimaryAttack@CRpg@@UAEXXZ 10048c20 f   rpg.obj
 0001:00047d50       ?WeaponIdle@CRpg@@UAEXXZ   10048d50 f   rpg.obj
 0001:00047e40       ??$GetClassPtr@VCRpg@@@@YAPAVCRpg@@PAV0@@Z 10048e40 f i rpg.obj
 0001:00047ef0       ?Spawn@CRpgAmmo@@EAEXXZ    10048ef0 f i rpg.obj
 0001:00047f20       ?Precache@CRpgAmmo@@EAEXXZ 10048f20 f i rpg.obj
 0001:00047f40       ?AddAmmo@CRpgAmmo@@EAEHPAVCBaseEntity@@@Z 10048f40 f i rpg.obj
 0001:00047fc0       _weapon_rpg                10048fc0 f   rpg.obj
 0001:00047fd0       ??$GetClassPtr@VCRpgAmmo@@@@YAPAVCRpgAmmo@@PAV0@@Z 10048fd0 f i rpg.obj
 0001:00048080       _ammo_rpgclip              10049080 f   rpg.obj
 0001:00048090       ??0CSatchel@@QAE@XZ        10049090 f   satchel.obj
 0001:000480b0       ?SatchelThink@CSatchelCharge@@AAEXXZ 100490b0 f   satchel.obj
 0001:000481c0       ?Precache@CSatchelCharge@@EAEXXZ 100491c0 f   satchel.obj
 0001:000481f0       ?BounceSound@CSatchelCharge@@EAEXXZ 100491f0 f   satchel.obj
 0001:000482b0       ?AddDuplicate@CSatchel@@UAEHPAVCBasePlayerItem@@@Z 100492b0 f   satchel.obj
 0001:000482f0       ?AddToPlayer@CSatchel@@UAEHPAVCBasePlayer@@@Z 100492f0 f   satchel.obj
 0001:00048350       ?customAttachToPlayer@CSatchel@@UAEXPAVCBasePlayer@@@Z 10049350 f   satchel.obj
 0001:00048370       ?Spawn@CSatchel@@UAEXXZ    10049370 f   satchel.obj
 0001:000483c0       ?Precache@CSatchel@@UAEXXZ 100493c0 f   satchel.obj
 0001:00048420       ?GetItemInfo@CSatchel@@UAEHPAUItemInfo@@@Z 10049420 f   satchel.obj
 0001:00048490       ?CanDeploy@CSatchel@@UAEHXZ 10049490 f   satchel.obj
 0001:00048490       ?IsUseable@CSatchel@@UAEHXZ 10049490 f   satchel.obj
 0001:000484d0       ?Deploy@CSatchel@@UAEHXZ   100494d0 f   satchel.obj
 0001:00048580       ?Holster@CSatchel@@UAEXH@Z 10049580 f   satchel.obj
 0001:00048670       ?Throw@CSatchel@@QAEXXZ    10049670 f   satchel.obj
 0001:000487a0       ?WeaponIdle@CSatchel@@UAEXXZ 100497a0 f   satchel.obj
 0001:00048a10       ??$GetClassPtr@VCSatchel@@@@YAPAVCSatchel@@PAV0@@Z 10049a10 f i satchel.obj
 0001:00048ab0       ?SatchelSlide@CSatchelCharge@@AAEXPAVCBaseEntity@@@Z 10049ab0 f   satchel.obj
 0001:00048c00       _weapon_satchel            10049c00 f   satchel.obj
 0001:00048c10       ?PrimaryAttack@CSatchel@@UAEXXZ 10049c10 f   satchel.obj
 0001:00048d70       ?SecondaryAttack@CSatchel@@UAEXXZ 10049d70 f   satchel.obj
 0001:00048dd0       ?Spawn@CSatchelCharge@@EAEXXZ 10049dd0 f   satchel.obj
 0001:00048ed0       ??$GetClassPtr@VCSatchelCharge@@@@YAPAVCSatchelCharge@@PAV0@@Z 10049ed0 f i satchel.obj
 0001:00048f80       _monster_satchel           10049f80 f   satchel.obj
 0001:00048f90       ??0CShotgun@@QAE@XZ        10049f90 f   shotgun.obj
 0001:00048fb0       ?GetStoppedActivity@CBaseMonster@@UAE?AW4Activity@@XZ 10049fb0 f i hl_baseentity.obj
 0001:00048fb0       ?UseDecrement@CEgon@@UAEHXZ 10049fb0 f i egon.obj
 0001:00048fb0       ?UseDecrement@CShotgun@@UAEHXZ 10049fb0 f i shotgun.obj
 0001:00048fb0       ?UseDecrement@CPython@@UAEHXZ 10049fb0 f i python.obj
 0001:00048fb0       ?iItemSlot@CCrowbar@@UAEHXZ 10049fb0 f i crowbar.obj
 0001:00048fb0       ?UseDecrement@CRpg@@UAEHXZ 10049fb0 f i hl_weapons.obj
 0001:00048fb0       ?UseDecrement@CGlock@@UAEHXZ 10049fb0 f i glock.obj
 0001:00048fb0       ?UseDecrement@CChumToadWeapon@@UAEHXZ 10049fb0 f i chumtoadweapon.obj
 0001:00048fb0       ?UseDecrement@CHgun@@UAEHXZ 10049fb0 f i hl_weapons.obj
 0001:00048fb0       ?UseDecrement@CCrowbar@@UAEHXZ 10049fb0 f i crowbar.obj
 0001:00048fb0       ?IsPlayer@CBasePlayer@@UAEHXZ 10049fb0 f i hl_baseentity.obj
 0001:00048fb0       ?VidInit@CHudSayText@@UAEHXZ 10049fb0 f i saytext.obj
 0001:00048fb0       ?UseDecrement@CMP5@@UAEHXZ 10049fb0 f i hl_weapons.obj
 0001:00048fb0       ?VidInit@CHudStatusBar@@UAEHXZ 10049fb0 f i statusbar.obj
 0001:00048fb0       ?Deploy@CBasePlayerWeapon@@UAEHXZ 10049fb0 f i hl_weapons.obj
 0001:00048fb0       ?VidInit@CHudMenu@@UAEHXZ  10049fb0 f i menu.obj
 0001:00048fb0       ?VidInit@CHudStatusIcons@@UAEHXZ 10049fb0 f i status_icons.obj
 0001:00048fb0       ?VidInit@CHudAmmoSecondary@@UAEHXZ 10049fb0 f i ammo_secondary.obj
 0001:00048fb0       ?IsNetClient@CBasePlayer@@UAEHXZ 10049fb0 f i hl_baseentity.obj
 0001:00048fb0       ?IsInWorld@CBaseEntity@@UAEHXZ 10049fb0 f i hl_baseentity.obj
 0001:00048fb0       ?FBecomeProne@CBaseMonster@@UAEHXZ 10049fb0 f i hl_baseentity.obj
 0001:00048fb0       ?VidInit@CHudGeiger@@UAEHXZ 10049fb0 f i geiger.obj
 0001:00048fb0       ?ShouldWeaponIdle@CRpg@@UAEHXZ 10049fb0 f i hl_weapons.obj
 0001:00048fb0       ?IsUseable@CHgun@@UAEHXZ   10049fb0 f i hornetgun.obj
 0001:00048fb0       ?CanHolster@CBasePlayerItem@@UAEHXZ 10049fb0 f i chumtoadweapon.obj
 0001:00048fb0       ?UseDecrement@CSatchel@@UAEHXZ 10049fb0 f i satchel.obj
 0001:00048fb0       ?VidInit@CCustomMessage@@UAEHXZ 10049fb0 f i custom_message.obj
 0001:00048fb0       ?UseDecrement@CCrossbow@@UAEHXZ 10049fb0 f i crossbow.obj
 0001:00048fb0       ?FBecomeProne@CBasePlayer@@UAEHXZ 10049fb0 f i hl_baseentity.obj
 0001:00048fb0       ?isBasePlayerWeapon@CBasePlayerWeapon@@UAEHXZ 10049fb0 f i chumtoadweapon.obj
 0001:00048fb0       ?UseDecrement@CTripmine@@UAEHXZ 10049fb0 f i tripmine.obj
 0001:00048fb0       ?IsUseable@CBasePlayerWeapon@@UAEHXZ 10049fb0 f i hl_baseentity.obj
 0001:00048fb0       ?UseDecrement@CHandGrenade@@UAEHXZ 10049fb0 f i handgrenade.obj
 0001:00048fb0       ?UseDecrement@CGauss@@UAEHXZ 10049fb0 f i gauss.obj
 0001:00048fb0       ?UseDecrement@CSqueak@@UAEHXZ 10049fb0 f i squeakgrenade.obj
 0001:00048fc0       ?Spawn@CShotgun@@UAEXXZ    10049fc0 f   shotgun.obj
 0001:00049010       ?Precache@CShotgun@@UAEXXZ 1004a010 f   shotgun.obj
 0001:000490d0       ?customAttachToPlayer@CShotgun@@UAEXPAVCBasePlayer@@@Z 1004a0d0 f   shotgun.obj
 0001:000490f0       ?GetItemInfo@CShotgun@@UAEHPAUItemInfo@@@Z 1004a0f0 f   shotgun.obj
 0001:00049160       ?Holster@CShotgun@@UAEXH@Z 1004a160 f   shotgun.obj
 0001:00049180       ?Deploy@CShotgun@@UAEHXZ   1004a180 f   shotgun.obj
 0001:000491c0       ?ItemPreFrame@CShotgun@@UAEXXZ 1004a1c0 f   shotgun.obj
 0001:00049260       ?ItemPostFrame@CShotgun@@UAEXXZ 1004a260 f   shotgun.obj
 0001:00049360       ?Reload@CShotgun@@UAEXXZ   1004a360 f   shotgun.obj
 0001:00049550       ?reloadFinishPump@CShotgun@@QAEXXZ 1004a550 f   shotgun.obj
 0001:000496a0       ?reloadSemi@CShotgun@@QAEHXZ 1004a6a0 f   shotgun.obj
 0001:00049730       ?WeaponIdle@CShotgun@@UAEXXZ 1004a730 f   shotgun.obj
 0001:00049850       ??$GetClassPtr@VCShotgun@@@@YAPAVCShotgun@@PAV0@@Z 1004a850 f i shotgun.obj
 0001:000498f0       _weapon_shotgun            1004a8f0 f   shotgun.obj
 0001:00049900       ?reloadBlockFireCheck@CShotgun@@QAEHXZ 1004a900 f   shotgun.obj
 0001:00049960       ?Spawn@CShotgunAmmo@@EAEXXZ 1004a960 f i shotgun.obj
 0001:00049990       ?Precache@CShotgunAmmo@@EAEXXZ 1004a990 f i shotgun.obj
 0001:000499b0       ?AddAmmo@CShotgunAmmo@@EAEHPAVCBaseEntity@@@Z 1004a9b0 f i shotgun.obj
 0001:00049a20       ?PrimaryAttack@CShotgun@@UAEXXZ 1004aa20 f   shotgun.obj
 0001:00049dc0       ?SecondaryAttack@CShotgun@@UAEXXZ 1004adc0 f   shotgun.obj
 0001:0004a190       ??$GetClassPtr@VCShotgunAmmo@@@@YAPAVCShotgunAmmo@@PAV0@@Z 1004b190 f i shotgun.obj
 0001:0004a240       _ammo_buckshot             1004b240 f   shotgun.obj
 0001:0004a250       ??0CSqueak@@QAE@XZ         1004b250 f   squeakgrenade.obj
 0001:0004a270       ?customAttachToPlayer@CSqueak@@UAEXPAVCBasePlayer@@@Z 1004b270 f   squeakgrenade.obj
 0001:0004a290       ?GetPickupWalkerName@CSqueak@@UAEPBDXZ 1004b290 f   squeakgrenade.obj
 0001:0004a2a0       ?Spawn@CSqueak@@UAEXXZ     1004b2a0 f   squeakgrenade.obj
 0001:0004a320       ?Precache@CSqueak@@UAEXXZ  1004b320 f   squeakgrenade.obj
 0001:0004a390       ?GetItemInfo@CSqueak@@UAEHPAUItemInfo@@@Z 1004b390 f   squeakgrenade.obj
 0001:0004a400       ?Deploy@CSqueak@@UAEHXZ    1004b400 f   squeakgrenade.obj
 0001:0004a4d0       ?Holster@CSqueak@@UAEXH@Z  1004b4d0 f   squeakgrenade.obj
 0001:0004a5a0       ?ItemPostFrame@CSqueak@@UAEXXZ 1004b5a0 f   squeakgrenade.obj
 0001:0004a600       ?WeaponIdle@CSqueak@@UAEXXZ 1004b600 f   squeakgrenade.obj
 0001:0004a7b0       ??$GetClassPtr@VCSqueak@@@@YAPAVCSqueak@@PAV0@@Z 1004b7b0 f i squeakgrenade.obj
 0001:0004a850       _weapon_snark              1004b850 f   squeakgrenade.obj
 0001:0004a860       ?PrimaryAttack@CSqueak@@UAEXXZ 1004b860 f   squeakgrenade.obj
 0001:0004ab20       ??0CTripmine@@QAE@XZ       1004bb20 f   tripmine.obj
 0001:0004ab80       ?iItemSlot@CHandGrenade@@UAEHXZ 1004bb80 f i handgrenade.obj
 0001:0004ab80       ?iItemSlot@CChumToadWeapon@@UAEHXZ 1004bb80 f i chumtoadweapon.obj
 0001:0004ab80       ?iItemSlot@CSqueak@@UAEHXZ 1004bb80 f i squeakgrenade.obj
 0001:0004ab80       ?iItemSlot@CTripmine@@UAEHXZ 1004bb80 f i tripmine.obj
 0001:0004ab80       ?iItemSlot@CSatchel@@UAEHXZ 1004bb80 f i satchel.obj
 0001:0004ab90       ?SetObjectCollisionBox@CTripmine@@UAEXXZ 1004bb90 f i tripmine.obj
 0001:0004ac20       ?customAttachToPlayer@CTripmine@@UAEXPAVCBasePlayer@@@Z 1004bc20 f   tripmine.obj
 0001:0004ac50       ?Spawn@CTripmine@@UAEXXZ   1004bc50 f   tripmine.obj
 0001:0004ad20       ?Precache@CTripmine@@UAEXXZ 1004bd20 f   tripmine.obj
 0001:0004ad60       ?GetItemInfo@CTripmine@@UAEHPAUItemInfo@@@Z 1004bd60 f   tripmine.obj
 0001:0004add0       ?Deploy@CTripmine@@UAEHXZ  1004bdd0 f   tripmine.obj
 0001:0004ae10       ?Holster@CTripmine@@UAEXH@Z 1004be10 f   tripmine.obj
 0001:0004aee0       ?ItemPreFrame@CTripmine@@UAEXXZ 1004bee0 f   tripmine.obj
 0001:0004b020       ?WeaponIdle@CTripmine@@UAEXXZ 1004c020 f   tripmine.obj
 0001:0004b190       ??$GetClassPtr@VCTripmine@@@@YAPAVCTripmine@@PAV0@@Z 1004c190 f i tripmine.obj
 0001:0004b230       _weapon_tripmine           1004c230 f   tripmine.obj
 0001:0004b240       ?PrimaryAttack@CTripmine@@UAEXXZ 1004c240 f   tripmine.obj
 0001:0004b540       ?intChanged@FooDefaultScrollBarIntChangeSignal@?A0x19f3ca1d@@UAEXHPAVPanel@vgui@@@Z 1004c540 f i vgui_scrollbar2.obj
 0001:0004b550       ?actionPerformed@FooDefaultButtonSignal@?A0x19f3ca1d@@UAEXPAVPanel@vgui@@@Z 1004c550 f i vgui_scrollbar2.obj
 0001:0004b570       ??0ScrollBarButton@@QAE@PBDHHHH@Z 1004c570 f i vgui_scrollbar2.obj
 0001:0004b610       ?paintBackground@ScrollBarButton@@UAEXXZ 1004c610 f i vgui_scrollbar2.obj
 0001:0004b660       ?setSize@ScrollBar2@vgui@@UAEXHH@Z 1004c660 f   vgui_scrollbar2.obj
 0001:0004b760       ?setValue@ScrollBar2@vgui@@UAEXH@Z 1004c760 f   vgui_scrollbar2.obj
 0001:0004b780       ?getValue@ScrollBar2@vgui@@UAEHXZ 1004c780 f   vgui_scrollbar2.obj
 0001:0004b790       ?setRange@ScrollBar2@vgui@@UAEXHH@Z 1004c790 f   vgui_scrollbar2.obj
 0001:0004b7b0       ?isVertical@ScrollBar2@vgui@@UAE_NXZ 1004c7b0 f   vgui_scrollbar2.obj
 0001:0004b7c0       ?hasFullRange@ScrollBar2@vgui@@UAE_NXZ 1004c7c0 f   vgui_scrollbar2.obj
 0001:0004b7d0       ?setButton@ScrollBar2@vgui@@UAEXPAVButton@2@H@Z 1004c7d0 f   vgui_scrollbar2.obj
 0001:0004b850       ?getButton@ScrollBar2@vgui@@UAEPAVButton@2@H@Z 1004c850 f   vgui_scrollbar2.obj
 0001:0004b870       ?setSlider@ScrollBar2@vgui@@UAEXPAVSlider2@2@@Z 1004c870 f   vgui_scrollbar2.obj
 0001:0004b8e0       ?getSlider@ScrollBar2@vgui@@UAEPAVSlider2@2@XZ 1004c8e0 f   vgui_scrollbar2.obj
 0001:0004b8f0       ?doButtonPressed@ScrollBar2@vgui@@UAEXH@Z 1004c8f0 f   vgui_scrollbar2.obj
 0001:0004b940       ?setButtonPressedScrollValue@ScrollBar2@vgui@@UAEXH@Z 1004c940 f   vgui_scrollbar2.obj
 0001:0004b950       ?setRangeWindow@ScrollBar2@vgui@@UAEXH@Z 1004c950 f   vgui_scrollbar2.obj
 0001:0004b970       ?setRangeWindowEnabled@ScrollBar2@vgui@@UAEX_N@Z 1004c970 f   vgui_scrollbar2.obj
 0001:0004b990       ?validate@ScrollBar2@vgui@@UAEXXZ 1004c990 f   vgui_scrollbar2.obj
 0001:0004ba30       ?addIntChangeSignal@ScrollBar2@vgui@@UAEXPAVIntChangeSignal@2@@Z 1004ca30 f   vgui_scrollbar2.obj
 0001:0004bac0       ?fireIntChangeSignal@ScrollBar2@vgui@@UAEXXZ 1004cac0 f   vgui_scrollbar2.obj
 0001:0004bb20       ??0ScrollBar2@vgui@@QAE@HHHH_N@Z 1004cb20 f   vgui_scrollbar2.obj
 0001:0004bd70       ?cursorMoved@FooDefaultSliderSignal@?A0xba825ea7@@UAEXHHPAVPanel@vgui@@@Z 1004cd70 f i vgui_slider2.obj
 0001:0004bd90       ?mousePressed@FooDefaultSliderSignal@?A0xba825ea7@@UAEXW4MouseCode@vgui@@PAVPanel@4@@Z 1004cd90 f i vgui_slider2.obj
 0001:0004bdb0       ?mouseReleased@FooDefaultSliderSignal@?A0xba825ea7@@UAEXW4MouseCode@vgui@@PAVPanel@4@@Z 1004cdb0 f i vgui_slider2.obj
 0001:0004bdd0       ?setSize@Slider2@vgui@@UAEXHH@Z 1004cdd0 f   vgui_slider2.obj
 0001:0004be00       ?isVertical@Slider2@vgui@@UAE_NXZ 1004ce00 f   vgui_slider2.obj
 0001:0004be10       ?setValue@Slider2@vgui@@UAEXH@Z 1004ce10 f   vgui_slider2.obj
 0001:0004be70       ?getValue@Slider2@vgui@@UAEHXZ 1004ce70 f   vgui_slider2.obj
 0001:0004be80       ?recomputeNobPosFromValue@Slider2@vgui@@EAEXXZ 1004ce80 f   vgui_slider2.obj
 0001:0004c010       ?recomputeValueFromNobPos@Slider2@vgui@@EAEXXZ 1004d010 f   vgui_slider2.obj
 0001:0004c110       ?hasFullRange@Slider2@vgui@@UAE_NXZ 1004d110 f   vgui_slider2.obj
 0001:0004c1d0       ?paintBackground@Slider2@vgui@@MAEXXZ 1004d1d0 f   vgui_slider2.obj
 0001:0004c3a0       ?setRange@Slider2@vgui@@UAEXHH@Z 1004d3a0 f   vgui_slider2.obj
 0001:0004c3d0       ?getRange@Slider2@vgui@@UAEXAAH0@Z 1004d3d0 f   vgui_slider2.obj
 0001:0004c3f0       ?privateCursorMoved@Slider2@vgui@@UAEXHHPAVPanel@2@@Z 1004d3f0 f   vgui_slider2.obj
 0001:0004c4f0       ?privateMousePressed@Slider2@vgui@@UAEXW4MouseCode@2@PAVPanel@2@@Z 1004d4f0 f   vgui_slider2.obj
 0001:0004c5a0       ?privateMouseReleased@Slider2@vgui@@UAEXW4MouseCode@2@PAVPanel@2@@Z 1004d5a0 f   vgui_slider2.obj
 0001:0004c5c0       ?getNobPos@Slider2@vgui@@UAEXAAH0@Z 1004d5c0 f   vgui_slider2.obj
 0001:0004c5e0       ?setRangeWindow@Slider2@vgui@@UAEXH@Z 1004d5e0 f   vgui_slider2.obj
 0001:0004c5f0       ?setRangeWindowEnabled@Slider2@vgui@@UAEX_N@Z 1004d5f0 f   vgui_slider2.obj
 0001:0004c600       ?setButtonOffset@Slider2@vgui@@UAEXH@Z 1004d600 f   vgui_slider2.obj
 0001:0004c610       ?addIntChangeSignal@Slider2@vgui@@UAEXPAVIntChangeSignal@2@@Z 1004d610 f   vgui_slider2.obj
 0001:0004c660       ?fireIntChangeSignal@Slider2@vgui@@MAEXXZ 1004d660 f   vgui_slider2.obj
 0001:0004c6c0       ??0Slider2@vgui@@QAE@HHHH_N@Z 1004d6c0 f   vgui_slider2.obj
 0001:0004c780       ?HashPlayerID@@YAEQBD@Z    1004d780 f   voice_banmgr.obj
 0001:0004c7d0       ?SaveState@CVoiceBanMgr@@QAEXPBD@Z 1004d7d0 f   voice_banmgr.obj
 0001:0004c8a0       ?ForEachBannedPlayer@CVoiceBanMgr@@QAEXP6AXQAD@Z@Z 1004d8a0 f   voice_banmgr.obj
 0001:0004c8e0       ?Clear@CVoiceBanMgr@@IAEXXZ 1004d8e0 f   voice_banmgr.obj
 0001:0004c900       ?InternalFindPlayerSquelch@CVoiceBanMgr@@IAEPAVBannedPlayer@1@QBD@Z 1004d900 f   voice_banmgr.obj
 0001:0004c960       ?AddBannedPlayer@CVoiceBanMgr@@IAEPAVBannedPlayer@1@QBD@Z 1004d960 f   voice_banmgr.obj
 0001:0004c9d0       ??0CVoiceBanMgr@@QAE@XZ    1004d9d0 f   voice_banmgr.obj
 0001:0004c9e0       ?Term@CVoiceBanMgr@@QAEXXZ 1004d9e0 f   voice_banmgr.obj
 0001:0004ca30       ?GetPlayerBan@CVoiceBanMgr@@QAE_NQBD@Z 1004da30 f   voice_banmgr.obj
 0001:0004ca50       ?SetPlayerBan@CVoiceBanMgr@@QAEXQBD_N@Z 1004da50 f   voice_banmgr.obj
 0001:0004cab0       ??1CVoiceBanMgr@@QAE@XZ    1004dab0 f   voice_banmgr.obj
 0001:0004cac0       ?Init@CVoiceBanMgr@@QAE_NPBD@Z 1004dac0 f   voice_banmgr.obj
 0001:0004cba0       ?GetClientVoiceMgr@@YAPAVCVoiceStatus@@XZ 1004dba0 f   voice_status.obj
 0001:0004cbb0       ?ForEachBannedPlayer@@YAXQAD@Z 1004dbb0 f   voice_status.obj
 0001:0004cc70       ?ShowBannedCallback@@YAXXZ 1004dc70 f   voice_status.obj
 0001:0004ccc0       ?StartSquelchMode@CVoiceStatus@@QAEXXZ 1004dcc0 f   voice_status.obj
 0001:0004cce0       ?StopSquelchMode@CVoiceStatus@@QAEXXZ 1004dce0 f   voice_status.obj
 0001:0004cd00       ?IsInSquelchMode@CVoiceStatus@@QAE_NXZ 1004dd00 f   voice_status.obj
 0001:0004cd10       ?FindVoiceLabel@CVoiceStatus@@QAEPAVCVoiceLabel@@H@Z 1004dd10 f   voice_status.obj
 0001:0004cd50       ?GetFreeVoiceLabel@CVoiceStatus@@QAEPAVCVoiceLabel@@XZ 1004dd50 f   voice_status.obj
 0001:0004cd60       ?RepositionLabels@CVoiceStatus@@QAEXXZ 1004dd60 f   voice_status.obj
 0001:0004cfd0       ?FreeBitmaps@CVoiceStatus@@QAEXXZ 1004dfd0 f   voice_status.obj
 0001:0004d0d0       ?IsPlayerBlocked@CVoiceStatus@@QAE_NH@Z 1004e0d0 f   voice_status.obj
 0001:0004d130       ??1CVoiceStatus@@UAE@XZ    1004e130 f   voice_status.obj
 0001:0004d230       ?VidInit@CVoiceStatus@@UAEHXZ 1004e230 f   voice_status.obj
 0001:0004d540       ?CreateEntities@CVoiceStatus@@QAEXXZ 1004e540 f   voice_status.obj
 0001:0004d6c0       ?UpdateSpeakerStatus@CVoiceStatus@@QAEXHH@Z 1004e6c0 f   voice_status.obj
 0001:0004d930       ?UpdateServerState@CVoiceStatus@@QAEX_N@Z 1004e930 f   voice_status.obj
 0001:0004dbc0       ?UpdateBanButton@CVoiceStatus@@QAEXH@Z 1004ebc0 f   voice_status.obj
 0001:0004dd20       ?HandleVoiceMaskMsg@CVoiceStatus@@QAEXHPAX@Z 1004ed20 f   voice_status.obj
 0001:0004dde0       ?HandleReqStateMsg@CVoiceStatus@@QAEXHPAX@Z 1004ede0 f   voice_status.obj
 0001:0004de20       ?SetPlayerBlockedState@CVoiceStatus@@QAEXH_N@Z 1004ee20 f   voice_status.obj
 0001:0004df20       ?__MsgFunc_VoiceMask@@YAHPBDHPAX@Z 1004ef20 f   voice_status.obj
 0001:0004df50       ?__MsgFunc_ReqState@@YAHPBDHPAX@Z 1004ef50 f   voice_status.obj
 0001:0004df80       ??0CVoiceStatus@@QAE@XZ    1004ef80 f   voice_status.obj
 0001:0004e060       ??_GCVoiceStatus@@UAEPAXI@Z 1004f060 f i voice_status.obj
 0001:0004e060       ??_ECVoiceStatus@@UAEPAXI@Z 1004f060 f i voice_status.obj
 0001:0004e090       ?Init@CVoiceStatus@@UAEHPAVIVoiceStatusHelper@@PAPAVPanel@vgui@@@Z 1004f090 f   voice_status.obj
 0001:0004e320       ?Frame@CVoiceStatus@@QAEXN@Z 1004f320 f   voice_status.obj
 0001:0004e3c0       ?UpdateSpeakerImage@CVoiceStatus@@QAEXPAVLabel@vgui@@H@Z 1004f3c0 f   voice_status.obj
 0001:0004e3dc       ?setColor@Scheme@vgui@@UAEXW4SchemeColor@12@HHHH@Z 1004f3dc f   vgui:vgui.dll
 0001:0004e3e2       ?getColor@Scheme@vgui@@UAEXW4SchemeColor@12@AAH111@Z 1004f3e2 f   vgui:vgui.dll
 0001:0004e3e8       ?setFont@Scheme@vgui@@UAEXW4SchemeFont@12@PAVFont@2@@Z 1004f3e8 f   vgui:vgui.dll
 0001:0004e3ee       ?getFont@Scheme@vgui@@UAEPAVFont@2@W4SchemeFont@12@@Z 1004f3ee f   vgui:vgui.dll
 0001:0004e3f4       ?setCursor@Scheme@vgui@@UAEXW4SchemeCursor@12@PAVCursor@2@@Z 1004f3f4 f   vgui:vgui.dll
 0001:0004e3fa       ?getCursor@Scheme@vgui@@UAEPAVCursor@2@W4SchemeCursor@12@@Z 1004f3fa f   vgui:vgui.dll
 0001:0004e400       ?init@Color@vgui@@EAEXXZ   1004f400 f   vgui:vgui.dll
 0001:0004e406       ?setColor@Color@vgui@@UAEXW4SchemeColor@Scheme@2@@Z 1004f406 f   vgui:vgui.dll
 0001:0004e40c       ?setColor@Color@vgui@@UAEXHHHH@Z 1004f40c f   vgui:vgui.dll
 0001:0004e412       ?getColor@Color@vgui@@UAEXAAW4SchemeColor@Scheme@2@@Z 1004f412 f   vgui:vgui.dll
 0001:0004e418       ?getColor@Color@vgui@@UAEXAAH000@Z 1004f418 f   vgui:vgui.dll
 0001:0004e41e       ??AColor@vgui@@UAEHH@Z     1004f41e f   vgui:vgui.dll
 0001:0004e424       ?setPos@Panel@vgui@@UAEXHH@Z 1004f424 f   vgui:vgui.dll
 0001:0004e42a       ?getPos@Panel@vgui@@UAEXAAH0@Z 1004f42a f   vgui:vgui.dll
 0001:0004e430       ?setSize@Panel@vgui@@UAEXHH@Z 1004f430 f   vgui:vgui.dll
 0001:0004e436       ?getSize@Panel@vgui@@UAEXAAH0@Z 1004f436 f   vgui:vgui.dll
 0001:0004e43c       ?setBounds@Panel@vgui@@UAEXHHHH@Z 1004f43c f   vgui:vgui.dll
 0001:0004e442       ?getBounds@Panel@vgui@@UAEXAAH000@Z 1004f442 f   vgui:vgui.dll
 0001:0004e448       ?getWide@Panel@vgui@@UAEHXZ 1004f448 f   vgui:vgui.dll
 0001:0004e44e       ?getTall@Panel@vgui@@UAEHXZ 1004f44e f   vgui:vgui.dll
 0001:0004e454       ?getParent@Panel@vgui@@UAEPAV12@XZ 1004f454 f   vgui:vgui.dll
 0001:0004e45a       ?setVisible@Panel@vgui@@UAEX_N@Z 1004f45a f   vgui:vgui.dll
 0001:0004e460       ?isVisible@Panel@vgui@@UAE_NXZ 1004f460 f   vgui:vgui.dll
 0001:0004e466       ?isVisibleUp@Panel@vgui@@UAE_NXZ 1004f466 f   vgui:vgui.dll
 0001:0004e46c       ?repaint@Panel@vgui@@UAEXXZ 1004f46c f   vgui:vgui.dll
 0001:0004e472       ?repaintAll@Panel@vgui@@UAEXXZ 1004f472 f   vgui:vgui.dll
 0001:0004e478       ?getAbsExtents@Panel@vgui@@UAEXAAH000@Z 1004f478 f   vgui:vgui.dll
 0001:0004e47e       ?getClipRect@Panel@vgui@@UAEXAAH000@Z 1004f47e f   vgui:vgui.dll
 0001:0004e484       ?setParent@Panel@vgui@@UAEXPAV12@@Z 1004f484 f   vgui:vgui.dll
 0001:0004e48a       ?addChild@Panel@vgui@@UAEXPAV12@@Z 1004f48a f   vgui:vgui.dll
 0001:0004e490       ?insertChildAt@Panel@vgui@@UAEXPAV12@H@Z 1004f490 f   vgui:vgui.dll
 0001:0004e496       ?removeChild@Panel@vgui@@UAEXPAV12@@Z 1004f496 f   vgui:vgui.dll
 0001:0004e49c       ?wasMousePressed@Panel@vgui@@UAE_NW4MouseCode@2@@Z 1004f49c f   vgui:vgui.dll
 0001:0004e4a2       ?wasMouseDoublePressed@Panel@vgui@@UAE_NW4MouseCode@2@@Z 1004f4a2 f   vgui:vgui.dll
 0001:0004e4a8       ?isMouseDown@Panel@vgui@@UAE_NW4MouseCode@2@@Z 1004f4a8 f   vgui:vgui.dll
 0001:0004e4ae       ?wasMouseReleased@Panel@vgui@@UAE_NW4MouseCode@2@@Z 1004f4ae f   vgui:vgui.dll
 0001:0004e4b4       ?wasKeyPressed@Panel@vgui@@UAE_NW4KeyCode@2@@Z 1004f4b4 f   vgui:vgui.dll
 0001:0004e4ba       ?isKeyDown@Panel@vgui@@UAE_NW4KeyCode@2@@Z 1004f4ba f   vgui:vgui.dll
 0001:0004e4c0       ?wasKeyTyped@Panel@vgui@@UAE_NW4KeyCode@2@@Z 1004f4c0 f   vgui:vgui.dll
 0001:0004e4c6       ?wasKeyReleased@Panel@vgui@@UAE_NW4KeyCode@2@@Z 1004f4c6 f   vgui:vgui.dll
 0001:0004e4cc       ?addInputSignal@Panel@vgui@@UAEXPAVInputSignal@2@@Z 1004f4cc f   vgui:vgui.dll
 0001:0004e4d2       ?removeInputSignal@Panel@vgui@@UAEXPAVInputSignal@2@@Z 1004f4d2 f   vgui:vgui.dll
 0001:0004e4d8       ?addRepaintSignal@Panel@vgui@@UAEXPAVRepaintSignal@2@@Z 1004f4d8 f   vgui:vgui.dll
 0001:0004e4de       ?removeRepaintSignal@Panel@vgui@@UAEXPAVRepaintSignal@2@@Z 1004f4de f   vgui:vgui.dll
 0001:0004e4e4       ?isWithin@Panel@vgui@@UAE_NHH@Z 1004f4e4 f   vgui:vgui.dll
 0001:0004e4ea       ?isWithinTraverse@Panel@vgui@@UAEPAV12@HH@Z 1004f4ea f   vgui:vgui.dll
 0001:0004e4f0       ?localToScreen@Panel@vgui@@UAEXAAH0@Z 1004f4f0 f   vgui:vgui.dll
 0001:0004e4f6       ?screenToLocal@Panel@vgui@@UAEXAAH0@Z 1004f4f6 f   vgui:vgui.dll
 0001:0004e4fc       ?setCursor@Panel@vgui@@UAEXW4SchemeCursor@Scheme@2@@Z 1004f4fc f   vgui:vgui.dll
 0001:0004e502       ?setCursor@Panel@vgui@@UAEXPAVCursor@2@@Z 1004f502 f   vgui:vgui.dll
 0001:0004e508       ?getCursor@Panel@vgui@@UAEPAVCursor@2@XZ 1004f508 f   vgui:vgui.dll
 0001:0004e50e       ?setMinimumSize@Panel@vgui@@UAEXHH@Z 1004f50e f   vgui:vgui.dll
 0001:0004e514       ?getMinimumSize@Panel@vgui@@UAEXAAH0@Z 1004f514 f   vgui:vgui.dll
 0001:0004e51a       ?requestFocus@Panel@vgui@@UAEXXZ 1004f51a f   vgui:vgui.dll
 0001:0004e520       ?hasFocus@Panel@vgui@@UAE_NXZ 1004f520 f   vgui:vgui.dll
 0001:0004e526       ?getChildCount@Panel@vgui@@UAEHXZ 1004f526 f   vgui:vgui.dll
 0001:0004e52c       ?getChild@Panel@vgui@@UAEPAV12@H@Z 1004f52c f   vgui:vgui.dll
 0001:0004e532       ?setLayout@Panel@vgui@@UAEXPAVLayout@2@@Z 1004f532 f   vgui:vgui.dll
 0001:0004e538       ?invalidateLayout@Panel@vgui@@UAEX_N@Z 1004f538 f   vgui:vgui.dll
 0001:0004e53e       ?setFocusNavGroup@Panel@vgui@@UAEXPAVFocusNavGroup@2@@Z 1004f53e f   vgui:vgui.dll
 0001:0004e544       ?requestFocusPrev@Panel@vgui@@UAEXXZ 1004f544 f   vgui:vgui.dll
 0001:0004e54a       ?requestFocusNext@Panel@vgui@@UAEXXZ 1004f54a f   vgui:vgui.dll
 0001:0004e550       ?addFocusChangeSignal@Panel@vgui@@UAEXPAVFocusChangeSignal@2@@Z 1004f550 f   vgui:vgui.dll
 0001:0004e556       ?isAutoFocusNavEnabled@Panel@vgui@@UAE_NXZ 1004f556 f   vgui:vgui.dll
 0001:0004e55c       ?setAutoFocusNavEnabled@Panel@vgui@@UAEX_N@Z 1004f55c f   vgui:vgui.dll
 0001:0004e562       ?setBorder@Panel@vgui@@UAEXPAVBorder@2@@Z 1004f562 f   vgui:vgui.dll
 0001:0004e568       ?setPaintBorderEnabled@Panel@vgui@@UAEX_N@Z 1004f568 f   vgui:vgui.dll
 0001:0004e56e       ?setPaintBackgroundEnabled@Panel@vgui@@UAEX_N@Z 1004f56e f   vgui:vgui.dll
 0001:0004e574       ?setPaintEnabled@Panel@vgui@@UAEX_N@Z 1004f574 f   vgui:vgui.dll
 0001:0004e57a       ?getInset@Panel@vgui@@UAEXAAH000@Z 1004f57a f   vgui:vgui.dll
 0001:0004e580       ?getPaintSize@Panel@vgui@@UAEXAAH0@Z 1004f580 f   vgui:vgui.dll
 0001:0004e586       ?setPreferredSize@Panel@vgui@@UAEXHH@Z 1004f586 f   vgui:vgui.dll
 0001:0004e58c       ?getPreferredSize@Panel@vgui@@UAEXAAH0@Z 1004f58c f   vgui:vgui.dll
 0001:0004e592       ?getSurfaceBase@Panel@vgui@@UAEPAVSurfaceBase@2@XZ 1004f592 f   vgui:vgui.dll
 0001:0004e598       ?isEnabled@Panel@vgui@@UAE_NXZ 1004f598 f   vgui:vgui.dll
 0001:0004e59e       ?setEnabled@Panel@vgui@@UAEX_N@Z 1004f59e f   vgui:vgui.dll
 0001:0004e5a4       ?setBuildGroup@Panel@vgui@@UAEXPAVBuildGroup@2@PBD@Z 1004f5a4 f   vgui:vgui.dll
 0001:0004e5aa       ?isBuildGroupEnabled@Panel@vgui@@UAE_NXZ 1004f5aa f   vgui:vgui.dll
 0001:0004e5b0       ?removeAllChildren@Panel@vgui@@UAEXXZ 1004f5b0 f   vgui:vgui.dll
 0001:0004e5b6       ?repaintParent@Panel@vgui@@UAEXXZ 1004f5b6 f   vgui:vgui.dll
 0001:0004e5bc       ?createPropertyPanel@Panel@vgui@@UAEPAV12@XZ 1004f5bc f   vgui:vgui.dll
 0001:0004e5c2       ?getPersistanceText@Panel@vgui@@UAEXPADH@Z 1004f5c2 f   vgui:vgui.dll
 0001:0004e5c8       ?applyPersistanceText@Panel@vgui@@UAEXPBD@Z 1004f5c8 f   vgui:vgui.dll
 0001:0004e5ce       ?setFgColor@Panel@vgui@@UAEXVColor@2@@Z 1004f5ce f   vgui:vgui.dll
 0001:0004e5d4       ?setFgColor@Panel@vgui@@UAEXHHHH@Z 1004f5d4 f   vgui:vgui.dll
 0001:0004e5da       ?setFgColor@Panel@vgui@@UAEXW4SchemeColor@Scheme@2@@Z 1004f5da f   vgui:vgui.dll
 0001:0004e5e0       ?setBgColor@Panel@vgui@@UAEXVColor@2@@Z 1004f5e0 f   vgui:vgui.dll
 0001:0004e5e6       ?setBgColor@Panel@vgui@@UAEXHHHH@Z 1004f5e6 f   vgui:vgui.dll
 0001:0004e5ec       ?setBgColor@Panel@vgui@@UAEXW4SchemeColor@Scheme@2@@Z 1004f5ec f   vgui:vgui.dll
 0001:0004e5f2       ?getFgColor@Panel@vgui@@UAEXAAVColor@2@@Z 1004f5f2 f   vgui:vgui.dll
 0001:0004e5f8       ?getFgColor@Panel@vgui@@UAEXAAH000@Z 1004f5f8 f   vgui:vgui.dll
 0001:0004e5fe       ?getBgColor@Panel@vgui@@UAEXAAVColor@2@@Z 1004f5fe f   vgui:vgui.dll
 0001:0004e604       ?getBgColor@Panel@vgui@@UAEXAAH000@Z 1004f604 f   vgui:vgui.dll
 0001:0004e60a       ?setAsMouseCapture@Panel@vgui@@UAEX_N@Z 1004f60a f   vgui:vgui.dll
 0001:0004e610       ?setAsMouseArena@Panel@vgui@@UAEX_N@Z 1004f610 f   vgui:vgui.dll
 0001:0004e616       ?getApp@Panel@vgui@@UAEPAVApp@2@XZ 1004f616 f   vgui:vgui.dll
 0001:0004e61c       ?getVirtualSize@Panel@vgui@@UAEXAAH0@Z 1004f61c f   vgui:vgui.dll
 0001:0004e622       ?setLayoutInfo@Panel@vgui@@UAEXPAVLayoutInfo@2@@Z 1004f622 f   vgui:vgui.dll
 0001:0004e628       ?getLayoutInfo@Panel@vgui@@UAEPAVLayoutInfo@2@XZ 1004f628 f   vgui:vgui.dll
 0001:0004e62e       ?isCursorNone@Panel@vgui@@UAE_NXZ 1004f62e f   vgui:vgui.dll
 0001:0004e634       ?solveTraverse@Panel@vgui@@UAEXXZ 1004f634 f   vgui:vgui.dll
 0001:0004e63a       ?paintTraverse@Panel@vgui@@MAEX_N@Z 1004f63a f   vgui:vgui.dll
 0001:0004e640       ?paintTraverse@Panel@vgui@@UAEXXZ 1004f640 f   vgui:vgui.dll
 0001:0004e646       ?setSurfaceBaseTraverse@Panel@vgui@@UAEXPAVSurfaceBase@2@@Z 1004f646 f   vgui:vgui.dll
 0001:0004e64c       ?performLayout@Panel@vgui@@MAEXXZ 1004f64c f   vgui:vgui.dll
 0001:0004e652       ?internalPerformLayout@Panel@vgui@@MAEXXZ 1004f652 f   vgui:vgui.dll
 0001:0004e658       ?drawSetColor@Panel@vgui@@MAEXHHHH@Z 1004f658 f   vgui:vgui.dll
 0001:0004e65e       ?drawSetColor@Panel@vgui@@MAEXW4SchemeColor@Scheme@2@@Z 1004f65e f   vgui:vgui.dll
 0001:0004e664       ?drawFilledRect@Panel@vgui@@MAEXHHHH@Z 1004f664 f   vgui:vgui.dll
 0001:0004e66a       ?drawOutlinedRect@Panel@vgui@@MAEXHHHH@Z 1004f66a f   vgui:vgui.dll
 0001:0004e670       ?drawSetTextFont@Panel@vgui@@MAEXPAVFont@2@@Z 1004f670 f   vgui:vgui.dll
 0001:0004e676       ?drawSetTextFont@Panel@vgui@@MAEXW4SchemeFont@Scheme@2@@Z 1004f676 f   vgui:vgui.dll
 0001:0004e67c       ?drawSetTextColor@Panel@vgui@@MAEXHHHH@Z 1004f67c f   vgui:vgui.dll
 0001:0004e682       ?drawSetTextColor@Panel@vgui@@MAEXW4SchemeColor@Scheme@2@@Z 1004f682 f   vgui:vgui.dll
 0001:0004e688       ?drawSetTextPos@Panel@vgui@@MAEXHH@Z 1004f688 f   vgui:vgui.dll
 0001:0004e68e       ?drawPrintText@Panel@vgui@@MAEXHHPBDH@Z 1004f68e f   vgui:vgui.dll
 0001:0004e694       ?drawPrintText@Panel@vgui@@MAEXPBDH@Z 1004f694 f   vgui:vgui.dll
 0001:0004e69a       ?drawPrintChar@Panel@vgui@@MAEXHHD@Z 1004f69a f   vgui:vgui.dll
 0001:0004e6a0       ?drawPrintChar@Panel@vgui@@MAEXD@Z 1004f6a0 f   vgui:vgui.dll
 0001:0004e6a6       ?drawSetTextureRGBA@Panel@vgui@@MAEXHPBDHH@Z 1004f6a6 f   vgui:vgui.dll
 0001:0004e6ac       ?drawSetTexture@Panel@vgui@@MAEXH@Z 1004f6ac f   vgui:vgui.dll
 0001:0004e6b2       ?drawTexturedRect@Panel@vgui@@MAEXHHHH@Z 1004f6b2 f   vgui:vgui.dll
 0001:0004e6b8       ?solve@Panel@vgui@@MAEXXZ  1004f6b8 f   vgui:vgui.dll
 0001:0004e6be       ?paintBackground@Panel@vgui@@MAEXXZ 1004f6be f   vgui:vgui.dll
 0001:0004e6c4       ?paint@Panel@vgui@@MAEXXZ  1004f6c4 f   vgui:vgui.dll
 0001:0004e6ca       ?paintBuildOverlay@Panel@vgui@@MAEXXZ 1004f6ca f   vgui:vgui.dll
 0001:0004e6d0       ?internalCursorMoved@Panel@vgui@@MAEXHH@Z 1004f6d0 f   vgui:vgui.dll
 0001:0004e6d6       ?internalCursorEntered@Panel@vgui@@MAEXXZ 1004f6d6 f   vgui:vgui.dll
 0001:0004e6dc       ?internalCursorExited@Panel@vgui@@MAEXXZ 1004f6dc f   vgui:vgui.dll
 0001:0004e6e2       ?internalMousePressed@Panel@vgui@@MAEXW4MouseCode@2@@Z 1004f6e2 f   vgui:vgui.dll
 0001:0004e6e8       ?internalMouseDoublePressed@Panel@vgui@@MAEXW4MouseCode@2@@Z 1004f6e8 f   vgui:vgui.dll
 0001:0004e6ee       ?internalMouseReleased@Panel@vgui@@MAEXW4MouseCode@2@@Z 1004f6ee f   vgui:vgui.dll
 0001:0004e6f4       ?internalMouseWheeled@Panel@vgui@@MAEXH@Z 1004f6f4 f   vgui:vgui.dll
 0001:0004e6fa       ?internalKeyPressed@Panel@vgui@@MAEXW4KeyCode@2@@Z 1004f6fa f   vgui:vgui.dll
 0001:0004e700       ?internalKeyTyped@Panel@vgui@@MAEXW4KeyCode@2@@Z 1004f700 f   vgui:vgui.dll
 0001:0004e706       ?internalKeyReleased@Panel@vgui@@MAEXW4KeyCode@2@@Z 1004f706 f   vgui:vgui.dll
 0001:0004e70c       ?internalKeyFocusTicked@Panel@vgui@@MAEXXZ 1004f70c f   vgui:vgui.dll
 0001:0004e712       ?internalFocusChanged@Panel@vgui@@MAEX_N@Z 1004f712 f   vgui:vgui.dll
 0001:0004e718       ?internalSetCursor@Panel@vgui@@MAEXXZ 1004f718 f   vgui:vgui.dll
 0001:0004e71e       ?init@Label@vgui@@AAEXHPBD_N@Z 1004f71e f   vgui:vgui.dll
 0001:0004e724       ??0Panel@vgui@@QAE@HHHH@Z  1004f724 f   vgui:vgui.dll
 0001:0004e72a       ?createPropertyPanel@Label@vgui@@UAEPAVPanel@2@XZ 1004f72a f   vgui:vgui.dll
 0001:0004e730       ?setFgColor@Label@vgui@@UAEXHHHH@Z 1004f730 f   vgui:vgui.dll
 0001:0004e736       ?setFgColor@Label@vgui@@UAEXW4SchemeColor@Scheme@2@@Z 1004f736 f   vgui:vgui.dll
 0001:0004e73c       ?paint@Label@vgui@@MAEXXZ  1004f73c f   vgui:vgui.dll
 0001:0004e742       ?setImage@Label@vgui@@UAEXPAVImage@2@@Z 1004f742 f   vgui:vgui.dll
 0001:0004e748       ?setText@Label@vgui@@UAAXPBDZZ 1004f748 f   vgui:vgui.dll
 0001:0004e74e       ?setText@Label@vgui@@UAEXHPBD@Z 1004f74e f   vgui:vgui.dll
 0001:0004e754       ?setFont@Label@vgui@@UAEXPAVFont@2@@Z 1004f754 f   vgui:vgui.dll
 0001:0004e75a       ?setFont@Label@vgui@@UAEXW4SchemeFont@Scheme@2@@Z 1004f75a f   vgui:vgui.dll
 0001:0004e760       ?getTextSize@Label@vgui@@UAEXAAH0@Z 1004f760 f   vgui:vgui.dll
 0001:0004e766       ?getContentSize@Label@vgui@@UAEXAAH0@Z 1004f766 f   vgui:vgui.dll
 0001:0004e76c       ?setTextAlignment@Label@vgui@@UAEXW4Alignment@12@@Z 1004f76c f   vgui:vgui.dll
 0001:0004e772       ?setContentAlignment@Label@vgui@@UAEXW4Alignment@12@@Z 1004f772 f   vgui:vgui.dll
 0001:0004e778       ?setContentFitted@Label@vgui@@UAEX_N@Z 1004f778 f   vgui:vgui.dll
 0001:0004e77e       ?computeAlignment@Label@vgui@@MAEXAAH00000000000@Z 1004f77e f   vgui:vgui.dll
 0001:0004e784       ?recomputeMinimumSize@Label@vgui@@MAEXXZ 1004f784 f   vgui:vgui.dll
 0001:0004e78a       ?setPos@Image@vgui@@UAEXHH@Z 1004f78a f   vgui:vgui.dll
 0001:0004e790       ?getPos@Image@vgui@@UAEXAAH0@Z 1004f790 f   vgui:vgui.dll
 0001:0004e796       ?getSize@Image@vgui@@UAEXAAH0@Z 1004f796 f   vgui:vgui.dll
 0001:0004e79c       ?setColor@Image@vgui@@UAEXVColor@2@@Z 1004f79c f   vgui:vgui.dll
 0001:0004e7a2       ?getColor@Image@vgui@@UAEXAAVColor@2@@Z 1004f7a2 f   vgui:vgui.dll
 0001:0004e7a8       ?setSize@Image@vgui@@MAEXHH@Z 1004f7a8 f   vgui:vgui.dll
 0001:0004e7ae       ?drawSetColor@Image@vgui@@MAEXHHHH@Z 1004f7ae f   vgui:vgui.dll
 0001:0004e7b4       ?drawSetColor@Image@vgui@@MAEXW4SchemeColor@Scheme@2@@Z 1004f7b4 f   vgui:vgui.dll
 0001:0004e7ba       ?drawFilledRect@Image@vgui@@MAEXHHHH@Z 1004f7ba f   vgui:vgui.dll
 0001:0004e7c0       ?drawOutlinedRect@Image@vgui@@MAEXHHHH@Z 1004f7c0 f   vgui:vgui.dll
 0001:0004e7c6       ?drawSetTextFont@Image@vgui@@MAEXPAVFont@2@@Z 1004f7c6 f   vgui:vgui.dll
 0001:0004e7cc       ?drawSetTextFont@Image@vgui@@MAEXW4SchemeFont@Scheme@2@@Z 1004f7cc f   vgui:vgui.dll
 0001:0004e7d2       ?drawSetTextColor@Image@vgui@@MAEXHHHH@Z 1004f7d2 f   vgui:vgui.dll
 0001:0004e7d8       ?drawSetTextColor@Image@vgui@@MAEXW4SchemeColor@Scheme@2@@Z 1004f7d8 f   vgui:vgui.dll
 0001:0004e7de       ?drawSetTextPos@Image@vgui@@MAEXHH@Z 1004f7de f   vgui:vgui.dll
 0001:0004e7e4       ?drawPrintText@Image@vgui@@MAEXHHPBDH@Z 1004f7e4 f   vgui:vgui.dll
 0001:0004e7ea       ?drawPrintText@Image@vgui@@MAEXPBDH@Z 1004f7ea f   vgui:vgui.dll
 0001:0004e7f0       ?drawPrintChar@Image@vgui@@MAEXHHD@Z 1004f7f0 f   vgui:vgui.dll
 0001:0004e7f6       ?drawPrintChar@Image@vgui@@MAEXD@Z 1004f7f6 f   vgui:vgui.dll
 0001:0004e7fc       ?drawSetTextureRGBA@Image@vgui@@MAEXHPBDHH@Z 1004f7fc f   vgui:vgui.dll
 0001:0004e802       ?drawSetTexture@Image@vgui@@MAEXH@Z 1004f802 f   vgui:vgui.dll
 0001:0004e808       ?drawTexturedRect@Image@vgui@@MAEXHHHH@Z 1004f808 f   vgui:vgui.dll
 0001:0004e80e       ?paint@Image@vgui@@MAEXPAVPanel@2@@Z 1004f80e f   vgui:vgui.dll
 0001:0004e814       ?doPaint@Image@vgui@@UAEXPAVPanel@2@@Z 1004f814 f   vgui:vgui.dll
 0001:0004e81a       ?drawFilledRect@Border@vgui@@MAEXHHHH@Z 1004f81a f   vgui:vgui.dll
 0001:0004e820       ?drawOutlinedRect@Border@vgui@@MAEXHHHH@Z 1004f820 f   vgui:vgui.dll
 0001:0004e826       ?drawSetTextPos@Border@vgui@@MAEXHH@Z 1004f826 f   vgui:vgui.dll
 0001:0004e82c       ?drawPrintText@Border@vgui@@MAEXHHPBDH@Z 1004f82c f   vgui:vgui.dll
 0001:0004e832       ?drawPrintChar@Border@vgui@@MAEXHHD@Z 1004f832 f   vgui:vgui.dll
 0001:0004e838       ?setInset@Border@vgui@@UAEXHHHH@Z 1004f838 f   vgui:vgui.dll
 0001:0004e83e       ?getInset@Border@vgui@@UAEXAAH000@Z 1004f83e f   vgui:vgui.dll
 0001:0004e844       ??0Color@vgui@@QAE@HHHH@Z  1004f844 f   vgui:vgui.dll
 0001:0004e84a       ?paint@LineBorder@vgui@@MAEXPAVPanel@2@@Z 1004f84a f   vgui:vgui.dll
 0001:0004e850       ?init@LineBorder@vgui@@EAEXHVColor@2@@Z 1004f850 f   vgui:vgui.dll
 0001:0004e856       ??0Panel@vgui@@QAE@XZ      1004f856 f   vgui:vgui.dll
 0001:0004e85c       ?paintBackground@ImagePanel@vgui@@MAEXXZ 1004f85c f   vgui:vgui.dll
 0001:0004e862       ?setImage@ImagePanel@vgui@@UAEXPAVImage@2@@Z 1004f862 f   vgui:vgui.dll
 0001:0004e868       ?setSize@Bitmap@vgui@@MAEXHH@Z 1004f868 f   vgui:vgui.dll
 0001:0004e86e       ?paint@Bitmap@vgui@@UAEXPAVPanel@2@@Z 1004f86e f   vgui:vgui.dll
 0001:0004e874       ?setRGBA@Bitmap@vgui@@MAEXHHEEEE@Z 1004f874 f   vgui:vgui.dll
 0001:0004e87a       ?loadTGA@BitmapTGA@vgui@@EAE_NPAVInputStream@2@_N@Z 1004f87a f   vgui:vgui.dll
 0001:0004e880       ?createPropertyPanel@Button@vgui@@UAEPAVPanel@2@XZ 1004f880 f   vgui:vgui.dll
 0001:0004e886       ?paintBackground@Button@vgui@@MAEXXZ 1004f886 f   vgui:vgui.dll
 0001:0004e88c       ?setSelected@Button@vgui@@UAEX_N@Z 1004f88c f   vgui:vgui.dll
 0001:0004e892       ?setSelectedDirect@Button@vgui@@UAEX_N@Z 1004f892 f   vgui:vgui.dll
 0001:0004e898       ?setArmed@Button@vgui@@UAEX_N@Z 1004f898 f   vgui:vgui.dll
 0001:0004e89e       ?isSelected@Button@vgui@@UAE_NXZ 1004f89e f   vgui:vgui.dll
 0001:0004e8a4       ?doClick@Button@vgui@@UAEXXZ 1004f8a4 f   vgui:vgui.dll
 0001:0004e8aa       ?addActionSignal@Button@vgui@@UAEXPAVActionSignal@2@@Z 1004f8aa f   vgui:vgui.dll
 0001:0004e8b0       ?setButtonGroup@Button@vgui@@UAEXPAVButtonGroup@2@@Z 1004f8b0 f   vgui:vgui.dll
 0001:0004e8b6       ?isArmed@Button@vgui@@UAE_NXZ 1004f8b6 f   vgui:vgui.dll
 0001:0004e8bc       ?setButtonBorderEnabled@Button@vgui@@UAEX_N@Z 1004f8bc f   vgui:vgui.dll
 0001:0004e8c2       ?setMouseClickEnabled@Button@vgui@@UAEXW4MouseCode@2@_N@Z 1004f8c2 f   vgui:vgui.dll
 0001:0004e8c8       ?isMouseClickEnabled@Button@vgui@@UAE_NW4MouseCode@2@@Z 1004f8c8 f   vgui:vgui.dll
 0001:0004e8ce       ?fireActionSignal@Button@vgui@@UAEXXZ 1004f8ce f   vgui:vgui.dll
 0001:0004e8d4       ?setButtonController@Button@vgui@@MAEXPAVButtonController@2@@Z 1004f8d4 f   vgui:vgui.dll
 0001:0004e8da       ?setSize@Frame@vgui@@UAEXHH@Z 1004f8da f   vgui:vgui.dll
 0001:0004e8e0       ?setVisible@Frame@vgui@@UAEX_N@Z 1004f8e0 f   vgui:vgui.dll
 0001:0004e8e6       ?paintBackground@Frame@vgui@@UAEXXZ 1004f8e6 f   vgui:vgui.dll
 0001:0004e8ec       ?setInternal@Frame@vgui@@UAEX_N@Z 1004f8ec f   vgui:vgui.dll
 0001:0004e8f2       ?isInternal@Frame@vgui@@UAE_NXZ 1004f8f2 f   vgui:vgui.dll
 0001:0004e8f8       ?getClient@Frame@vgui@@UAEPAVPanel@2@XZ 1004f8f8 f   vgui:vgui.dll
 0001:0004e8fe       ?setTitle@Frame@vgui@@UAEXPBD@Z 1004f8fe f   vgui:vgui.dll
 0001:0004e904       ?getTitle@Frame@vgui@@UAEXPADH@Z 1004f904 f   vgui:vgui.dll
 0001:0004e90a       ?setMoveable@Frame@vgui@@UAEX_N@Z 1004f90a f   vgui:vgui.dll
 0001:0004e910       ?setSizeable@Frame@vgui@@UAEX_N@Z 1004f910 f   vgui:vgui.dll
 0001:0004e916       ?isMoveable@Frame@vgui@@UAE_NXZ 1004f916 f   vgui:vgui.dll
 0001:0004e91c       ?isSizeable@Frame@vgui@@UAE_NXZ 1004f91c f   vgui:vgui.dll
 0001:0004e922       ?addFrameSignal@Frame@vgui@@UAEXPAVFrameSignal@2@@Z 1004f922 f   vgui:vgui.dll
 0001:0004e928       ?setMenuButtonVisible@Frame@vgui@@UAEX_N@Z 1004f928 f   vgui:vgui.dll
 0001:0004e92e       ?setTrayButtonVisible@Frame@vgui@@UAEX_N@Z 1004f92e f   vgui:vgui.dll
 0001:0004e934       ?setMinimizeButtonVisible@Frame@vgui@@UAEX_N@Z 1004f934 f   vgui:vgui.dll
 0001:0004e93a       ?setMaximizeButtonVisible@Frame@vgui@@UAEX_N@Z 1004f93a f   vgui:vgui.dll
 0001:0004e940       ?setCloseButtonVisible@Frame@vgui@@UAEX_N@Z 1004f940 f   vgui:vgui.dll
 0001:0004e946       ?fireClosingSignal@Frame@vgui@@UAEXXZ 1004f946 f   vgui:vgui.dll
 0001:0004e94c       ?fireMinimizingSignal@Frame@vgui@@UAEXXZ 1004f94c f   vgui:vgui.dll
 0001:0004e952       ?setSize@TextPanel@vgui@@UAEXHH@Z 1004f952 f   vgui:vgui.dll
 0001:0004e958       ?setFgColor@TextPanel@vgui@@UAEXHHHH@Z 1004f958 f   vgui:vgui.dll
 0001:0004e95e       ?setFgColor@TextPanel@vgui@@UAEXW4SchemeColor@Scheme@2@@Z 1004f95e f   vgui:vgui.dll
 0001:0004e964       ?paint@TextPanel@vgui@@MAEXXZ 1004f964 f   vgui:vgui.dll
 0001:0004e96a       ?setText@TextPanel@vgui@@UAEXPBD@Z 1004f96a f   vgui:vgui.dll
 0001:0004e970       ?setFont@TextPanel@vgui@@UAEXPAVFont@2@@Z 1004f970 f   vgui:vgui.dll
 0001:0004e976       ?setFont@TextPanel@vgui@@UAEXW4SchemeFont@Scheme@2@@Z 1004f976 f   vgui:vgui.dll
 0001:0004e97c       ?getTextImage@TextPanel@vgui@@UAEPAVTextImage@2@XZ 1004f97c f   vgui:vgui.dll
 0001:0004e982       ?seekStart@FileInputStream@vgui@@UAEXAA_N@Z 1004f982 f   vgui:vgui.dll
 0001:0004e988       ?seekRelative@FileInputStream@vgui@@UAEXHAA_N@Z 1004f988 f   vgui:vgui.dll
 0001:0004e98e       ?seekEnd@FileInputStream@vgui@@UAEXAA_N@Z 1004f98e f   vgui:vgui.dll
 0001:0004e994       ?getAvailable@FileInputStream@vgui@@UAEHAA_N@Z 1004f994 f   vgui:vgui.dll
 0001:0004e99a       ?readUChar@FileInputStream@vgui@@UAEXPAEHAA_N@Z 1004f99a f   vgui:vgui.dll
 0001:0004e9a0       ?readUChar@FileInputStream@vgui@@UAEEAA_N@Z 1004f9a0 f   vgui:vgui.dll
 0001:0004e9a6       ?close@FileInputStream@vgui@@UAEXAA_N@Z 1004f9a6 f   vgui:vgui.dll
 0001:0004e9ac       ?close@FileInputStream@vgui@@UAEXXZ 1004f9ac f   vgui:vgui.dll
 0001:0004e9b2       ?paintBackground@DesktopIcon@vgui@@MAEXXZ 1004f9b2 f   vgui:vgui.dll
 0001:0004e9b8       ?doActivate@DesktopIcon@vgui@@UAEXXZ 1004f9b8 f   vgui:vgui.dll
 0001:0004e9be       ?setImage@DesktopIcon@vgui@@UAEXPAVImage@2@@Z 1004f9be f   vgui:vgui.dll
 0001:0004e9c4       ?setDesktop@DesktopIcon@vgui@@UAEXPAVDesktop@2@@Z 1004f9c4 f   vgui:vgui.dll
 0001:0004e9ca       ?getMiniApp@DesktopIcon@vgui@@UAEPAVMiniApp@2@XZ 1004f9ca f   vgui:vgui.dll
 0001:0004e9d0       ?getHotspot@Cursor@vgui@@UAEXAAH0@Z 1004f9d0 f   vgui:vgui.dll
 0001:0004e9d6       ?privateInit@Cursor@vgui@@EAEXPAVBitmap@2@HH@Z 1004f9d6 f   vgui:vgui.dll
 0001:0004e9dc       ?getBitmap@Cursor@vgui@@UAEPAVBitmap@2@XZ 1004f9dc f   vgui:vgui.dll
 0001:0004e9e2       ?getDefaultCursor@Cursor@vgui@@UAE?AW4DefaultCursor@12@XZ 1004f9e2 f   vgui:vgui.dll
 0001:0004e9e8       ?start@App@vgui@@UAEXXZ    1004f9e8 f   vgui:vgui.dll
 0001:0004e9ee       ?stop@App@vgui@@UAEXXZ     1004f9ee f   vgui:vgui.dll
 0001:0004e9f4       ?externalTick@App@vgui@@UAEXXZ 1004f9f4 f   vgui:vgui.dll
 0001:0004e9fa       ?wasMousePressed@App@vgui@@UAE_NW4MouseCode@2@PAVPanel@2@@Z 1004f9fa f   vgui:vgui.dll
 0001:0004ea00       ?wasMouseDoublePressed@App@vgui@@UAE_NW4MouseCode@2@PAVPanel@2@@Z 1004fa00 f   vgui:vgui.dll
 0001:0004ea06       ?isMouseDown@App@vgui@@UAE_NW4MouseCode@2@PAVPanel@2@@Z 1004fa06 f   vgui:vgui.dll
 0001:0004ea0c       ?wasMouseReleased@App@vgui@@UAE_NW4MouseCode@2@PAVPanel@2@@Z 1004fa0c f   vgui:vgui.dll
 0001:0004ea12       ?wasKeyPressed@App@vgui@@UAE_NW4KeyCode@2@PAVPanel@2@@Z 1004fa12 f   vgui:vgui.dll
 0001:0004ea18       ?isKeyDown@App@vgui@@UAE_NW4KeyCode@2@PAVPanel@2@@Z 1004fa18 f   vgui:vgui.dll
 0001:0004ea1e       ?wasKeyTyped@App@vgui@@UAE_NW4KeyCode@2@PAVPanel@2@@Z 1004fa1e f   vgui:vgui.dll
 0001:0004ea24       ?wasKeyReleased@App@vgui@@UAE_NW4KeyCode@2@PAVPanel@2@@Z 1004fa24 f   vgui:vgui.dll
 0001:0004ea2a       ?addTickSignal@App@vgui@@UAEXPAVTickSignal@2@@Z 1004fa2a f   vgui:vgui.dll
 0001:0004ea30       ?setCursorPos@App@vgui@@UAEXHH@Z 1004fa30 f   vgui:vgui.dll
 0001:0004ea36       ?getCursorPos@App@vgui@@UAEXAAH0@Z 1004fa36 f   vgui:vgui.dll
 0001:0004ea3c       ?setMouseCapture@App@vgui@@UAEXPAVPanel@2@@Z 1004fa3c f   vgui:vgui.dll
 0001:0004ea42       ?setMouseArena@App@vgui@@UAEXPAVPanel@2@@Z 1004fa42 f   vgui:vgui.dll
 0001:0004ea48       ?setMouseArena@App@vgui@@UAEXHHHH_N@Z 1004fa48 f   vgui:vgui.dll
 0001:0004ea4e       ?requestFocus@App@vgui@@UAEXPAVPanel@2@@Z 1004fa4e f   vgui:vgui.dll
 0001:0004ea54       ?getFocus@App@vgui@@UAEPAVPanel@2@XZ 1004fa54 f   vgui:vgui.dll
 0001:0004ea5a       ?repaintAll@App@vgui@@UAEXXZ 1004fa5a f   vgui:vgui.dll
 0001:0004ea60       ?setScheme@App@vgui@@UAEXPAVScheme@2@@Z 1004fa60 f   vgui:vgui.dll
 0001:0004ea66       ?getScheme@App@vgui@@UAEPAVScheme@2@XZ 1004fa66 f   vgui:vgui.dll
 0001:0004ea6c       ?enableBuildMode@App@vgui@@UAEXXZ 1004fa6c f   vgui:vgui.dll
 0001:0004ea72       ?getTimeMillis@App@vgui@@UAEJXZ 1004fa72 f   vgui:vgui.dll
 0001:0004ea78       ?getKeyCodeChar@App@vgui@@UAEDW4KeyCode@2@_N@Z 1004fa78 f   vgui:vgui.dll
 0001:0004ea7e       ?getKeyCodeText@App@vgui@@UAEXW4KeyCode@2@PADH@Z 1004fa7e f   vgui:vgui.dll
 0001:0004ea84       ?getClipboardTextCount@App@vgui@@UAEHXZ 1004fa84 f   vgui:vgui.dll
 0001:0004ea8a       ?setClipboardText@App@vgui@@UAEXPBDH@Z 1004fa8a f   vgui:vgui.dll
 0001:0004ea90       ?getClipboardText@App@vgui@@UAEHHPADH@Z 1004fa90 f   vgui:vgui.dll
 0001:0004ea96       ?reset@App@vgui@@UAEXXZ    1004fa96 f   vgui:vgui.dll
 0001:0004ea9c       ?internalSetMouseArena@App@vgui@@UAEXHHHH_N@Z 1004fa9c f   vgui:vgui.dll
 0001:0004eaa2       ?setRegistryString@App@vgui@@UAE_NPBD0@Z 1004faa2 f   vgui:vgui.dll
 0001:0004eaa8       ?getRegistryString@App@vgui@@UAE_NPBDPADH@Z 1004faa8 f   vgui:vgui.dll
 0001:0004eaae       ?setRegistryInteger@App@vgui@@UAE_NPBDH@Z 1004faae f   vgui:vgui.dll
 0001:0004eab4       ?getRegistryInteger@App@vgui@@UAE_NPBDAAH@Z 1004fab4 f   vgui:vgui.dll
 0001:0004eaba       ?setCursorOveride@App@vgui@@UAEXPAVCursor@2@@Z 1004faba f   vgui:vgui.dll
 0001:0004eac0       ?getCursorOveride@App@vgui@@UAEPAVCursor@2@XZ 1004fac0 f   vgui:vgui.dll
 0001:0004eac6       ?setMinimumTickMillisInterval@App@vgui@@UAEXH@Z 1004fac6 f   vgui:vgui.dll
 0001:0004eacc       ?run@App@vgui@@UAEXXZ      1004facc f   vgui:vgui.dll
 0001:0004ead2       ?internalCursorMoved@App@vgui@@UAEXHHPAVSurfaceBase@2@@Z 1004fad2 f   vgui:vgui.dll
 0001:0004ead8       ?internalMousePressed@App@vgui@@UAEXW4MouseCode@2@PAVSurfaceBase@2@@Z 1004fad8 f   vgui:vgui.dll
 0001:0004eade       ?internalMouseDoublePressed@App@vgui@@UAEXW4MouseCode@2@PAVSurfaceBase@2@@Z 1004fade f   vgui:vgui.dll
 0001:0004eae4       ?internalMouseReleased@App@vgui@@UAEXW4MouseCode@2@PAVSurfaceBase@2@@Z 1004fae4 f   vgui:vgui.dll
 0001:0004eaea       ?internalMouseWheeled@App@vgui@@UAEXHPAVSurfaceBase@2@@Z 1004faea f   vgui:vgui.dll
 0001:0004eaf0       ?internalKeyPressed@App@vgui@@UAEXW4KeyCode@2@PAVSurfaceBase@2@@Z 1004faf0 f   vgui:vgui.dll
 0001:0004eaf6       ?internalKeyTyped@App@vgui@@UAEXW4KeyCode@2@PAVSurfaceBase@2@@Z 1004faf6 f   vgui:vgui.dll
 0001:0004eafc       ?internalKeyReleased@App@vgui@@UAEXW4KeyCode@2@PAVSurfaceBase@2@@Z 1004fafc f   vgui:vgui.dll
 0001:0004eb02       ?init@App@vgui@@EAEXXZ     1004fb02 f   vgui:vgui.dll
 0001:0004eb08       ?updateMouseFocus@App@vgui@@EAEXHHPAVSurfaceBase@2@@Z 1004fb08 f   vgui:vgui.dll
 0001:0004eb0e       ?setMouseFocus@App@vgui@@EAEXPAVPanel@2@@Z 1004fb0e f   vgui:vgui.dll
 0001:0004eb14       ?surfaceBaseCreated@App@vgui@@MAEXPAVSurfaceBase@2@@Z 1004fb14 f   vgui:vgui.dll
 0001:0004eb1a       ?surfaceBaseDeleted@App@vgui@@MAEXPAVSurfaceBase@2@@Z 1004fb1a f   vgui:vgui.dll
 0001:0004eb20       ?platTick@App@vgui@@MAEXXZ 1004fb20 f   vgui:vgui.dll
 0001:0004eb26       ?internalTick@App@vgui@@MAEXXZ 1004fb26 f   vgui:vgui.dll
 0001:0004eb2c       ?getName@MiniApp@vgui@@UAEXPADH@Z 1004fb2c f   vgui:vgui.dll
 0001:0004eb32       ?setName@MiniApp@vgui@@MAEXPBD@Z 1004fb32 f   vgui:vgui.dll
 0001:0004eb38       ?setSize@ScrollPanel@vgui@@MAEXHH@Z 1004fb38 f   vgui:vgui.dll
 0001:0004eb3e       ?setScrollBarVisible@ScrollPanel@vgui@@UAEX_N0@Z 1004fb3e f   vgui:vgui.dll
 0001:0004eb44       ?setScrollBarAutoVisible@ScrollPanel@vgui@@UAEX_N0@Z 1004fb44 f   vgui:vgui.dll
 0001:0004eb4a       ?getClient@ScrollPanel@vgui@@UAEPAVPanel@2@XZ 1004fb4a f   vgui:vgui.dll
 0001:0004eb50       ?getClientClip@ScrollPanel@vgui@@UAEPAVPanel@2@XZ 1004fb50 f   vgui:vgui.dll
 0001:0004eb56       ?setScrollValue@ScrollPanel@vgui@@UAEXHH@Z 1004fb56 f   vgui:vgui.dll
 0001:0004eb5c       ?getScrollValue@ScrollPanel@vgui@@UAEXAAH0@Z 1004fb5c f   vgui:vgui.dll
 0001:0004eb62       ?recomputeClientSize@ScrollPanel@vgui@@UAEXXZ 1004fb62 f   vgui:vgui.dll
 0001:0004eb68       ?getHorizontalScrollBar@ScrollPanel@vgui@@UAEPAVScrollBar@2@XZ 1004fb68 f   vgui:vgui.dll
 0001:0004eb6e       ?getVerticalScrollBar@ScrollPanel@vgui@@UAEPAVScrollBar@2@XZ 1004fb6e f   vgui:vgui.dll
 0001:0004eb74       ?validate@ScrollPanel@vgui@@UAEXXZ 1004fb74 f   vgui:vgui.dll
 0001:0004eb7a       ?recomputeScroll@ScrollPanel@vgui@@UAEXXZ 1004fb7a f   vgui:vgui.dll
 0001:0004eb80       ?setSize@ScrollBar@vgui@@UAEXHH@Z 1004fb80 f   vgui:vgui.dll
 0001:0004eb86       ?performLayout@ScrollBar@vgui@@MAEXXZ 1004fb86 f   vgui:vgui.dll
 0001:0004eb8c       ?setValue@ScrollBar@vgui@@UAEXH@Z 1004fb8c f   vgui:vgui.dll
 0001:0004eb92       ?getValue@ScrollBar@vgui@@UAEHXZ 1004fb92 f   vgui:vgui.dll
 0001:0004eb98       ?addIntChangeSignal@ScrollBar@vgui@@UAEXPAVIntChangeSignal@2@@Z 1004fb98 f   vgui:vgui.dll
 0001:0004eb9e       ?setRange@ScrollBar@vgui@@UAEXHH@Z 1004fb9e f   vgui:vgui.dll
 0001:0004eba4       ?setRangeWindow@ScrollBar@vgui@@UAEXH@Z 1004fba4 f   vgui:vgui.dll
 0001:0004ebaa       ?setRangeWindowEnabled@ScrollBar@vgui@@UAEX_N@Z 1004fbaa f   vgui:vgui.dll
 0001:0004ebb0       ?isVertical@ScrollBar@vgui@@UAE_NXZ 1004fbb0 f   vgui:vgui.dll
 0001:0004ebb6       ?hasFullRange@ScrollBar@vgui@@UAE_NXZ 1004fbb6 f   vgui:vgui.dll
 0001:0004ebbc       ?setButton@ScrollBar@vgui@@UAEXPAVButton@2@H@Z 1004fbbc f   vgui:vgui.dll
 0001:0004ebc2       ?getButton@ScrollBar@vgui@@UAEPAVButton@2@H@Z 1004fbc2 f   vgui:vgui.dll
 0001:0004ebc8       ?setSlider@ScrollBar@vgui@@UAEXPAVSlider@2@@Z 1004fbc8 f   vgui:vgui.dll
 0001:0004ebce       ?getSlider@ScrollBar@vgui@@UAEPAVSlider@2@XZ 1004fbce f   vgui:vgui.dll
 0001:0004ebd4       ?doButtonPressed@ScrollBar@vgui@@UAEXH@Z 1004fbd4 f   vgui:vgui.dll
 0001:0004ebda       ?setButtonPressedScrollValue@ScrollBar@vgui@@UAEXH@Z 1004fbda f   vgui:vgui.dll
 0001:0004ebe0       ?validate@ScrollBar@vgui@@UAEXXZ 1004fbe0 f   vgui:vgui.dll
 0001:0004ebe6       ?fireIntChangeSignal@ScrollBar@vgui@@UAEXXZ 1004fbe6 f   vgui:vgui.dll
 0001:0004ebec       ?setSize@Slider@vgui@@UAEXHH@Z 1004fbec f   vgui:vgui.dll
 0001:0004ebf2       ?paintBackground@Slider@vgui@@MAEXXZ 1004fbf2 f   vgui:vgui.dll
 0001:0004ebf8       ?setValue@Slider@vgui@@UAEXH@Z 1004fbf8 f   vgui:vgui.dll
 0001:0004ebfe       ?getValue@Slider@vgui@@UAEHXZ 1004fbfe f   vgui:vgui.dll
 0001:0004ec04       ?isVertical@Slider@vgui@@UAE_NXZ 1004fc04 f   vgui:vgui.dll
 0001:0004ec0a       ?addIntChangeSignal@Slider@vgui@@UAEXPAVIntChangeSignal@2@@Z 1004fc0a f   vgui:vgui.dll
 0001:0004ec10       ?setRange@Slider@vgui@@UAEXHH@Z 1004fc10 f   vgui:vgui.dll
 0001:0004ec16       ?getRange@Slider@vgui@@UAEXAAH0@Z 1004fc16 f   vgui:vgui.dll
 0001:0004ec1c       ?setRangeWindow@Slider@vgui@@UAEXH@Z 1004fc1c f   vgui:vgui.dll
 0001:0004ec22       ?setRangeWindowEnabled@Slider@vgui@@UAEX_N@Z 1004fc22 f   vgui:vgui.dll
 0001:0004ec28       ?getNobPos@Slider@vgui@@UAEXAAH0@Z 1004fc28 f   vgui:vgui.dll
 0001:0004ec2e       ?hasFullRange@Slider@vgui@@UAE_NXZ 1004fc2e f   vgui:vgui.dll
 0001:0004ec34       ?setButtonOffset@Slider@vgui@@UAEXH@Z 1004fc34 f   vgui:vgui.dll
 0001:0004ec3a       ?recomputeNobPosFromValue@Slider@vgui@@EAEXXZ 1004fc3a f   vgui:vgui.dll
 0001:0004ec40       ?recomputeValueFromNobPos@Slider@vgui@@EAEXXZ 1004fc40 f   vgui:vgui.dll
 0001:0004ec46       ?privateCursorMoved@Slider@vgui@@UAEXHHPAVPanel@2@@Z 1004fc46 f   vgui:vgui.dll
 0001:0004ec4c       ?privateMousePressed@Slider@vgui@@UAEXW4MouseCode@2@PAVPanel@2@@Z 1004fc4c f   vgui:vgui.dll
 0001:0004ec52       ?privateMouseReleased@Slider@vgui@@UAEXW4MouseCode@2@PAVPanel@2@@Z 1004fc52 f   vgui:vgui.dll
 0001:0004ec58       ?fireIntChangeSignal@Slider@vgui@@MAEXXZ 1004fc58 f   vgui:vgui.dll
 0001:0004ec5e       ?init@Font@vgui@@EAEXPBDPAXHHHMH_N222@Z 1004fc5e f   vgui:vgui.dll
 0001:0004ec64       ?getCharRGBA@Font@vgui@@UAEXHHHHHPAE@Z 1004fc64 f   vgui:vgui.dll
 0001:0004ec6a       ?getCharABCwide@Font@vgui@@UAEXHAAH00@Z 1004fc6a f   vgui:vgui.dll
 0001:0004ec70       ?getTextSize@Font@vgui@@UAEXPBDAAH1@Z 1004fc70 f   vgui:vgui.dll
 0001:0004ec76       ?getTall@Font@vgui@@UAEHXZ 1004fc76 f   vgui:vgui.dll
 0001:0004ec7c       ?getId@Font@vgui@@UAEHXZ   1004fc7c f   vgui:vgui.dll
 0001:0004ec82       ?isWithinTraverse@TablePanel@vgui@@MAEPAVPanel@2@HH@Z 1004fc82 f   vgui:vgui.dll
 0001:0004ec88       ?getVirtualSize@TablePanel@vgui@@UAEXAAH0@Z 1004fc88 f   vgui:vgui.dll
 0001:0004ec8e       ?paint@TablePanel@vgui@@MAEXXZ 1004fc8e f   vgui:vgui.dll
 0001:0004ec94       ?setCellEditingEnabled@TablePanel@vgui@@UAEX_N@Z 1004fc94 f   vgui:vgui.dll
 0001:0004ec9a       ?setColumnCount@TablePanel@vgui@@UAEXH@Z 1004fc9a f   vgui:vgui.dll
 0001:0004eca0       ?setGridVisible@TablePanel@vgui@@UAEX_N0@Z 1004fca0 f   vgui:vgui.dll
 0001:0004eca6       ?setGridSize@TablePanel@vgui@@UAEXHH@Z 1004fca6 f   vgui:vgui.dll
 0001:0004ecac       ?getColumnCount@TablePanel@vgui@@UAEHXZ 1004fcac f   vgui:vgui.dll
 0001:0004ecb2       ?setColumnExtents@TablePanel@vgui@@UAEXHHH@Z 1004fcb2 f   vgui:vgui.dll
 0001:0004ecb8       ?setSelectedCell@TablePanel@vgui@@UAEXHH@Z 1004fcb8 f   vgui:vgui.dll
 0001:0004ecbe       ?getSelectedCell@TablePanel@vgui@@UAEXAAH0@Z 1004fcbe f   vgui:vgui.dll
 0001:0004ecc4       ?setHeaderPanel@TablePanel@vgui@@UAEXPAVHeaderPanel@2@@Z 1004fcc4 f   vgui:vgui.dll
 0001:0004ecca       ?setColumnSelectionEnabled@TablePanel@vgui@@UAEX_N@Z 1004fcca f   vgui:vgui.dll
 0001:0004ecd0       ?setRowSelectionEnabled@TablePanel@vgui@@UAEX_N@Z 1004fcd0 f   vgui:vgui.dll
 0001:0004ecd6       ?setCellSectionEnabled@TablePanel@vgui@@UAEX_N@Z 1004fcd6 f   vgui:vgui.dll
 0001:0004ecdc       ?setEditableCell@TablePanel@vgui@@UAEXHH@Z 1004fcdc f   vgui:vgui.dll
 0001:0004ece2       ?stopCellEditing@TablePanel@vgui@@UAEXXZ 1004fce2 f   vgui:vgui.dll
 0001:0004ece8       ?privateMousePressed@TablePanel@vgui@@EAEXW4MouseCode@2@PAVPanel@2@@Z 1004fce8 f   vgui:vgui.dll
 0001:0004ecee       ?privateMouseDoublePressed@TablePanel@vgui@@EAEXW4MouseCode@2@PAVPanel@2@@Z 1004fcee f   vgui:vgui.dll
 0001:0004ecf4       ?privateKeyTyped@TablePanel@vgui@@EAEXW4KeyCode@2@PAVPanel@2@@Z 1004fcf4 f   vgui:vgui.dll
 0001:0004ecfa       ?performLayout@HeaderPanel@vgui@@MAEXXZ 1004fcfa f   vgui:vgui.dll
 0001:0004ed00       ?addSectionPanel@HeaderPanel@vgui@@UAEXPAVPanel@2@@Z 1004fd00 f   vgui:vgui.dll
 0001:0004ed06       ?setSliderPos@HeaderPanel@vgui@@UAEXHH@Z 1004fd06 f   vgui:vgui.dll
 0001:0004ed0c       ?getSectionCount@HeaderPanel@vgui@@UAEHXZ 1004fd0c f   vgui:vgui.dll
 0001:0004ed12       ?getSectionExtents@HeaderPanel@vgui@@UAEXHAAH0@Z 1004fd12 f   vgui:vgui.dll
 0001:0004ed18       ?addChangeSignal@HeaderPanel@vgui@@UAEXPAVChangeSignal@2@@Z 1004fd18 f   vgui:vgui.dll
 0001:0004ed1e       ?fireChangeSignal@HeaderPanel@vgui@@UAEXXZ 1004fd1e f   vgui:vgui.dll
 0001:0004ed24       ?privateCursorMoved@HeaderPanel@vgui@@UAEXHHPAVPanel@2@@Z 1004fd24 f   vgui:vgui.dll
 0001:0004ed2a       ?privateMousePressed@HeaderPanel@vgui@@UAEXW4MouseCode@2@PAVPanel@2@@Z 1004fd2a f   vgui:vgui.dll
 0001:0004ed30       ?privateMouseReleased@HeaderPanel@vgui@@UAEXW4MouseCode@2@PAVPanel@2@@Z 1004fd30 f   vgui:vgui.dll
 0001:0004ed36       ?paintBackground@TextGrid@vgui@@MAEXXZ 1004fd36 f   vgui:vgui.dll
 0001:0004ed3c       ?setGridSize@TextGrid@vgui@@UAEXHH@Z 1004fd3c f   vgui:vgui.dll
 0001:0004ed42       ?newLine@TextGrid@vgui@@UAEXXZ 1004fd42 f   vgui:vgui.dll
 0001:0004ed48       ?setXY@TextGrid@vgui@@UAEXHH@Z 1004fd48 f   vgui:vgui.dll
 0001:0004ed4e       ?vprintf@TextGrid@vgui@@UAEHPBDPAD@Z 1004fd4e f   vgui:vgui.dll
 0001:0004ed54       ?printf@TextGrid@vgui@@UAAHPBDZZ 1004fd54 f   vgui:vgui.dll
 0001:0004ed5a       ?setSize@TextImage@vgui@@UAEXHH@Z 1004fd5a f   vgui:vgui.dll
 0001:0004ed60       ?paint@TextImage@vgui@@MAEXPAVPanel@2@@Z 1004fd60 f   vgui:vgui.dll
 0001:0004ed66       ?init@TextImage@vgui@@EAEXHPBD@Z 1004fd66 f   vgui:vgui.dll
 0001:0004ed6c       ?getTextSize@TextImage@vgui@@UAEXAAH0@Z 1004fd6c f   vgui:vgui.dll
 0001:0004ed72       ?getTextSizeWrapped@TextImage@vgui@@UAEXAAH0@Z 1004fd72 f   vgui:vgui.dll
 0001:0004ed78       ?getFont@TextImage@vgui@@UAEPAVFont@2@XZ 1004fd78 f   vgui:vgui.dll
 0001:0004ed7e       ?setText@TextImage@vgui@@UAEXPBD@Z 1004fd7e f   vgui:vgui.dll
 0001:0004ed84       ?setText@TextImage@vgui@@UAEXHPBD@Z 1004fd84 f   vgui:vgui.dll
 0001:0004ed8a       ?setFont@TextImage@vgui@@UAEXPAVFont@2@@Z 1004fd8a f   vgui:vgui.dll
 0001:0004ed90       ?setFont@TextImage@vgui@@UAEXW4SchemeFont@Scheme@2@@Z 1004fd90 f   vgui:vgui.dll
 0001:0004ed96       ??0ImagePanel@vgui@@QAE@PAVImage@1@@Z 1004fd96 f   vgui:vgui.dll
 0001:0004ed9c       ??0Label@vgui@@QAE@PBD@Z   1004fd9c f   vgui:vgui.dll
 0001:0004eda2       ??0TextPanel@vgui@@QAE@PBDHHHH@Z 1004fda2 f   vgui:vgui.dll
 0001:0004eda8       ??0LineBorder@vgui@@QAE@VColor@1@@Z 1004fda8 f   vgui:vgui.dll
 0001:0004edae       ??0Label@vgui@@QAE@PBDHH@Z 1004fdae f   vgui:vgui.dll
 0001:0004edb4       ?paintBackground@TextEntry@vgui@@MAEXXZ 1004fdb4 f   vgui:vgui.dll
 0001:0004edba       ?setText@TextEntry@vgui@@UAEXPBDH@Z 1004fdba f   vgui:vgui.dll
 0001:0004edc0       ?getText@TextEntry@vgui@@UAEXHPADH@Z 1004fdc0 f   vgui:vgui.dll
 0001:0004edc6       ?resetCursorBlink@TextEntry@vgui@@UAEXXZ 1004fdc6 f   vgui:vgui.dll
 0001:0004edcc       ?doGotoLeft@TextEntry@vgui@@UAEXXZ 1004fdcc f   vgui:vgui.dll
 0001:0004edd2       ?doGotoRight@TextEntry@vgui@@UAEXXZ 1004fdd2 f   vgui:vgui.dll
 0001:0004edd8       ?doGotoFirstOfLine@TextEntry@vgui@@UAEXXZ 1004fdd8 f   vgui:vgui.dll
 0001:0004edde       ?doGotoEndOfLine@TextEntry@vgui@@UAEXXZ 1004fdde f   vgui:vgui.dll
 0001:0004ede4       ?doInsertChar@TextEntry@vgui@@UAEXD@Z 1004fde4 f   vgui:vgui.dll
 0001:0004edea       ?doBackspace@TextEntry@vgui@@UAEXXZ 1004fdea f   vgui:vgui.dll
 0001:0004edf0       ?doDelete@TextEntry@vgui@@UAEXXZ 1004fdf0 f   vgui:vgui.dll
 0001:0004edf6       ?doSelectNone@TextEntry@vgui@@UAEXXZ 1004fdf6 f   vgui:vgui.dll
 0001:0004edfc       ?doCopySelected@TextEntry@vgui@@UAEXXZ 1004fdfc f   vgui:vgui.dll
 0001:0004ee02       ?doPaste@TextEntry@vgui@@UAEXXZ 1004fe02 f   vgui:vgui.dll
 0001:0004ee08       ?doPasteSelected@TextEntry@vgui@@UAEXXZ 1004fe08 f   vgui:vgui.dll
 0001:0004ee0e       ?doDeleteSelected@TextEntry@vgui@@UAEXXZ 1004fe0e f   vgui:vgui.dll
 0001:0004ee14       ?addActionSignal@TextEntry@vgui@@UAEXPAVActionSignal@2@@Z 1004fe14 f   vgui:vgui.dll
 0001:0004ee1a       ?setFont@TextEntry@vgui@@UAEXPAVFont@2@@Z 1004fe1a f   vgui:vgui.dll
 0001:0004ee20       ?setTextHidden@TextEntry@vgui@@UAEX_N@Z 1004fe20 f   vgui:vgui.dll
 0001:0004ee26       ?setCharAt@TextEntry@vgui@@MAEXDH@Z 1004fe26 f   vgui:vgui.dll
 0001:0004ee2c       ?fireActionSignal@TextEntry@vgui@@MAEXXZ 1004fe2c f   vgui:vgui.dll
 0001:0004ee32       ?getSelectedRange@TextEntry@vgui@@MAE_NAAH0@Z 1004fe32 f   vgui:vgui.dll
 0001:0004ee38       ?getSelectedPixelRange@TextEntry@vgui@@MAE_NAAH0@Z 1004fe38 f   vgui:vgui.dll
 0001:0004ee3e       ?cursorToPixelSpace@TextEntry@vgui@@MAEHH@Z 1004fe3e f   vgui:vgui.dll
 0001:0004ee44       ?selectCheck@TextEntry@vgui@@MAEXXZ 1004fe44 f   vgui:vgui.dll
 0001:0004ee4a       ?cursorMoved@TextEntry@vgui@@MAEXHHPAVPanel@2@@Z 1004fe4a f   vgui:vgui.dll
 0001:0004ee50       ?cursorEntered@TextEntry@vgui@@MAEXPAVPanel@2@@Z 1004fe50 f   vgui:vgui.dll
 0001:0004ee56       ?cursorExited@TextEntry@vgui@@MAEXPAVPanel@2@@Z 1004fe56 f   vgui:vgui.dll
 0001:0004ee5c       ?mousePressed@TextEntry@vgui@@MAEXW4MouseCode@2@PAVPanel@2@@Z 1004fe5c f   vgui:vgui.dll
 0001:0004ee62       ?mouseDoublePressed@TextEntry@vgui@@MAEXW4MouseCode@2@PAVPanel@2@@Z 1004fe62 f   vgui:vgui.dll
 0001:0004ee68       ?mouseReleased@TextEntry@vgui@@MAEXW4MouseCode@2@PAVPanel@2@@Z 1004fe68 f   vgui:vgui.dll
 0001:0004ee6e       ?mouseWheeled@TextEntry@vgui@@MAEXHPAVPanel@2@@Z 1004fe6e f   vgui:vgui.dll
 0001:0004ee74       ?keyPressed@TextEntry@vgui@@MAEXW4KeyCode@2@PAVPanel@2@@Z 1004fe74 f   vgui:vgui.dll
 0001:0004ee7a       ?keyTyped@TextEntry@vgui@@MAEXW4KeyCode@2@PAVPanel@2@@Z 1004fe7a f   vgui:vgui.dll
 0001:0004ee80       ?keyReleased@TextEntry@vgui@@MAEXW4KeyCode@2@PAVPanel@2@@Z 1004fe80 f   vgui:vgui.dll
 0001:0004ee86       ?keyFocusTicked@TextEntry@vgui@@MAEXPAVPanel@2@@Z 1004fe86 f   vgui:vgui.dll
 0001:0004ee8c       ?paint@EtchedBorder@vgui@@MAEXPAVPanel@2@@Z 1004fe8c f   vgui:vgui.dll
 0001:0004ee92       ?paint@LoweredBorder@vgui@@MAEXPAVPanel@2@@Z 1004fe92 f   vgui:vgui.dll
 0001:0004ee98       ?close@DataInputStream@vgui@@UAEXXZ 1004fe98 f   vgui:vgui.dll
 0001:0004ee9e       ?readBool@DataInputStream@vgui@@UAE_NAA_N@Z 1004fe9e f   vgui:vgui.dll
 0001:0004eea4       ?readChar@DataInputStream@vgui@@UAEDAA_N@Z 1004fea4 f   vgui:vgui.dll
 0001:0004eeaa       ?readShort@DataInputStream@vgui@@UAEFAA_N@Z 1004feaa f   vgui:vgui.dll
 0001:0004eeb0       ?readUShort@DataInputStream@vgui@@UAEGAA_N@Z 1004feb0 f   vgui:vgui.dll
 0001:0004eeb6       ?readInt@DataInputStream@vgui@@UAEHAA_N@Z 1004feb6 f   vgui:vgui.dll
 0001:0004eebc       ?readUInt@DataInputStream@vgui@@UAEIAA_N@Z 1004febc f   vgui:vgui.dll
 0001:0004eec2       ?readLong@DataInputStream@vgui@@UAEJAA_N@Z 1004fec2 f   vgui:vgui.dll
 0001:0004eec8       ?readULong@DataInputStream@vgui@@UAEKAA_N@Z 1004fec8 f   vgui:vgui.dll
 0001:0004eece       ?readFloat@DataInputStream@vgui@@UAEMAA_N@Z 1004fece f   vgui:vgui.dll
 0001:0004eed4       ?readDouble@DataInputStream@vgui@@UAENAA_N@Z 1004fed4 f   vgui:vgui.dll
 0001:0004eeda       ?readLine@DataInputStream@vgui@@UAEXPADHAA_N@Z 1004feda f   vgui:vgui.dll
 0001:0004eee0       ??0Label@vgui@@QAE@PBDHHHH@Z 1004fee0 f   vgui:vgui.dll
 0001:0004eee6       ??0TablePanel@vgui@@QAE@HHHHH@Z 1004fee6 f   vgui:vgui.dll
 0001:0004eeec       ?close@DataInputStream@vgui@@UAEXAA_N@Z 1004feec f   vgui:vgui.dll
 0001:0004eef2       ?seekEnd@DataInputStream@vgui@@UAEXAA_N@Z 1004fef2 f   vgui:vgui.dll
 0001:0004eef8       ?seekRelative@DataInputStream@vgui@@UAEXHAA_N@Z 1004fef8 f   vgui:vgui.dll
 0001:0004eefe       ?readUChar@DataInputStream@vgui@@UAEEAA_N@Z 1004fefe f   vgui:vgui.dll
 0001:0004ef04       ?readUChar@DataInputStream@vgui@@UAEXPAEHAA_N@Z 1004ff04 f   vgui:vgui.dll
 0001:0004ef0a       ?getAvailable@DataInputStream@vgui@@UAEHAA_N@Z 1004ff0a f   vgui:vgui.dll
 0001:0004ef10       ?seekStart@DataInputStream@vgui@@UAEXAA_N@Z 1004ff10 f   vgui:vgui.dll
 0001:0004ef16       ??0ScrollPanel@vgui@@QAE@HHHH@Z 1004ff16 f   vgui:vgui.dll
 0001:0004ef1c       ??0HeaderPanel@vgui@@QAE@HHHH@Z 1004ff1c f   vgui:vgui.dll
 0001:0004ef22       ??0Slider@vgui@@QAE@HHHH_N@Z 1004ff22 f   vgui:vgui.dll
 0001:0004ef28       ??0BitmapTGA@vgui@@QAE@PAVInputStream@1@_N@Z 1004ff28 f   vgui:vgui.dll
 0001:0004ef2e       ??0FileInputStream@vgui@@QAE@PBD_N@Z 1004ff2e f   vgui:vgui.dll
 0001:0004ef34       ??0Button@vgui@@QAE@PBDHHHH@Z 1004ff34 f   vgui:vgui.dll
 0001:0004ef3a       ?performLayout@Layout@vgui@@UAEXPAVPanel@2@@Z 1004ff3a f   vgui:vgui.dll
 0001:0004ef40       ?performLayout@BorderLayout@vgui@@UAEXPAVPanel@2@@Z 1004ff40 f   vgui:vgui.dll
 0001:0004ef46       ?createLayoutInfo@BorderLayout@vgui@@UAEPAVLayoutInfo@2@W4Alignment@12@@Z 1004ff46 f   vgui:vgui.dll
 0001:0004ef4c       ?getPanel@SurfaceBase@vgui@@UAEPAVPanel@2@XZ 1004ff4c f   vgui:vgui.dll
 0001:0004ef52       ?requestSwap@SurfaceBase@vgui@@UAEXXZ 1004ff52 f   vgui:vgui.dll
 0001:0004ef58       ?resetModeInfo@SurfaceBase@vgui@@UAEXXZ 1004ff58 f   vgui:vgui.dll
 0001:0004ef5e       ?getModeInfoCount@SurfaceBase@vgui@@UAEHXZ 1004ff5e f   vgui:vgui.dll
 0001:0004ef64       ?getModeInfo@SurfaceBase@vgui@@UAE_NHAAH00@Z 1004ff64 f   vgui:vgui.dll
 0001:0004ef6a       ?getApp@SurfaceBase@vgui@@UAEPAVApp@2@XZ 1004ff6a f   vgui:vgui.dll
 0001:0004ef70       ?setEmulatedCursorVisible@SurfaceBase@vgui@@UAEX_N@Z 1004ff70 f   vgui:vgui.dll
 0001:0004ef76       ?setEmulatedCursorPos@SurfaceBase@vgui@@UAEXHH@Z 1004ff76 f   vgui:vgui.dll
 0001:0004ef7c       ?addModeInfo@SurfaceBase@vgui@@MAEXHHH@Z 1004ff7c f   vgui:vgui.dll
 0001:0004ef82       ??0BorderLayout@vgui@@QAE@H@Z 1004ff82 f   vgui:vgui.dll
 0001:0004ef88       ?performLayout@StackLayout@vgui@@UAEXPAVPanel@2@@Z 1004ff88 f   vgui:vgui.dll
 0001:0004ef8e       ??0Font@vgui@@QAE@PBDPAXHHHMH_N222@Z 1004ff8e f   vgui:vgui.dll
 0001:0004ef94       ??0TextImage@vgui@@QAE@PBD@Z 1004ff94 f   vgui:vgui.dll
 0001:0004ef9a       ??0Image@vgui@@QAE@XZ      1004ff9a f   vgui:vgui.dll
 0001:0004efa0       ??0Color@vgui@@QAE@XZ      1004ffa0 f   vgui:vgui.dll
 0001:0004efa6       ??1SurfaceBase@vgui@@IAE@XZ 1004ffa6 f   vgui:vgui.dll
 0001:0004efac       ?getModeInfoCount@Surface@vgui@@UAEHXZ 1004ffac f   vgui:vgui.dll
 0001:0004efb2       ?setTitle@Surface@vgui@@UAEXPBD@Z 1004ffb2 f   vgui:vgui.dll
 0001:0004efb8       ?setFullscreenMode@Surface@vgui@@UAE_NHHH@Z 1004ffb8 f   vgui:vgui.dll
 0001:0004efbe       ?setWindowedMode@Surface@vgui@@UAEXXZ 1004ffbe f   vgui:vgui.dll
 0001:0004efc4       ?setAsTopMost@Surface@vgui@@UAEX_N@Z 1004ffc4 f   vgui:vgui.dll
 0001:0004efca       ?createPopup@Surface@vgui@@UAEXPAVPanel@2@@Z 1004ffca f   vgui:vgui.dll
 0001:0004efd0       ?hasFocus@Surface@vgui@@UAE_NXZ 1004ffd0 f   vgui:vgui.dll
 0001:0004efd6       ?isWithin@Surface@vgui@@UAE_NHH@Z 1004ffd6 f   vgui:vgui.dll
 0001:0004efdc       ?createNewTextureID@Surface@vgui@@MAEHXZ 1004ffdc f   vgui:vgui.dll
 0001:0004efe2       ?drawSetColor@Surface@vgui@@MAEXHHHH@Z 1004ffe2 f   vgui:vgui.dll
 0001:0004efe8       ?drawFilledRect@Surface@vgui@@MAEXHHHH@Z 1004ffe8 f   vgui:vgui.dll
 0001:0004efee       ?drawOutlinedRect@Surface@vgui@@MAEXHHHH@Z 1004ffee f   vgui:vgui.dll
 0001:0004eff4       ?drawSetTextFont@Surface@vgui@@MAEXPAVFont@2@@Z 1004fff4 f   vgui:vgui.dll
 0001:0004effa       ?drawSetTextColor@Surface@vgui@@MAEXHHHH@Z 1004fffa f   vgui:vgui.dll
 0001:0004f000       ?drawSetTextPos@Surface@vgui@@MAEXHH@Z 10050000 f   vgui:vgui.dll
 0001:0004f006       ?drawPrintText@Surface@vgui@@MAEXPBDH@Z 10050006 f   vgui:vgui.dll
 0001:0004f00c       ?drawSetTextureRGBA@Surface@vgui@@MAEXHPBDHH@Z 1005000c f   vgui:vgui.dll
 0001:0004f012       ?drawSetTexture@Surface@vgui@@MAEXH@Z 10050012 f   vgui:vgui.dll
 0001:0004f018       ?drawTexturedRect@Surface@vgui@@MAEXHHHH@Z 10050018 f   vgui:vgui.dll
 0001:0004f01e       ?invalidate@Surface@vgui@@MAEXPAVPanel@2@@Z 1005001e f   vgui:vgui.dll
 0001:0004f024       ?enableMouseCapture@Surface@vgui@@MAEX_N@Z 10050024 f   vgui:vgui.dll
 0001:0004f02a       ?setCursor@Surface@vgui@@MAEXPAVCursor@2@@Z 1005002a f   vgui:vgui.dll
 0001:0004f030       ?swapBuffers@Surface@vgui@@MAEXXZ 10050030 f   vgui:vgui.dll
 0001:0004f036       ?pushMakeCurrent@Surface@vgui@@MAEXPAVPanel@2@_N@Z 10050036 f   vgui:vgui.dll
 0001:0004f03c       ?popMakeCurrent@Surface@vgui@@MAEXPAVPanel@2@@Z 1005003c f   vgui:vgui.dll
 0001:0004f042       ?applyChanges@Surface@vgui@@MAEXXZ 10050042 f   vgui:vgui.dll
 0001:0004f048       ?createPlat@Surface@vgui@@MAE_NXZ 10050048 f   vgui:vgui.dll
 0001:0004f04e       ?recreateContext@Surface@vgui@@MAE_NXZ 1005004e f   vgui:vgui.dll
 0001:0004f054       ?paintBackground@MenuSeparator@vgui@@MAEXXZ 10050054 f   vgui:vgui.dll
 0001:0004f05a       ?setEnabled@BuildGroup@vgui@@UAEX_N@Z 1005005a f   vgui:vgui.dll
 0001:0004f060       ?isEnabled@BuildGroup@vgui@@UAE_NXZ 10050060 f   vgui:vgui.dll
 0001:0004f066       ?addCurrentPanelChangeSignal@BuildGroup@vgui@@UAEXPAVChangeSignal@2@@Z 10050066 f   vgui:vgui.dll
 0001:0004f06c       ?getCurrentPanel@BuildGroup@vgui@@UAEPAVPanel@2@XZ 1005006c f   vgui:vgui.dll
 0001:0004f072       ?copyPropertiesToClipboard@BuildGroup@vgui@@UAEXXZ 10050072 f   vgui:vgui.dll
 0001:0004f078       ?applySnap@BuildGroup@vgui@@EAEXPAVPanel@2@@Z 10050078 f   vgui:vgui.dll
 0001:0004f07e       ?fireCurrentPanelChangeSignal@BuildGroup@vgui@@EAEXXZ 1005007e f   vgui:vgui.dll
 0001:0004f084       ?panelAdded@BuildGroup@vgui@@MAEXPAVPanel@2@PBD@Z 10050084 f   vgui:vgui.dll
 0001:0004f08a       ?cursorMoved@BuildGroup@vgui@@MAEXHHPAVPanel@2@@Z 1005008a f   vgui:vgui.dll
 0001:0004f090       ?mousePressed@BuildGroup@vgui@@MAEXW4MouseCode@2@PAVPanel@2@@Z 10050090 f   vgui:vgui.dll
 0001:0004f096       ?mouseReleased@BuildGroup@vgui@@MAEXW4MouseCode@2@PAVPanel@2@@Z 10050096 f   vgui:vgui.dll
 0001:0004f09c       ?mouseDoublePressed@BuildGroup@vgui@@MAEXW4MouseCode@2@PAVPanel@2@@Z 1005009c f   vgui:vgui.dll
 0001:0004f0a2       ?keyTyped@BuildGroup@vgui@@MAEXW4KeyCode@2@PAVPanel@2@@Z 100500a2 f   vgui:vgui.dll
 0001:0004f0a8       ?getCursor@BuildGroup@vgui@@MAEPAVCursor@2@PAVPanel@2@@Z 100500a8 f   vgui:vgui.dll
 0001:0004f0ae       ?getInstance@App@vgui@@SAPAV12@XZ 100500ae f   vgui:vgui.dll
 0001:0004f0b4       _htons@4                   100500b4 f   wsock32:WSOCK32.dll
 0001:0004f0ba       __cfltcvt_init             100500ba f   LIBCMT:_fpinit_.obj
 0001:0004f11a       __fpmath                   1005011a f   LIBCMT:_fpinit_.obj
 0001:0004f133       ??1type_info@@UAE@XZ       10050133 f   LIBCMT:typinfo.obj
 0001:0004f143       ??_Etype_info@@UAEPAXI@Z   10050143 f i LIBCMT:typinfo.obj
 0001:0004f143       ??_Gtype_info@@UAEPAXI@Z   10050143 f i LIBCMT:typinfo.obj
 0001:0004f164       ??8type_info@@QBE_NABV0@@Z 10050164 f   LIBCMT:typinfo.obj
 0001:0004f190       _sin                       10050190 f   LIBCMT:_sin_.obj
 0001:0004f1d0       __CIsin                    100501d0 f   LIBCMT:_sin_.obj
 0001:0004f20b       __CIsin_default            1005020b f   LIBCMT:_sin_.obj
 0001:0004f21f       __sin_default              1005021f     LIBCMT:_sin_.obj
 0001:0004f2b9       ?_JumpToContinuation@@YGXPAXPAUEHRegistrationNode@@@Z 100502b9 f   LIBCMT:_trnsctrl_.obj
 0001:0004f2eb       ?_CallMemberFunction2@@YGXPAX00H@Z 100502eb f   LIBCMT:_trnsctrl_.obj
 0001:0004f2eb       ?_CallMemberFunction0@@YGXPAX0@Z 100502eb f   LIBCMT:_trnsctrl_.obj
 0001:0004f2eb       ?_CallMemberFunction1@@YGXPAX00@Z 100502eb f   LIBCMT:_trnsctrl_.obj
 0001:0004f2f2       ?_UnwindNestedFrames@@YGXPAUEHRegistrationNode@@PAUEHExceptionRecord@@@Z 100502f2 f   LIBCMT:_trnsctrl_.obj
 0001:0004f346       ___CxxFrameHandler3        10050346 f   LIBCMT:_trnsctrl_.obj
 0001:0004f3af       ?_CallSETranslator@@YAHPAUEHExceptionRecord@@PAUEHRegistrationNode@@PAX2PBU_s_FuncInfo@@H1@Z 100503af f   LIBCMT:_trnsctrl_.obj
 0001:0004f525       ?_GetRangeOfTrysToCheck@@YAPBU_s_TryBlockMapEntry@@PBU_s_FuncInfo@@HHPAI1@Z 10050525 f   LIBCMT:_trnsctrl_.obj
 0001:0004f598       __CreateFrameInfo          10050598 f   LIBCMT:_trnsctrl_.obj
 0001:0004f5c4       __IsExceptionObjectToBeDestroyed 100505c4 f   LIBCMT:_trnsctrl_.obj
 0001:0004f5eb       __FindAndUnlinkFrame       100505eb f   LIBCMT:_trnsctrl_.obj
 0001:0004f63d       ?_CallCatchBlock2@@YAPAXPAUEHRegistrationNode@@PBU_s_FuncInfo@@PAXHK@Z 1005063d f   LIBCMT:_trnsctrl_.obj
 0001:0004f69d       @__security_check_cookie@4 1005069d f   LIBCMT:secchk.obj
 0001:0004f6b0       __ftol2_sse                100506b0 f   LIBCMT:ftol2.obj
 0001:0004f6b9       __ftol2_pentium4           100506b9 f   LIBCMT:ftol2.obj
 0001:0004f6cc       __ftol2_sse_excpt          100506cc f   LIBCMT:ftol2.obj
 0001:0004f6e6       __ftol2                    100506e6 f   LIBCMT:ftol2.obj
 0001:0004f75b       __vsprintf_l               1005075b f   LIBCMT:vsprintf.obj
 0001:0004f7df       _vsprintf                  100507df f   LIBCMT:vsprintf.obj
 0001:0004f800       _ceil                      10050800 f   LIBCMT:_ceil_pentium4_.obj
 0001:0004f840       __ceil_pentium4            10050840 f   LIBCMT:_ceil_pentium4_.obj
 0001:0004f920       _floor                     10050920 f   LIBCMT:_floor_pentium4_.obj
 0001:0004f960       __floor_pentium4           10050960 f   LIBCMT:_floor_pentium4_.obj
 0001:0004fa50       _memcpy                    10050a50 f   LIBCMT:memcpy.obj
 0001:0004fdb1       _atol                      10050db1 f   LIBCMT:atox.obj
 0001:0004fdc7       _atoi                      10050dc7 f   LIBCMT:atox.obj
 0001:0004fde0       _strncpy                   10050de0 f   LIBCMT:strncpy.obj
 0001:0004ff04       __CxxThrowException@8      10050f04 f   LIBCMT:throw.obj
 0001:0004ff50       ??0_LocaleUpdate@@QAE@PAUlocaleinfo_struct@@@Z 10050f50 f i LIBCMT:atof.obj
 0001:0004ffd7       __atof_l                   10050fd7 f   LIBCMT:atof.obj
 0001:00050082       _atof                      10051082 f   LIBCMT:atof.obj
 0001:00050095       _sprintf                   10051095 f   LIBCMT:sprintf.obj
 0001:00050119       __fclose_nolock            10051119 f   LIBCMT:fclose.obj
 0001:00050186       _fclose                    10051186 f   LIBCMT:fclose.obj
 0001:000501fa       _fgetc                     100511fa f   LIBCMT:fgetc.obj
 0001:000502ee       __fsopen                   100512ee f   LIBCMT:fopen.obj
 0001:000503aa       _fopen                     100513aa f   LIBCMT:fopen.obj
 0001:000503c1       _fprintf                   100513c1 f   LIBCMT:fprintf.obj
 0001:000504cd       ??3@YAXPAX@Z               100514cd f   LIBCMT:delete.obj
 0001:000504e0       _memset                    100514e0 f   LIBCMT:memset.obj
 0001:0005055a       __purecall                 1005155a f   LIBCMT:purevirt.obj
 0001:00050584       ___crtCorExitProcess       10051584 f   LIBCMT:crt0dat.obj
 0001:000505af       ___crtExitProcess          100515af f   LIBCMT:crt0dat.obj
 0001:000505c7       __lockexit                 100515c7 f   LIBCMT:crt0dat.obj
 0001:000505d0       __unlockexit               100515d0 f   LIBCMT:crt0dat.obj
 0001:000505d9       __init_pointers            100515d9 f   LIBCMT:crt0dat.obj
 0001:0005060c       __initterm_e               1005160c f   LIBCMT:crt0dat.obj
 0001:00050630       __cinit                    10051630 f   LIBCMT:crt0dat.obj
 0001:00050807       _exit                      10051807 f   LIBCMT:crt0dat.obj
 0001:0005081d       __exit                     1005181d f   LIBCMT:crt0dat.obj
 0001:00050833       __cexit                    10051833 f   LIBCMT:crt0dat.obj
 0001:00050842       __amsg_exit                10051842 f   LIBCMT:crt0dat.obj
 0001:00050860       ??1bad_alloc@std@@UAE@XZ   10051860 f i LIBCMT:new.obj
 0001:0005086b       ??_Ebad_alloc@std@@UAEPAXI@Z 1005186b f i LIBCMT:new.obj
 0001:0005086b       ??_Gbad_alloc@std@@UAEPAXI@Z 1005186b f i LIBCMT:new.obj
 0001:00050892       ??0bad_alloc@std@@QAE@ABV01@@Z 10051892 f i LIBCMT:new.obj
 0001:000508af       ??2@YAPAXI@Z               100518af f   LIBCMT:new.obj
 0001:000509e5       ___onexitinit              100519e5 f   LIBCMT:onexit.obj
 0001:00050a16       __onexit                   10051a16 f   LIBCMT:onexit.obj
 0001:00050a52       _atexit                    10051a52 f   LIBCMT:onexit.obj
 0001:00050a70       _memmove                   10051a70 f   LIBCMT:memmove.obj
 0001:00050de0       _strncat                   10051de0 f   LIBCMT:strncat.obj
 0001:00050f20       __alloca_probe             10051f20     LIBCMT:chkstk.obj
 0001:00050f20       __chkstk                   10051f20 f   LIBCMT:chkstk.obj
 0001:00050f50       _cos                       10051f50 f   LIBCMT:_cos_.obj
 0001:00050f90       __CIcos                    10051f90 f   LIBCMT:_cos_.obj
 0001:00050fcb       __CIcos_default            10051fcb f   LIBCMT:_cos_.obj
 0001:00050fdf       __cos_default              10051fdf     LIBCMT:_cos_.obj
 0001:00051079       __time64                   10052079 f   LIBCMT:time64.obj
 0001:000510ca       _srand                     100520ca f   LIBCMT:rand.obj
 0001:000510dc       _rand                      100520dc f   LIBCMT:rand.obj
 0001:00051100       __CIsqrt                   10052100 f   LIBCMT:_sqrt_.obj
 0001:00051114       _sqrt                      10052114     LIBCMT:_sqrt_.obj
 0001:000511ba       _free                      100521ba f   LIBCMT:free.obj
 0001:000511f4       _strncmp                   100521f4 f   LIBCMT:strncmp.obj
 0001:000512b4       _malloc                    100522b4 f   LIBCMT:malloc.obj
 0001:000513e0       _qsort                     100523e0 f   LIBCMT:qsort.obj
 0001:0005166b       __isalpha_l                1005266b f i LIBCMT:_ctype.obj
 0001:000516c1       _isalpha                   100526c1 f i LIBCMT:_ctype.obj
 0001:000516f1       __isdigit_l                100526f1 f i LIBCMT:_ctype.obj
 0001:00051742       _isdigit                   10052742 f i LIBCMT:_ctype.obj
 0001:00051770       __isxdigit_l               10052770 f i LIBCMT:_ctype.obj
 0001:000517c6       _isxdigit                  100527c6 f i LIBCMT:_ctype.obj
 0001:000517f6       __isspace_l                100527f6 f i LIBCMT:_ctype.obj
 0001:00051847       _isspace                   10052847 f i LIBCMT:_ctype.obj
 0001:00051875       __isalnum_l                10052875 f i LIBCMT:_ctype.obj
 0001:000518cb       _isalnum                   100528cb f i LIBCMT:_ctype.obj
 0001:00051900       _pow                       10052900 f   LIBCMT:_pow_.obj
 0001:00051940       __CIpow                    10052940 f   LIBCMT:_pow_.obj
 0001:0005197b       __CIpow_default            1005297b f   LIBCMT:_pow_.obj
 0001:00051994       __pow_default              10052994     LIBCMT:_pow_.obj
 0001:00051b90       _atan2                     10052b90 f   LIBCMT:_87ctriga_.obj
 0001:00051b9a       __CIatan2                  10052b9a f   LIBCMT:_87ctriga_.obj
 0001:00051bb0       _acos                      10052bb0 f   LIBCMT:_acos_.obj
 0001:00051bf0       __CIacos                   10052bf0 f   LIBCMT:_acos_.obj
 0001:00051c2b       __CIacos_default           10052c2b f   LIBCMT:_acos_.obj
 0001:00051c3f       __acos_default             10052c3f     LIBCMT:_acos_.obj
 0001:00051cf6       __toupper_l                10052cf6 f   LIBCMT:toupper.obj
 0001:00051e0c       _toupper                   10052e0c f   LIBCMT:toupper.obj
 0001:00051e40       _strstr                    10052e40 f   LIBCMT:strstr.obj
 0001:00051ed0       _fmod                      10052ed0 f   LIBCMT:_87fmod_.obj
 0001:00051eda       __CIfmod                   10052eda f   LIBCMT:_87fmod_.obj
 0001:00051f60       _sscanf                    10052f60 f   LIBCMT:sscanf.obj
 0001:00051f82       ?__ArrayUnwind@@YGXPAXIHP6EX0@Z@Z 10052f82 f   LIBCMT:ehvecdtr.obj
 0001:00051fe0       ??_M@YGXPAXIHP6EX0@Z@Z     10052fe0 f   LIBCMT:ehvecdtr.obj
 0001:00052043       ??_L@YGXPAXIHP6EX0@Z1@Z    10053043 f   LIBCMT:ehvecctr.obj
 0001:000520a8       __snprintf                 100530a8 f   LIBCMT:snprintf.obj
 0001:00052170       _strchr                    10053170 f   LIBCMT:strchr.obj
 0001:00052176       ___from_strstr_to_strchr   10053176     LIBCMT:strchr.obj
 0001:0005222e       __fwrite_nolock            1005322e f   LIBCMT:fwrite.obj
 0001:00052385       _fwrite                    10053385 f   LIBCMT:fwrite.obj
 0001:000523ff       __ftell_nolock             100533ff f   LIBCMT:ftell.obj
 0001:00052593       _ftell                     10053593 f   LIBCMT:ftell.obj
 0001:000525f8       __fseek_nolock             100535f8 f   LIBCMT:fseek.obj
 0001:00052682       _fseek                     10053682 f   LIBCMT:fseek.obj
 0001:000526fe       __fread_nolock_s           100536fe f   LIBCMT:fread.obj
 0001:000528ba       _fread_s                   100538ba f   LIBCMT:fread.obj
 0001:00052948       _fread                     10053948 f   LIBCMT:fread.obj
 0001:00052965       __CRT_INIT@12              10053965 f   LIBCMT:dllcrt0.obj
 0001:00052bbf       __DllMainCRTStartup@12     10053bbf f   LIBCMT:dllcrt0.obj
 0001:00052be2       __forcdecpt_l              10053be2 f   LIBCMT:cvt.obj
 0001:00052c56       __cropzeros_l              10053c56 f   LIBCMT:cvt.obj
 0001:00052cd8       __positive                 10053cd8 f   LIBCMT:cvt.obj
 0001:00052cf4       __fassign_l                10053cf4 f   LIBCMT:cvt.obj
 0001:00052d36       __fassign                  10053d36 f   LIBCMT:cvt.obj
 0001:00052d6f       __forcdecpt                10053d6f f   LIBCMT:cvt.obj
 0001:00052d82       __cropzeros                10053d82 f   LIBCMT:cvt.obj
 0001:00052ef6       __cftoe_l                  10053ef6 f   LIBCMT:cvt.obj
 0001:00052fbd       __cftoe                    10053fbd f   LIBCMT:cvt.obj
 0001:00052fdd       __cftoa_l                  10053fdd f   LIBCMT:cvt.obj
 0001:00053456       __cftof_l                  10054456 f   LIBCMT:cvt.obj
 0001:00053517       __cftog_l                  10054517 f   LIBCMT:cvt.obj
 0001:00053604       __cfltcvt_l                10054604 f   LIBCMT:cvt.obj
 0001:0005368c       __cfltcvt                  1005468c f   LIBCMT:cvt.obj
 0001:000536af       __initp_misc_cfltcvt_tab   100546af f   LIBCMT:cmiscdat.obj
 0001:000536d2       __setdefaultprecision      100546d2 f   LIBCMT:fp8.obj
 0001:000536fa       ?_Type_info_dtor@type_info@@CAXPAV1@@Z 100546fa f   LIBCMT:typname.obj
 0001:00053770       _strcmp                    10054770 f   LIBCMT:strcmp.obj
 0001:000537f8       __sse2_mathfcns_init       100547f8 f   LIBCMT:_mathfcns_.obj
 0001:00053810       __CIsin_pentium4           10054810 f   LIBCMT:_sin_pentium4_.obj
 0001:00053828       __sin_pentium4             10054828     LIBCMT:_sin_pentium4_.obj
 0001:000539e0       __trandisp1                100549e0 f   LIBCMT:_87disp_.obj
 0001:00053a47       __trandisp2                10054a47 f   LIBCMT:_87disp_.obj
 0001:00053ad3       __rttospopde               10054ad3     LIBCMT:_87disp_.obj
 0001:00053ad8       __rttospop                 10054ad8     LIBCMT:_87disp_.obj
 0001:00053ada       __rtnospop                 10054ada     LIBCMT:_87disp_.obj
 0001:00053adc       __rttosnpop                10054adc     LIBCMT:_87disp_.obj
 0001:00053add       __rtnospopde               10054add     LIBCMT:_87disp_.obj
 0001:00053ae4       __rtzeropop                10054ae4     LIBCMT:_87disp_.obj
 0001:00053ae6       __rtzeronpop               10054ae6     LIBCMT:_87disp_.obj
 0001:00053aeb       __rtonepop                 10054aeb     LIBCMT:_87disp_.obj
 0001:00053aed       __rtonenpop                10054aed     LIBCMT:_87disp_.obj
 0001:00053af2       __tosnan1                  10054af2     LIBCMT:_87disp_.obj
 0001:00053b1d       __nosnan2                  10054b1d     LIBCMT:_87disp_.obj
 0001:00053b1f       __tosnan2                  10054b1f     LIBCMT:_87disp_.obj
 0001:00053b47       __nan2                     10054b47     LIBCMT:_87disp_.obj
 0001:00053b86       __rtindfpop                10054b86     LIBCMT:_87disp_.obj
 0001:00053b88       __rtindfnpop               10054b88     LIBCMT:_87disp_.obj
 0001:00053b99       __rttosnpopde              10054b99     LIBCMT:_87disp_.obj
 0001:00053ba3       __rtchsifneg               10054ba3     LIBCMT:_87disp_.obj
 0001:00053bb0       __twoToTOS                 10054bb0 f   LIBCMT:_common_.obj
 0001:00053bc5       __load_CW                  10054bc5 f   LIBCMT:_common_.obj
 0001:00053bdc       __convertTOStoQNaN         10054bdc f   LIBCMT:_common_.obj
 0001:00053bf5       __fload_withFB             10054bf5 f   LIBCMT:_common_.obj
 0001:00053c38       __checkTOS_withFB          10054c38 f   LIBCMT:_common_.obj
 0001:00053c4e       __fast_exit                10054c4e f   LIBCMT:_common_.obj
 0001:00053c5b       __math_exit                10054c5b f   LIBCMT:_common_.obj
 0001:00053c85       __check_overflow_exit      10054c85 f   LIBCMT:_common_.obj
 0001:00053c99       __check_range_exit         10054c99 f   LIBCMT:_common_.obj
 0001:00053d40       __startTwoArgErrorHandling 10054d40 f   LIBCMT:_genexcep_.obj
 0001:00053d57       __startOneArgErrorHandling 10054d57 f   LIBCMT:_genexcep_.obj
 0001:00053d93       ??1bad_exception@std@@UAE@XZ 10054d93 f i LIBCMT:frame.obj
 0001:00053d9e       ??_Ebad_exception@std@@UAEPAXI@Z 10054d9e f i LIBCMT:frame.obj
 0001:00053d9e       ??_Gbad_exception@std@@UAEPAXI@Z 10054d9e f i LIBCMT:frame.obj
 0001:00053dc5       ___TypeMatch               10054dc5 f   LIBCMT:frame.obj
 0001:00053e24       ___FrameUnwindFilter       10054e24 f   LIBCMT:frame.obj
 0001:00053e73       ___FrameUnwindToState      10054e73 f   LIBCMT:frame.obj
 0001:00053f94       ___DestructExceptionObject 10054f94 f   LIBCMT:frame.obj
 0001:00053fe9       ___AdjustPointer           10054fe9 f   LIBCMT:frame.obj
 0001:0005426d       ___BuildCatchObjectHelper  1005526d f   LIBCMT:frame.obj
 0001:000543ec       ___BuildCatchObject        100553ec f   LIBCMT:frame.obj
 0001:00054968       ??0bad_exception@std@@QAE@ABV01@@Z 10055968 f i LIBCMT:frame.obj
 0001:00054985       ___InternalCxxFrameHandler 10055985 f   LIBCMT:frame.obj
 0001:00054a6b       __encoded_null             10055a6b f   LIBCMT:tidtable.obj
 0001:00054a74       ___crtTlsAlloc@4           10055a74 f   LIBCMT:tidtable.obj
 0001:00054a7d       ___set_flsgetvalue         10055a7d f   LIBCMT:tidtable.obj
 0001:00054ab1       __mtterm                   10055ab1 f   LIBCMT:tidtable.obj
 0001:00054aee       __initptd                  10055aee f   LIBCMT:tidtable.obj
 0001:00054ba2       __getptd_noexit            10055ba2 f   LIBCMT:tidtable.obj
 0001:00054c1b       __getptd                   10055c1b f   LIBCMT:tidtable.obj
 0001:00054c35       __freefls@4                10055c35 f   LIBCMT:tidtable.obj
 0001:00054d64       __freeptd                  10055d64 f   LIBCMT:tidtable.obj
 0001:00054dd2       __mtinit                   10055dd2 f   LIBCMT:tidtable.obj
 0001:00054f4d       ?terminate@@YAXXZ          10055f4d f   LIBCMT:hooks.obj
 0001:00054f86       ?unexpected@@YAXXZ         10055f86 f   LIBCMT:hooks.obj
 0001:00054f99       ?_inconsistency@@YAXXZ     10055f99 f   LIBCMT:hooks.obj
 0001:00054fd1       __initp_eh_hooks           10055fd1 f   LIBCMT:hooks.obj
 0001:00054ff0       __CallSettingFrame@12      10055ff0 f   LIBCMT:lowhelpr.obj
 0001:00055017       __NLG_Return               10056017     LIBCMT:lowhelpr.obj
 0001:0005503c       ___report_gsfailure        1005603c f   LIBCMT:gs_report.obj
 0001:00055142       ___sse2_available_init     10056142 f   LIBCMT:cpu_disp.obj
 0001:00055152       __flsbuf                   10056152 f   LIBCMT:_flsbuf.obj
 0001:0005534b       __output_l                 1005634b f   LIBCMT:output.obj
 0001:00055f53       __initp_misc_invarg        10056f53 f   LIBCMT:invarg.obj
 0001:00055f62       __call_reportfault         10056f62 f   LIBCMT:invarg.obj
 0001:0005608b       __invoke_watson            1005708b f   LIBCMT:invarg.obj
 0001:000560b0       __invalid_parameter        100570b0 f   LIBCMT:invarg.obj
 0001:000560dd       __invalid_parameter_noinfo 100570dd f   LIBCMT:invarg.obj
 0001:000560ed       __get_errno_from_oserr     100570ed f   LIBCMT:dosmap.obj
 0001:0005612f       __errno                    1005712f f   LIBCMT:dosmap.obj
 0001:00056142       ___doserrno                10057142 f   LIBCMT:dosmap.obj
 0001:00056155       __dosmaperr                10057155 f   LIBCMT:dosmap.obj
 0001:00056178       ___libm_error_support      10057178 f   LIBCMT:_libm_error_.obj
 0001:00056444       __ceil_default             10057444 f   LIBCMT:_ceil_.obj
 0001:0005651c       __floor_default            1005751c f   LIBCMT:_floor_.obj
 0001:00056600       _strlen                    10057600 f   LIBCMT:strlen.obj
 0001:0005668b       __close_nolock             1005768b f   LIBCMT:close.obj
 0001:00056727       __close                    10057727 f   LIBCMT:close.obj
 0001:00056f1f       __sopen_helper             10057f1f f   LIBCMT:open.obj
 0001:00056fe3       __sopen_s                  10057fe3 f   LIBCMT:open.obj
 0001:00057003       __VEC_memcpy               10058003 f   LIBCMT:p4_memcpy.obj
 0001:00057331       _strtol                    10058331 f   LIBCMT:strtol.obj
 0001:0005757f       ___updatetmbcinfo          1005857f f   LIBCMT:mbctype.obj
 0001:0005769f       __setmbcp_nolock           1005869f f   LIBCMT:mbctype.obj
 0001:00057888       __setmbcp                  10058888 f   LIBCMT:mbctype.obj
 0001:00057a22       ___initmbctable            10058a22 f   LIBCMT:mbctype.obj
 0001:00057a40       ___addlocaleref            10058a40 f   LIBCMT:localref.obj
 0001:00057acf       ___removelocaleref         10058acf f   LIBCMT:localref.obj
 0001:00057b68       ___freetlocinfo            10058b68 f   LIBCMT:localref.obj
 0001:00057cb3       __updatetlocinfoEx_nolock  10058cb3 f   LIBCMT:localref.obj
 0001:00057d00       ___updatetlocinfo          10058d00 f   LIBCMT:localref.obj
 0001:00057d79       __fltin2                   10058d79 f   LIBCMT:_cfin_.obj
 0001:00057e20       __isctype_l                10058e20 f   LIBCMT:isctype.obj
 0001:00057ed8       ___strgtold12_l            10058ed8 f   LIBCMT:_strgtold_.obj
 0001:000585b4       __fileno                   100595b4 f   LIBCMT:fileno.obj
 0001:000585da       __freebuf                  100595da f   LIBCMT:_freebuf.obj
 0001:0005860b       __flush                    1005960b f   LIBCMT:fflush.obj
 0001:00058673       __fflush_nolock            10059673 f   LIBCMT:fflush.obj
 0001:00058795       __flushall                 10059795 f   LIBCMT:fflush.obj
 0001:0005879e       ___iob_func                1005979e f   LIBCMT:_file.obj
 0001:000587a4       ___initstdio               100597a4 f   LIBCMT:_file.obj
 0001:00058855       ___endstdio                10059855 f   LIBCMT:_file.obj
 0001:00058875       __lock_file                10059875 f   LIBCMT:_file.obj
 0001:000588b6       __lock_file2               100598b6 f   LIBCMT:_file.obj
 0001:000588e8       __unlock_file              100598e8 f   LIBCMT:_file.obj
 0001:00058924       __unlock_file2             10059924 f   LIBCMT:_file.obj
 0001:00058960       __SEH_prolog4              10059960 f   LIBCMT:sehprolg4.obj
 0001:000589a5       __SEH_epilog4              100599a5 f   LIBCMT:sehprolg4.obj
 0001:000589c0       __except_handler4          100599c0 f   LIBCMT:chandler4.obj
 0001:00058b4f       __filbuf                   10059b4f f   LIBCMT:_filbuf.obj
 0001:00058c71       __ioinit                   10059c71 f   LIBCMT:ioinit.obj
 0001:00058eb6       __ioterm                   10059eb6 f   LIBCMT:ioinit.obj
 0001:00058f09       __openfile                 10059f09 f   LIBCMT:_open.obj
 0001:000591a0       __getstream                1005a1a0 f   LIBCMT:stream.obj
 0001:000592e0       __local_unwind4            1005a2e0 f   LIBCMT:exsup4.obj
 0001:000593b6       __seh_longjmp_unwind4@4    1005a3b6 f   LIBCMT:exsup4.obj
 0001:000593d2       @_EH4_CallFilterFunc@8     1005a3d2 f   LIBCMT:exsup4.obj
 0001:000593e9       @_EH4_TransferToHandler@8  1005a3e9 f   LIBCMT:exsup4.obj
 0001:00059402       @_EH4_GlobalUnwind2@8      1005a402 f   LIBCMT:exsup4.obj
 0001:0005941b       @_EH4_LocalUnwind@16       1005a41b f   LIBCMT:exsup4.obj
 0001:00059432       __stbuf                    1005a432 f   LIBCMT:_sftbuf.obj
 0001:000594ce       __ftbuf                    1005a4ce f   LIBCMT:_sftbuf.obj
 0001:00059502       __VEC_memzero              1005a502 f   LIBCMT:p4_memset.obj
 0001:000595bc       _abort                     1005a5bc f   LIBCMT:abort.obj
 0001:000595ef       __set_abort_behavior       1005a5ef f   LIBCMT:abort.obj
 0001:00059610       __GET_RTERRMSG             1005a610 f   LIBCMT:crt0msg.obj
 0001:00059636       __NMSG_WRITE               1005a636 f   LIBCMT:crt0msg.obj
 0001:000597e5       __FF_MSGBANNER             1005a7e5 f   LIBCMT:crt0msg.obj
 0001:0005981e       __initp_misc_purevirt      1005a81e f   LIBCMT:inithelp.obj
 0001:0005982d       __mtinitlocks              1005a82d f   LIBCMT:mlock.obj
 0001:00059877       __mtdeletelocks            1005a877 f   LIBCMT:mlock.obj
 0001:000598ce       __unlock                   1005a8ce f   LIBCMT:mlock.obj
 0001:000598e5       __mtinitlocknum            1005a8e5 f   LIBCMT:mlock.obj
 0001:000599a7       __lock                     1005a9a7 f   LIBCMT:mlock.obj
 0001:000599da       __initp_misc_winsig        1005a9da f   LIBCMT:winsig.obj
 0001:00059a2f       ___get_sigabrt             1005aa2f f   LIBCMT:winsig.obj
 0001:00059a3c       _raise                     1005aa3c f   LIBCMT:winsig.obj
 0001:00059bdf       __initp_misc_rand_s        1005abdf f   LIBCMT:rand_s.obj
 0001:00059bee       __initp_heap_handler       1005abee f   LIBCMT:handler.obj
 0001:00059bfd       __callnewh                 1005abfd f   LIBCMT:handler.obj
 0001:00059c25       __RTC_Initialize           1005ac25 f   LIBCMT:_initsect_.obj
 0001:00059c4b       __RTC_Terminate            1005ac4b f   LIBCMT:_initsect_.obj
 0001:00059c80       __ValidateImageBase        1005ac80 f   LIBCMT:pesect.obj
 0001:00059cc0       __FindPESection            1005acc0 f   LIBCMT:pesect.obj
 0001:00059d10       __IsNonwritableInCurrentImage 1005ad10 f   LIBCMT:pesect.obj
 0001:00059dcc       ??0exception@std@@QAE@ABQBDH@Z 1005adcc f   LIBCMT:stdexcpt.obj
 0001:00059de9       ?what@exception@std@@UBEPBDXZ 1005ade9 f   LIBCMT:stdexcpt.obj
 0001:00059df6       ?_Copy_str@exception@std@@AAEXPBD@Z 1005adf6 f   LIBCMT:stdexcpt.obj
 0001:00059e36       ?_Tidy@exception@std@@AAEXXZ 1005ae36 f   LIBCMT:stdexcpt.obj
 0001:00059e54       ??0exception@std@@QAE@ABQBD@Z 1005ae54 f   LIBCMT:stdexcpt.obj
 0001:00059e7b       ??4exception@std@@QAEAAV01@ABV01@@Z 1005ae7b f   LIBCMT:stdexcpt.obj
 0001:00059eb0       ??1exception@std@@UAE@XZ   1005aeb0 f   LIBCMT:stdexcpt.obj
 0001:00059ebb       ??_Gexception@std@@UAEPAXI@Z 1005aebb f i LIBCMT:stdexcpt.obj
 0001:00059ebb       ??_Eexception@std@@UAEPAXI@Z 1005aebb f i LIBCMT:stdexcpt.obj
 0001:00059ee2       ??0exception@std@@QAE@ABV01@@Z 1005aee2 f   LIBCMT:stdexcpt.obj
 0001:00059f07       __malloc_crt               1005af07 f   LIBCMT:crtheap.obj
 0001:00059f4c       __calloc_crt               1005af4c f   LIBCMT:crtheap.obj
 0001:00059f98       __realloc_crt              1005af98 f   LIBCMT:crtheap.obj
 0001:00059fe6       __recalloc_crt             1005afe6 f   LIBCMT:crtheap.obj
 0001:0005a038       __msize                    1005b038 f   LIBCMT:msize.obj
 0001:0005a070       __CIcos_pentium4           1005b070 f   LIBCMT:_cos_pentium4_.obj
 0001:0005a088       __cos_pentium4             1005b088     LIBCMT:_cos_pentium4_.obj
 0001:0005a220       __aulldiv                  1005b220 f   LIBCMT:ulldiv.obj
 0001:0005a290       __alldiv                   1005b290 f   LIBCMT:lldiv.obj
 0001:0005a340       __allrem                   1005b340 f   LIBCMT:llrem.obj
 0001:0005a3f2       __heap_init                1005b3f2 f   LIBCMT:heapinit.obj
 0001:0005a410       __heap_term                1005b410 f   LIBCMT:heapinit.obj
 0001:0005a430       __CIpow_pentium4           1005b430 f   LIBCMT:_pow_pentium4_.obj
 0001:0005a449       __pow_pentium4             1005b449     LIBCMT:_pow_pentium4_.obj
 0001:0005afa1       __fFEXP                    1005bfa1     LIBCMT:_87tran_.obj
 0001:0005aff8       __rtinfpopse               1005bff8     LIBCMT:_87tran_.obj
 0001:0005affa       __rtinfnpopse              1005bffa     LIBCMT:_87tran_.obj
 0001:0005b00a       __fFLN                     1005c00a     LIBCMT:_87tran_.obj
 0001:0005b0bf       __rtinfpop                 1005c0bf     LIBCMT:_87tran_.obj
 0001:0005b0c1       __rtinfnpop                1005c0c1     LIBCMT:_87tran_.obj
 0001:0005b0de       __ffexpm1                  1005c0de     LIBCMT:_87tran_.obj
 0001:0005b187       __d_inttype                1005c187 f   LIBCMT:_powhlp_.obj
 0001:0005b1f1       __powhlp                   1005c1f1 f   LIBCMT:_powhlp_.obj
 0001:0005b33c       __fFATN2                   1005c33c     LIBCMT:_87triga_.obj
 0001:0005b38c       __rtpiby2                  1005c38c     LIBCMT:_87triga_.obj
 0001:0005b3d0       __cintrindisp2             1005c3d0 f   LIBCMT:_87cdisp_.obj
 0001:0005b40e       __cintrindisp1             1005c40e f   LIBCMT:_87cdisp_.obj
 0001:0005b44b       __ctrandisp2               1005c44b f   LIBCMT:_87cdisp_.obj
 0001:0005b5da       __ctrandisp1               1005c5da f   LIBCMT:_87cdisp_.obj
 0001:0005b60d       __fload                    1005c60d f   LIBCMT:_87cdisp_.obj
 0001:0005b650       __CIacos_pentium4          1005c650 f   LIBCMT:_acos_pentium4_.obj
 0001:0005b668       __acos_pentium4            1005c668     LIBCMT:_acos_pentium4_.obj
 0001:0005bba4       __freea                    1005cba4 f i LIBCMT:a_map.obj
 0001:0005bdab       ___crtLCMapStringA         1005cdab f   LIBCMT:a_map.obj
 0001:0005bdf1       __isleadbyte_l             1005cdf1 f i LIBCMT:_wctype.obj
 0001:0005be29       _isleadbyte                1005ce29 f i LIBCMT:_wctype.obj
 0001:0005bef3       __input_l                  1005cef3 f   LIBCMT:input.obj
 0001:0005cef7       __write_nolock             1005def7 f   LIBCMT:write.obj
 0001:0005d5f4       __write                    1005e5f4 f   LIBCMT:write.obj
 0001:0005d6c8       __lseek_nolock             1005e6c8 f   LIBCMT:lseek.obj
 0001:0005d73d       __lseek                    1005e73d f   LIBCMT:lseek.obj
 0001:0005d811       __read_nolock              1005e811 f   LIBCMT:read.obj
 0001:0005ddc8       __read                     1005edc8 f   LIBCMT:read.obj
 0001:0005debe       _memcpy_s                  1005eebe f   LIBCMT:memcpy_s.obj
 0001:0005df33       __setenvp                  1005ef33 f   LIBCMT:stdenvp.obj
 0001:0005e1a9       __setargv                  1005f1a9 f   LIBCMT:stdargv.obj
 0001:0005e264       ___crtGetEnvironmentStringsA 1005f264 f   LIBCMT:a_env.obj
 0001:0005e2fb       __XcptFilter               1005f2fb f   LIBCMT:winxfltr.obj
 0001:0005e445       ___CppXcptFilter           1005f445 f   LIBCMT:winxfltr.obj
 0001:0005e465       _DllMain@12                1005f465 f   LIBCMT:dllmain.obj
 0001:0005e46b       ___security_init_cookie    1005f46b f   LIBCMT:gs_support.obj
 0001:0005e510       _strrchr                   1005f510 f   LIBCMT:strrchr.obj
 0001:0005e53d       __tolower_l                1005f53d f   LIBCMT:tolower.obj
 0001:0005e652       _tolower                   1005f652 f   LIBCMT:tolower.obj
 0001:0005e67e       __atodbl_l                 1005f67e f   LIBCMT:atodbl.obj
 0001:0005e726       __atoflt_l                 1005f726 f   LIBCMT:atodbl.obj
 0001:0005e7ce       _strcpy_s                  1005f7ce f   LIBCMT:strcpy_s.obj
 0001:0005e82d       __fptostr                  1005f82d f   LIBCMT:_fptostr.obj
 0001:0005e8e0       ___dtold                   1005f8e0 f   LIBCMT:_cfout_.obj
 0001:0005e993       __fltout2                  1005f993 f   LIBCMT:_cfout_.obj
 0001:0005ea30       __alldvrm                  1005fa30 f   LIBCMT:lldvrm.obj
 0001:0005eb10       __aullshr                  1005fb10 f   LIBCMT:ullshr.obj
 0001:0005eb2f       __fptrap                   1005fb2f f   LIBCMT:crt0fp.obj
 0001:0005eb38       __controlfp_s              1005fb38 f   LIBCMT:_contrlfp_.obj
 0001:0005eb97       __87except                 1005fb97 f   LIBCMT:_87except_.obj
 0001:0005ecd6       __EH_prolog3_catch         1005fcd6 f   LIBCMT:ehprolg3.obj
 0001:0005ed0c       ?_ValidateWrite@@YAHPAXI@Z 1005fd0c f   LIBCMT:validate.obj
 0001:0005ed0c       ?_ValidateRead@@YAHPBXI@Z  1005fd0c f   LIBCMT:validate.obj
 0001:0005ed0c       ?_ValidateExecute@@YAHP6GHXZ@Z 1005fd0c f   LIBCMT:validate.obj
 0001:0005ed20       __global_unwind2           1005fd20 f   LIBCMT:exsup.obj
 0001:0005ed85       __local_unwind2            1005fd85 f   LIBCMT:exsup.obj
 0001:0005ee09       __abnormal_termination     1005fe09 f   LIBCMT:exsup.obj
 0001:0005ee2c       __NLG_Notify1              1005fe2c f   LIBCMT:exsup.obj
 0001:0005ee35       __NLG_Notify               1005fe35 f   LIBCMT:exsup.obj
 0001:0005ee4c       __NLG_Dispatch             1005fe4c     LIBCMT:exsup.obj
 0001:0005ee4c       __NLG_Dispatch2            1005fe4c     LIBCMT:exsup.obj
 0001:0005ee54       __NLG_Call                 1005fe54 f   LIBCMT:exsup.obj
 0001:0005ee56       __NLG_Return2              1005fe56     LIBCMT:exsup.obj
 0001:0005ee57       __crt_debugger_hook        1005fe57 f   LIBCMT:dbghook.obj
 0001:0005ee5f       __lseeki64_nolock          1005fe5f f   LIBCMT:lseeki64.obj
 0001:0005eee4       __lseeki64                 1005fee4 f   LIBCMT:lseeki64.obj
 0001:0005efce       __getbuf                   1005ffce f   LIBCMT:_getbuf.obj
 0001:0005f017       __isatty                   10060017 f   LIBCMT:isatty.obj
 0001:0005f06d       __get_printf_count_output  1006006d f   LIBCMT:printf.obj
 0001:0005f083       __wctomb_s_l               10060083 f   LIBCMT:wctomb.obj
 0001:0005f1d8       _wctomb_s                  100601d8 f   LIBCMT:wctomb.obj
 0001:0005f200       __aulldvrm                 10060200 f   LIBCMT:ulldvrm.obj
 0001:0005f295       __matherr                  10060295 f   LIBCMT:_matherr_.obj
 0001:0005f298       __raise_exc_ex             10060298 f   LIBCMT:_fpexcept_.obj
 0001:0005f574       __raise_exc                10060574 f   LIBCMT:_fpexcept_.obj
 0001:0005f597       __handle_exc               10060597 f   LIBCMT:_fpexcept_.obj
 0001:0005f77b       __set_errno_from_matherr   1006077b f   LIBCMT:_fpexcept_.obj
 0001:0005f7a8       __errcode                  100607a8 f   LIBCMT:_fpexcept_.obj
 0001:0005f7dc       __umatherr                 100607dc f   LIBCMT:_fpexcept_.obj
 0001:0005f87c       __handle_qnan1             1006087c f   LIBCMT:_fpexcept_.obj
 0001:0005f8d1       __except1                  100608d1 f   LIBCMT:_fpexcept_.obj
 0001:0005f99b       __frnd                     1006099b f   LIBCMT:_frnd_.obj
 0001:0005f9af       __set_exp                  100609af f   LIBCMT:_util_.obj
 0001:0005f9dc       __sptype                   100609dc f   LIBCMT:_util_.obj
 0001:0005fa42       __decomp                   10060a42 f   LIBCMT:_util_.obj
 0001:0005fb05       __statfp                   10060b05 f   LIBCMT:_fpctrl_.obj
 0001:0005fb15       __clrfp                    10060b15 f   LIBCMT:_fpctrl_.obj
 0001:0005fb26       __ctrlfp                   10060b26 f   LIBCMT:_fpctrl_.obj
 0001:0005fb51       __set_statfp               10060b51 f   LIBCMT:_fpctrl_.obj
 0001:0005fba9       ___set_fpsr_sse2           10060ba9 f   LIBCMT:_fpctrl_.obj
 0001:0005fc1b       __set_osfhnd               10060c1b f   LIBCMT:osfinfo.obj
 0001:0005fc9c       __free_osfhnd              10060c9c f   LIBCMT:osfinfo.obj
 0001:0005fd22       __get_osfhandle            10060d22 f   LIBCMT:osfinfo.obj
 0001:0005fd8b       ___lock_fhandle            10060d8b f   LIBCMT:osfinfo.obj
 0001:0005fe2a       __unlock_fhandle           10060e2a f   LIBCMT:osfinfo.obj
 0001:0005fe51       __alloc_osfhnd             10060e51 f   LIBCMT:osfinfo.obj
 0001:0005fff0       __SEH_prolog4_GS           10060ff0 f   LIBCMT:sehprolg4gs.obj
 0001:00060038       __SEH_epilog4_GS           10061038 f   LIBCMT:sehprolg4gs.obj
 0001:00060047       __chsize_nolock            10061047 f   LIBCMT:chsize.obj
 0001:000601fd       __setmode_nolock           100611fd f   LIBCMT:setmode.obj
 0001:000602b8       __get_fmode                100612b8 f   LIBCMT:setmode.obj
 0001:000602f0       __allmul                   100612f0 f   LIBCMT:llmul.obj
 0001:00060330       _strpbrk                   10061330 f   LIBCMT:strpbrk.obj
 0001:00060457       ___crtGetStringTypeA       10061457 f   LIBCMT:a_str.obj
 0001:00060497       ___free_lc_time            10061497 f   LIBCMT:inittime.obj
 0001:0006080e       ___free_lconv_num          1006180e f   LIBCMT:initnum.obj
 0001:00060877       ___free_lconv_mon          10061877 f   LIBCMT:initmon.obj
 0001:00060975       __ld12tod                  10061975 f   LIBCMT:_intrncvt_.obj
 0001:00060ec6       __ld12tof                  10061ec6 f   LIBCMT:_intrncvt_.obj
 0001:00061417       ___mtold12                 10062417 f   LIBCMT:_mantold_.obj
 0001:000615fb       __commit                   100625fb f   LIBCMT:commit.obj
 0001:000616d4       __fcloseall                100626d4 f   LIBCMT:closeall.obj
 0001:00061770       __mbsnbicmp_l              10062770 f   LIBCMT:mbsnbicm.obj
 0001:00061974       __mbsnbicmp                10062974 f   LIBCMT:mbsnbicm.obj
 0001:0006198e       __mbsnbcmp_l               1006298e f   LIBCMT:mbsnbcmp.obj
 0001:00061ada       __mbsnbcmp                 10062ada f   LIBCMT:mbsnbcmp.obj
 0001:00061af4       ___crtMessageBoxW          10062af4 f   LIBCMT:crtmboxw.obj
 0001:00061c60       _wcscat_s                  10062c60 f   LIBCMT:wcscat_s.obj
 0001:00061cd5       _wcsncpy_s                 10062cd5 f   LIBCMT:wcsncpy_s.obj
 0001:00061da2       _wcslen                    10062da2 f   LIBCMT:wcslen.obj
 0001:00061dbd       _wcscpy_s                  10062dbd f   LIBCMT:wcscpy_s.obj
 0001:00061e20       __set_error_mode           10062e20 f   LIBCMT:errmode.obj
 0001:00061e5f       __calloc_impl              10062e5f f   LIBCMT:calloc_impl.obj
 0001:00061ee1       _realloc                   10062ee1 f   LIBCMT:realloc.obj
 0001:00061f8e       __recalloc                 10062f8e f   LIBCMT:recalloc.obj
 0001:00062000       _strcspn                   10063000 f   LIBCMT:strcspn.obj
 0001:00062046       __fpclass                  10063046 f   LIBCMT:_ieeemisc_.obj
 0001:000620f0       __alloca_probe_16          100630f0 f   LIBCMT:alloca16.obj
 0001:00062106       __alloca_probe_8           10063106     LIBCMT:alloca16.obj
 0001:0006211c       __ungetc_nolock            1006311c f   LIBCMT:ungetc.obj
 0001:000621ff       __mbtowc_l                 100631ff f   LIBCMT:mbtowc.obj
 0001:00062315       _mbtowc                    10063315 f   LIBCMT:mbtowc.obj
 0001:0006232f       __putwch_nolock            1006332f f   LIBCMT:putwch.obj
 0001:000623c4       __ismbblead                100633c4 f   LIBCMT:ismbbyte.obj
 0001:000623dc       _$I10_OUTPUT               100633dc f   LIBCMT:_x10fout_.obj
 0001:00062e02       __control87                10063e02 f i LIBCMT:_ieee87_.obj
 0001:00063114       ___ascii_stricmp           10064114 f   LIBCMT:stricmp.obj
 0001:0006314d       __stricmp_l                1006414d f   LIBCMT:stricmp.obj
 0001:0006320d       _stricmp                   1006420d f   LIBCMT:stricmp.obj
 0001:0006320d       __stricmp                  1006420d f   LIBCMT:stricmp.obj
 0001:00063254       __strnicmp_l               10064254 f   LIBCMT:strnicmp.obj
 0001:00063336       __strnicmp                 10064336 f   LIBCMT:strnicmp.obj
 0001:00063336       _strnicmp                  10064336 f   LIBCMT:strnicmp.obj
 0001:00063389       _strnlen                   10064389 f   LIBCMT:strlen_s.obj
 0001:000633a6       ___initconout              100643a6 f   LIBCMT:initcon.obj
 0001:000633c5       ___termconout              100643c5 f   LIBCMT:initcon.obj
 0001:000633e0       ___ascii_strnicmp          100643e0 f   LIBCMT:_strnicm.obj
 0001:00063442       _RtlUnwind@16              10064442 f   kernel32:KERNEL32.dll
 0001:000635bc       __strupr_s_l               100645bc f   LIBCMT:strupr.obj
 0001:000635f1       __strupr                   100645f1 f   LIBCMT:strupr.obj
 0001:000635f1       _strupr                    100645f1 f   LIBCMT:strupr.obj
 0002:00000000       __imp__GetProcAddress@8    10066000     kernel32:KERNEL32.dll
 0002:00000004       __imp__CreateFileW@28      10066004     kernel32:KERNEL32.dll
 0002:00000008       __imp__WriteConsoleW@20    10066008     kernel32:KERNEL32.dll
 0002:0000000c       __imp__HeapReAlloc@16      1006600c     kernel32:KERNEL32.dll
 0002:00000010       __imp__FlushFileBuffers@4  10066010     kernel32:KERNEL32.dll
 0002:00000014       __imp__GetStringTypeW@16   10066014     kernel32:KERNEL32.dll
 0002:00000018       __imp__GetProcessHeap@0    10066018     kernel32:KERNEL32.dll
 0002:0000001c       __imp__SetEndOfFile@4      1006601c     kernel32:KERNEL32.dll
 0002:00000020       __imp__SetStdHandle@8      10066020     kernel32:KERNEL32.dll
 0002:00000024       __imp__GetCurrentProcessId@0 10066024     kernel32:KERNEL32.dll
 0002:00000028       __imp__GetTickCount@0      10066028     kernel32:KERNEL32.dll
 0002:0000002c       __imp__QueryPerformanceCounter@4 1006602c     kernel32:KERNEL32.dll
 0002:00000030       __imp__GetEnvironmentStringsW@0 10066030     kernel32:KERNEL32.dll
 0002:00000034       __imp__FreeEnvironmentStringsW@4 10066034     kernel32:KERNEL32.dll
 0002:00000038       __imp__GetModuleFileNameA@12 10066038     kernel32:KERNEL32.dll
 0002:0000003c       __imp__ReadFile@20         1006603c     kernel32:KERNEL32.dll
 0002:00000040       __imp__SetFilePointer@16   10066040     kernel32:KERNEL32.dll
 0002:00000044       __imp__GetConsoleMode@8    10066044     kernel32:KERNEL32.dll
 0002:00000048       __imp__GetConsoleCP@0      10066048     kernel32:KERNEL32.dll
 0002:0000004c       __imp__MultiByteToWideChar@24 1006604c     kernel32:KERNEL32.dll
 0002:00000050       __imp__LCMapStringW@24     10066050     kernel32:KERNEL32.dll
 0002:00000054       __imp__HeapDestroy@4       10066054     kernel32:KERNEL32.dll
 0002:00000058       __imp__HeapCreate@12       10066058     kernel32:KERNEL32.dll
 0002:0000005c       __imp__WideCharToMultiByte@32 1006605c     kernel32:KERNEL32.dll
 0002:00000060       __imp__HeapSize@12         10066060     kernel32:KERNEL32.dll
 0002:00000064       __imp__Sleep@4             10066064     kernel32:KERNEL32.dll
 0002:00000068       __imp__LoadLibraryW@4      10066068     kernel32:KERNEL32.dll
 0002:0000006c       __imp__GetModuleFileNameW@12 1006606c     kernel32:KERNEL32.dll
 0002:00000070       __imp__WriteFile@20        10066070     kernel32:KERNEL32.dll
 0002:00000074       __imp__DeleteCriticalSection@4 10066074     kernel32:KERNEL32.dll
 0002:00000078       __imp__GetStartupInfoW@4   10066078     kernel32:KERNEL32.dll
 0002:0000007c       __imp__InitializeCriticalSectionAndSpinCount@8 1006607c     kernel32:KERNEL32.dll
 0002:00000080       __imp__GetStdHandle@4      10066080     kernel32:KERNEL32.dll
 0002:00000084       __imp__SetHandleCount@4    10066084     kernel32:KERNEL32.dll
 0002:00000088       __imp__LeaveCriticalSection@4 10066088     kernel32:KERNEL32.dll
 0002:0000008c       __imp__EnterCriticalSection@4 1006608c     kernel32:KERNEL32.dll
 0002:00000090       __imp__IsValidCodePage@4   10066090     kernel32:KERNEL32.dll
 0002:00000094       __imp__GetOEMCP@0          10066094     kernel32:KERNEL32.dll
 0002:00000098       __imp__GetACP@0            10066098     kernel32:KERNEL32.dll
 0002:0000009c       __imp__GetCPInfo@8         1006609c     kernel32:KERNEL32.dll
 0002:000000a0       __imp__CreateFileA@28      100660a0     kernel32:KERNEL32.dll
 0002:000000a4       __imp__GetFileType@4       100660a4     kernel32:KERNEL32.dll
 0002:000000a8       __imp__CloseHandle@4       100660a8     kernel32:KERNEL32.dll
 0002:000000ac       __imp__IsDebuggerPresent@0 100660ac     kernel32:KERNEL32.dll
 0002:000000b0       __imp__SetUnhandledExceptionFilter@4 100660b0     kernel32:KERNEL32.dll
 0002:000000b4       __imp__UnhandledExceptionFilter@4 100660b4     kernel32:KERNEL32.dll
 0002:000000b8       __imp__GetCurrentProcess@0 100660b8     kernel32:KERNEL32.dll
 0002:000000bc       __imp__TerminateProcess@8  100660bc     kernel32:KERNEL32.dll
 0002:000000c0       __imp__InterlockedDecrement@4 100660c0     kernel32:KERNEL32.dll
 0002:000000c4       __imp__SetLastError@4      100660c4     kernel32:KERNEL32.dll
 0002:000000c8       __imp__InterlockedIncrement@4 100660c8     kernel32:KERNEL32.dll
 0002:000000cc       __imp__TlsFree@4           100660cc     kernel32:KERNEL32.dll
 0002:000000d0       __imp__TlsSetValue@8       100660d0     kernel32:KERNEL32.dll
 0002:000000d4       __imp__TlsGetValue@4       100660d4     kernel32:KERNEL32.dll
 0002:000000d8       __imp__TlsAlloc@0          100660d8     kernel32:KERNEL32.dll
 0002:000000dc       __imp__IsProcessorFeaturePresent@4 100660dc     kernel32:KERNEL32.dll
 0002:000000e0       __imp__GetCommandLineA@0   100660e0     kernel32:KERNEL32.dll
 0002:000000e4       __imp__GetCurrentThreadId@0 100660e4     kernel32:KERNEL32.dll
 0002:000000e8       __imp__HeapAlloc@12        100660e8     kernel32:KERNEL32.dll
 0002:000000ec       __imp__HeapFree@12         100660ec     kernel32:KERNEL32.dll
 0002:000000f0       __imp__GetSystemTimeAsFileTime@4 100660f0     kernel32:KERNEL32.dll
 0002:000000f4       __imp__ExitProcess@4       100660f4     kernel32:KERNEL32.dll
 0002:000000f8       __imp__GetModuleHandleW@4  100660f8     kernel32:KERNEL32.dll
 0002:000000fc       __imp__EncodePointer@4     100660fc     kernel32:KERNEL32.dll
 0002:00000100       __imp__DecodePointer@4     10066100     kernel32:KERNEL32.dll
 0002:00000104       __imp__RaiseException@16   10066104     kernel32:KERNEL32.dll
 0002:00000108       __imp__GetLastError@0      10066108     kernel32:KERNEL32.dll
 0002:0000010c       __imp__RtlUnwind@16        1006610c     kernel32:KERNEL32.dll
 0002:00000110       \177KERNEL32_NULL_THUNK_DATA 10066110     kernel32:KERNEL32.dll
 0002:00000114       __imp__glEnable@4          10066114     opengl32:OPENGL32.dll
 0002:00000118       __imp__glFogi@8            10066118     opengl32:OPENGL32.dll
 0002:0000011c       __imp__glFogfv@8           1006611c     opengl32:OPENGL32.dll
 0002:00000120       __imp__glFogf@8            10066120     opengl32:OPENGL32.dll
 0002:00000124       __imp__glHint@8            10066124     opengl32:OPENGL32.dll
 0002:00000128       \177OPENGL32_NULL_THUNK_DATA 10066128     opengl32:OPENGL32.dll
 0002:0000012c       __imp__SetCursorPos@8      1006612c     user32:USER32.dll
 0002:00000130       __imp__GetCursorPos@4      10066130     user32:USER32.dll
 0002:00000134       __imp__SystemParametersInfoA@16 10066134     user32:USER32.dll
 0002:00000138       \177USER32_NULL_THUNK_DATA 10066138     user32:USER32.dll
 0002:0000013c       __imp__joyGetPosEx@8       1006613c     winmm:WINMM.dll
 0002:00000140       __imp__joyGetNumDevs@0     10066140     winmm:WINMM.dll
 0002:00000144       __imp__joyGetDevCapsA@12   10066144     winmm:WINMM.dll
 0002:00000148       \177WINMM_NULL_THUNK_DATA  10066148     winmm:WINMM.dll
 0002:0000014c       __imp__htons@4             1006614c     wsock32:WSOCK32.dll
 0002:00000150       \177WSOCK32_NULL_THUNK_DATA 10066150     wsock32:WSOCK32.dll
 0002:00000154       __imp_?drawSetColor@Panel@vgui@@MAEXHHHH@Z 10066154     vgui:vgui.dll
 0002:00000158       __imp_?drawSetColor@Panel@vgui@@MAEXW4SchemeColor@Scheme@2@@Z 10066158     vgui:vgui.dll
 0002:0000015c       __imp_?drawFilledRect@Panel@vgui@@MAEXHHHH@Z 1006615c     vgui:vgui.dll
 0002:00000160       __imp_?drawOutlinedRect@Panel@vgui@@MAEXHHHH@Z 10066160     vgui:vgui.dll
 0002:00000164       __imp_?drawSetTextFont@Panel@vgui@@MAEXPAVFont@2@@Z 10066164     vgui:vgui.dll
 0002:00000168       __imp_?drawSetTextFont@Panel@vgui@@MAEXW4SchemeFont@Scheme@2@@Z 10066168     vgui:vgui.dll
 0002:0000016c       __imp_?drawSetTextColor@Panel@vgui@@MAEXHHHH@Z 1006616c     vgui:vgui.dll
 0002:00000170       __imp_?drawSetTextColor@Panel@vgui@@MAEXW4SchemeColor@Scheme@2@@Z 10066170     vgui:vgui.dll
 0002:00000174       __imp_?drawSetTextPos@Panel@vgui@@MAEXHH@Z 10066174     vgui:vgui.dll
 0002:00000178       __imp_?drawPrintText@Panel@vgui@@MAEXHHPBDH@Z 10066178     vgui:vgui.dll
 0002:0000017c       __imp_?drawPrintText@Panel@vgui@@MAEXPBDH@Z 1006617c     vgui:vgui.dll
 0002:00000180       __imp_?drawPrintChar@Panel@vgui@@MAEXHHD@Z 10066180     vgui:vgui.dll
 0002:00000184       __imp_?drawPrintChar@Panel@vgui@@MAEXD@Z 10066184     vgui:vgui.dll
 0002:00000188       __imp_?drawSetTextureRGBA@Panel@vgui@@MAEXHPBDHH@Z 10066188     vgui:vgui.dll
 0002:0000018c       __imp_?drawSetTexture@Panel@vgui@@MAEXH@Z 1006618c     vgui:vgui.dll
 0002:00000190       __imp_?drawTexturedRect@Panel@vgui@@MAEXHHHH@Z 10066190     vgui:vgui.dll
 0002:00000194       __imp_?solve@Panel@vgui@@MAEXXZ 10066194     vgui:vgui.dll
 0002:00000198       __imp_?paintBackground@Panel@vgui@@MAEXXZ 10066198     vgui:vgui.dll
 0002:0000019c       __imp_?paint@Panel@vgui@@MAEXXZ 1006619c     vgui:vgui.dll
 0002:000001a0       __imp_?paintBuildOverlay@Panel@vgui@@MAEXXZ 100661a0     vgui:vgui.dll
 0002:000001a4       __imp_?internalCursorMoved@Panel@vgui@@MAEXHH@Z 100661a4     vgui:vgui.dll
 0002:000001a8       __imp_?internalCursorEntered@Panel@vgui@@MAEXXZ 100661a8     vgui:vgui.dll
 0002:000001ac       __imp_?internalCursorExited@Panel@vgui@@MAEXXZ 100661ac     vgui:vgui.dll
 0002:000001b0       __imp_?internalMousePressed@Panel@vgui@@MAEXW4MouseCode@2@@Z 100661b0     vgui:vgui.dll
 0002:000001b4       __imp_?internalMouseDoublePressed@Panel@vgui@@MAEXW4MouseCode@2@@Z 100661b4     vgui:vgui.dll
 0002:000001b8       __imp_?internalMouseReleased@Panel@vgui@@MAEXW4MouseCode@2@@Z 100661b8     vgui:vgui.dll
 0002:000001bc       __imp_?internalMouseWheeled@Panel@vgui@@MAEXH@Z 100661bc     vgui:vgui.dll
 0002:000001c0       __imp_?internalKeyPressed@Panel@vgui@@MAEXW4KeyCode@2@@Z 100661c0     vgui:vgui.dll
 0002:000001c4       __imp_?internalKeyTyped@Panel@vgui@@MAEXW4KeyCode@2@@Z 100661c4     vgui:vgui.dll
 0002:000001c8       __imp_?internalKeyReleased@Panel@vgui@@MAEXW4KeyCode@2@@Z 100661c8     vgui:vgui.dll
 0002:000001cc       __imp_?internalKeyFocusTicked@Panel@vgui@@MAEXXZ 100661cc     vgui:vgui.dll
 0002:000001d0       __imp_?internalFocusChanged@Panel@vgui@@MAEX_N@Z 100661d0     vgui:vgui.dll
 0002:000001d4       __imp_?internalSetCursor@Panel@vgui@@MAEXXZ 100661d4     vgui:vgui.dll
 0002:000001d8       __imp_?init@Label@vgui@@AAEXHPBD_N@Z 100661d8     vgui:vgui.dll
 0002:000001dc       __imp_??0Panel@vgui@@QAE@HHHH@Z 100661dc     vgui:vgui.dll
 0002:000001e0       __imp_?createPropertyPanel@Label@vgui@@UAEPAVPanel@2@XZ 100661e0     vgui:vgui.dll
 0002:000001e4       __imp_?setFgColor@Label@vgui@@UAEXHHHH@Z 100661e4     vgui:vgui.dll
 0002:000001e8       __imp_?setFgColor@Label@vgui@@UAEXW4SchemeColor@Scheme@2@@Z 100661e8     vgui:vgui.dll
 0002:000001ec       __imp_?paint@Label@vgui@@MAEXXZ 100661ec     vgui:vgui.dll
 0002:000001f0       __imp_?setImage@Label@vgui@@UAEXPAVImage@2@@Z 100661f0     vgui:vgui.dll
 0002:000001f4       __imp_?setText@Label@vgui@@UAAXPBDZZ 100661f4     vgui:vgui.dll
 0002:000001f8       __imp_?setText@Label@vgui@@UAEXHPBD@Z 100661f8     vgui:vgui.dll
 0002:000001fc       __imp_?setFont@Label@vgui@@UAEXPAVFont@2@@Z 100661fc     vgui:vgui.dll
 0002:00000200       __imp_?setFont@Label@vgui@@UAEXW4SchemeFont@Scheme@2@@Z 10066200     vgui:vgui.dll
 0002:00000204       __imp_?getTextSize@Label@vgui@@UAEXAAH0@Z 10066204     vgui:vgui.dll
 0002:00000208       __imp_?getContentSize@Label@vgui@@UAEXAAH0@Z 10066208     vgui:vgui.dll
 0002:0000020c       __imp_?setTextAlignment@Label@vgui@@UAEXW4Alignment@12@@Z 1006620c     vgui:vgui.dll
 0002:00000210       __imp_?setContentAlignment@Label@vgui@@UAEXW4Alignment@12@@Z 10066210     vgui:vgui.dll
 0002:00000214       __imp_?setContentFitted@Label@vgui@@UAEX_N@Z 10066214     vgui:vgui.dll
 0002:00000218       __imp_?computeAlignment@Label@vgui@@MAEXAAH00000000000@Z 10066218     vgui:vgui.dll
 0002:0000021c       __imp_?recomputeMinimumSize@Label@vgui@@MAEXXZ 1006621c     vgui:vgui.dll
 0002:00000220       __imp_?setPos@Image@vgui@@UAEXHH@Z 10066220     vgui:vgui.dll
 0002:00000224       __imp_?getPos@Image@vgui@@UAEXAAH0@Z 10066224     vgui:vgui.dll
 0002:00000228       __imp_?getSize@Image@vgui@@UAEXAAH0@Z 10066228     vgui:vgui.dll
 0002:0000022c       __imp_?setColor@Image@vgui@@UAEXVColor@2@@Z 1006622c     vgui:vgui.dll
 0002:00000230       __imp_?getColor@Image@vgui@@UAEXAAVColor@2@@Z 10066230     vgui:vgui.dll
 0002:00000234       __imp_?setSize@Image@vgui@@MAEXHH@Z 10066234     vgui:vgui.dll
 0002:00000238       __imp_?drawSetColor@Image@vgui@@MAEXHHHH@Z 10066238     vgui:vgui.dll
 0002:0000023c       __imp_?drawSetColor@Image@vgui@@MAEXW4SchemeColor@Scheme@2@@Z 1006623c     vgui:vgui.dll
 0002:00000240       __imp_?drawFilledRect@Image@vgui@@MAEXHHHH@Z 10066240     vgui:vgui.dll
 0002:00000244       __imp_?drawOutlinedRect@Image@vgui@@MAEXHHHH@Z 10066244     vgui:vgui.dll
 0002:00000248       __imp_?drawSetTextFont@Image@vgui@@MAEXPAVFont@2@@Z 10066248     vgui:vgui.dll
 0002:0000024c       __imp_?drawSetTextFont@Image@vgui@@MAEXW4SchemeFont@Scheme@2@@Z 1006624c     vgui:vgui.dll
 0002:00000250       __imp_?drawSetTextColor@Image@vgui@@MAEXHHHH@Z 10066250     vgui:vgui.dll
 0002:00000254       __imp_?drawSetTextColor@Image@vgui@@MAEXW4SchemeColor@Scheme@2@@Z 10066254     vgui:vgui.dll
 0002:00000258       __imp_?drawSetTextPos@Image@vgui@@MAEXHH@Z 10066258     vgui:vgui.dll
 0002:0000025c       __imp_?drawPrintText@Image@vgui@@MAEXHHPBDH@Z 1006625c     vgui:vgui.dll
 0002:00000260       __imp_?drawPrintText@Image@vgui@@MAEXPBDH@Z 10066260     vgui:vgui.dll
 0002:00000264       __imp_?drawPrintChar@Image@vgui@@MAEXHHD@Z 10066264     vgui:vgui.dll
 0002:00000268       __imp_?drawPrintChar@Image@vgui@@MAEXD@Z 10066268     vgui:vgui.dll
 0002:0000026c       __imp_?drawSetTextureRGBA@Image@vgui@@MAEXHPBDHH@Z 1006626c     vgui:vgui.dll
 0002:00000270       __imp_?drawSetTexture@Image@vgui@@MAEXH@Z 10066270     vgui:vgui.dll
 0002:00000274       __imp_?drawTexturedRect@Image@vgui@@MAEXHHHH@Z 10066274     vgui:vgui.dll
 0002:00000278       __imp_?paint@Image@vgui@@MAEXPAVPanel@2@@Z 10066278     vgui:vgui.dll
 0002:0000027c       __imp_?doPaint@Image@vgui@@UAEXPAVPanel@2@@Z 1006627c     vgui:vgui.dll
 0002:00000280       __imp_?drawFilledRect@Border@vgui@@MAEXHHHH@Z 10066280     vgui:vgui.dll
 0002:00000284       __imp_?drawOutlinedRect@Border@vgui@@MAEXHHHH@Z 10066284     vgui:vgui.dll
 0002:00000288       __imp_?drawSetTextPos@Border@vgui@@MAEXHH@Z 10066288     vgui:vgui.dll
 0002:0000028c       __imp_?drawPrintText@Border@vgui@@MAEXHHPBDH@Z 1006628c     vgui:vgui.dll
 0002:00000290       __imp_?drawPrintChar@Border@vgui@@MAEXHHD@Z 10066290     vgui:vgui.dll
 0002:00000294       __imp_?setInset@Border@vgui@@UAEXHHHH@Z 10066294     vgui:vgui.dll
 0002:00000298       __imp_?getInset@Border@vgui@@UAEXAAH000@Z 10066298     vgui:vgui.dll
 0002:0000029c       __imp_??0Color@vgui@@QAE@HHHH@Z 1006629c     vgui:vgui.dll
 0002:000002a0       __imp_?paint@LineBorder@vgui@@MAEXPAVPanel@2@@Z 100662a0     vgui:vgui.dll
 0002:000002a4       __imp_?init@LineBorder@vgui@@EAEXHVColor@2@@Z 100662a4     vgui:vgui.dll
 0002:000002a8       __imp_??0Panel@vgui@@QAE@XZ 100662a8     vgui:vgui.dll
 0002:000002ac       __imp_?paintBackground@ImagePanel@vgui@@MAEXXZ 100662ac     vgui:vgui.dll
 0002:000002b0       __imp_?setImage@ImagePanel@vgui@@UAEXPAVImage@2@@Z 100662b0     vgui:vgui.dll
 0002:000002b4       __imp_?setSize@Bitmap@vgui@@MAEXHH@Z 100662b4     vgui:vgui.dll
 0002:000002b8       __imp_?paint@Bitmap@vgui@@UAEXPAVPanel@2@@Z 100662b8     vgui:vgui.dll
 0002:000002bc       __imp_?setRGBA@Bitmap@vgui@@MAEXHHEEEE@Z 100662bc     vgui:vgui.dll
 0002:000002c0       __imp_?loadTGA@BitmapTGA@vgui@@EAE_NPAVInputStream@2@_N@Z 100662c0     vgui:vgui.dll
 0002:000002c4       __imp_?createPropertyPanel@Button@vgui@@UAEPAVPanel@2@XZ 100662c4     vgui:vgui.dll
 0002:000002c8       __imp_?paintBackground@Button@vgui@@MAEXXZ 100662c8     vgui:vgui.dll
 0002:000002cc       __imp_?setSelected@Button@vgui@@UAEX_N@Z 100662cc     vgui:vgui.dll
 0002:000002d0       __imp_?setSelectedDirect@Button@vgui@@UAEX_N@Z 100662d0     vgui:vgui.dll
 0002:000002d4       __imp_?setArmed@Button@vgui@@UAEX_N@Z 100662d4     vgui:vgui.dll
 0002:000002d8       __imp_?isSelected@Button@vgui@@UAE_NXZ 100662d8     vgui:vgui.dll
 0002:000002dc       __imp_?doClick@Button@vgui@@UAEXXZ 100662dc     vgui:vgui.dll
 0002:000002e0       __imp_?addActionSignal@Button@vgui@@UAEXPAVActionSignal@2@@Z 100662e0     vgui:vgui.dll
 0002:000002e4       __imp_?setButtonGroup@Button@vgui@@UAEXPAVButtonGroup@2@@Z 100662e4     vgui:vgui.dll
 0002:000002e8       __imp_?isArmed@Button@vgui@@UAE_NXZ 100662e8     vgui:vgui.dll
 0002:000002ec       __imp_?setButtonBorderEnabled@Button@vgui@@UAEX_N@Z 100662ec     vgui:vgui.dll
 0002:000002f0       __imp_?setMouseClickEnabled@Button@vgui@@UAEXW4MouseCode@2@_N@Z 100662f0     vgui:vgui.dll
 0002:000002f4       __imp_?isMouseClickEnabled@Button@vgui@@UAE_NW4MouseCode@2@@Z 100662f4     vgui:vgui.dll
 0002:000002f8       __imp_?fireActionSignal@Button@vgui@@UAEXXZ 100662f8     vgui:vgui.dll
 0002:000002fc       __imp_?setButtonController@Button@vgui@@MAEXPAVButtonController@2@@Z 100662fc     vgui:vgui.dll
 0002:00000300       __imp_?setSize@Frame@vgui@@UAEXHH@Z 10066300     vgui:vgui.dll
 0002:00000304       __imp_?setVisible@Frame@vgui@@UAEX_N@Z 10066304     vgui:vgui.dll
 0002:00000308       __imp_?paintBackground@Frame@vgui@@UAEXXZ 10066308     vgui:vgui.dll
 0002:0000030c       __imp_?setInternal@Frame@vgui@@UAEX_N@Z 1006630c     vgui:vgui.dll
 0002:00000310       __imp_?isInternal@Frame@vgui@@UAE_NXZ 10066310     vgui:vgui.dll
 0002:00000314       __imp_?getClient@Frame@vgui@@UAEPAVPanel@2@XZ 10066314     vgui:vgui.dll
 0002:00000318       __imp_?setTitle@Frame@vgui@@UAEXPBD@Z 10066318     vgui:vgui.dll
 0002:0000031c       __imp_?getTitle@Frame@vgui@@UAEXPADH@Z 1006631c     vgui:vgui.dll
 0002:00000320       __imp_?setMoveable@Frame@vgui@@UAEX_N@Z 10066320     vgui:vgui.dll
 0002:00000324       __imp_?setSizeable@Frame@vgui@@UAEX_N@Z 10066324     vgui:vgui.dll
 0002:00000328       __imp_?isMoveable@Frame@vgui@@UAE_NXZ 10066328     vgui:vgui.dll
 0002:0000032c       __imp_?isSizeable@Frame@vgui@@UAE_NXZ 1006632c     vgui:vgui.dll
 0002:00000330       __imp_?addFrameSignal@Frame@vgui@@UAEXPAVFrameSignal@2@@Z 10066330     vgui:vgui.dll
 0002:00000334       __imp_?setMenuButtonVisible@Frame@vgui@@UAEX_N@Z 10066334     vgui:vgui.dll
 0002:00000338       __imp_?setTrayButtonVisible@Frame@vgui@@UAEX_N@Z 10066338     vgui:vgui.dll
 0002:0000033c       __imp_?setMinimizeButtonVisible@Frame@vgui@@UAEX_N@Z 1006633c     vgui:vgui.dll
 0002:00000340       __imp_?setMaximizeButtonVisible@Frame@vgui@@UAEX_N@Z 10066340     vgui:vgui.dll
 0002:00000344       __imp_?setCloseButtonVisible@Frame@vgui@@UAEX_N@Z 10066344     vgui:vgui.dll
 0002:00000348       __imp_?fireClosingSignal@Frame@vgui@@UAEXXZ 10066348     vgui:vgui.dll
 0002:0000034c       __imp_?fireMinimizingSignal@Frame@vgui@@UAEXXZ 1006634c     vgui:vgui.dll
 0002:00000350       __imp_?setSize@TextPanel@vgui@@UAEXHH@Z 10066350     vgui:vgui.dll
 0002:00000354       __imp_?setFgColor@TextPanel@vgui@@UAEXHHHH@Z 10066354     vgui:vgui.dll
 0002:00000358       __imp_?setFgColor@TextPanel@vgui@@UAEXW4SchemeColor@Scheme@2@@Z 10066358     vgui:vgui.dll
 0002:0000035c       __imp_?paint@TextPanel@vgui@@MAEXXZ 1006635c     vgui:vgui.dll
 0002:00000360       __imp_?setText@TextPanel@vgui@@UAEXPBD@Z 10066360     vgui:vgui.dll
 0002:00000364       __imp_?setFont@TextPanel@vgui@@UAEXPAVFont@2@@Z 10066364     vgui:vgui.dll
 0002:00000368       __imp_?setFont@TextPanel@vgui@@UAEXW4SchemeFont@Scheme@2@@Z 10066368     vgui:vgui.dll
 0002:0000036c       __imp_?getTextImage@TextPanel@vgui@@UAEPAVTextImage@2@XZ 1006636c     vgui:vgui.dll
 0002:00000370       __imp_?seekStart@FileInputStream@vgui@@UAEXAA_N@Z 10066370     vgui:vgui.dll
 0002:00000374       __imp_?seekRelative@FileInputStream@vgui@@UAEXHAA_N@Z 10066374     vgui:vgui.dll
 0002:00000378       __imp_?seekEnd@FileInputStream@vgui@@UAEXAA_N@Z 10066378     vgui:vgui.dll
 0002:0000037c       __imp_?getAvailable@FileInputStream@vgui@@UAEHAA_N@Z 1006637c     vgui:vgui.dll
 0002:00000380       __imp_?readUChar@FileInputStream@vgui@@UAEXPAEHAA_N@Z 10066380     vgui:vgui.dll
 0002:00000384       __imp_?readUChar@FileInputStream@vgui@@UAEEAA_N@Z 10066384     vgui:vgui.dll
 0002:00000388       __imp_?close@FileInputStream@vgui@@UAEXAA_N@Z 10066388     vgui:vgui.dll
 0002:0000038c       __imp_?close@FileInputStream@vgui@@UAEXXZ 1006638c     vgui:vgui.dll
 0002:00000390       __imp_?paintBackground@DesktopIcon@vgui@@MAEXXZ 10066390     vgui:vgui.dll
 0002:00000394       __imp_?doActivate@DesktopIcon@vgui@@UAEXXZ 10066394     vgui:vgui.dll
 0002:00000398       __imp_?setImage@DesktopIcon@vgui@@UAEXPAVImage@2@@Z 10066398     vgui:vgui.dll
 0002:0000039c       __imp_?setDesktop@DesktopIcon@vgui@@UAEXPAVDesktop@2@@Z 1006639c     vgui:vgui.dll
 0002:000003a0       __imp_?getMiniApp@DesktopIcon@vgui@@UAEPAVMiniApp@2@XZ 100663a0     vgui:vgui.dll
 0002:000003a4       __imp_?getHotspot@Cursor@vgui@@UAEXAAH0@Z 100663a4     vgui:vgui.dll
 0002:000003a8       __imp_?privateInit@Cursor@vgui@@EAEXPAVBitmap@2@HH@Z 100663a8     vgui:vgui.dll
 0002:000003ac       __imp_?getBitmap@Cursor@vgui@@UAEPAVBitmap@2@XZ 100663ac     vgui:vgui.dll
 0002:000003b0       __imp_?getDefaultCursor@Cursor@vgui@@UAE?AW4DefaultCursor@12@XZ 100663b0     vgui:vgui.dll
 0002:000003b4       __imp_?start@App@vgui@@UAEXXZ 100663b4     vgui:vgui.dll
 0002:000003b8       __imp_?stop@App@vgui@@UAEXXZ 100663b8     vgui:vgui.dll
 0002:000003bc       __imp_?externalTick@App@vgui@@UAEXXZ 100663bc     vgui:vgui.dll
 0002:000003c0       __imp_?wasMousePressed@App@vgui@@UAE_NW4MouseCode@2@PAVPanel@2@@Z 100663c0     vgui:vgui.dll
 0002:000003c4       __imp_?wasMouseDoublePressed@App@vgui@@UAE_NW4MouseCode@2@PAVPanel@2@@Z 100663c4     vgui:vgui.dll
 0002:000003c8       __imp_?isMouseDown@App@vgui@@UAE_NW4MouseCode@2@PAVPanel@2@@Z 100663c8     vgui:vgui.dll
 0002:000003cc       __imp_?wasMouseReleased@App@vgui@@UAE_NW4MouseCode@2@PAVPanel@2@@Z 100663cc     vgui:vgui.dll
 0002:000003d0       __imp_?wasKeyPressed@App@vgui@@UAE_NW4KeyCode@2@PAVPanel@2@@Z 100663d0     vgui:vgui.dll
 0002:000003d4       __imp_?isKeyDown@App@vgui@@UAE_NW4KeyCode@2@PAVPanel@2@@Z 100663d4     vgui:vgui.dll
 0002:000003d8       __imp_?wasKeyTyped@App@vgui@@UAE_NW4KeyCode@2@PAVPanel@2@@Z 100663d8     vgui:vgui.dll
 0002:000003dc       __imp_?wasKeyReleased@App@vgui@@UAE_NW4KeyCode@2@PAVPanel@2@@Z 100663dc     vgui:vgui.dll
 0002:000003e0       __imp_?addTickSignal@App@vgui@@UAEXPAVTickSignal@2@@Z 100663e0     vgui:vgui.dll
 0002:000003e4       __imp_?setCursorPos@App@vgui@@UAEXHH@Z 100663e4     vgui:vgui.dll
 0002:000003e8       __imp_?getCursorPos@App@vgui@@UAEXAAH0@Z 100663e8     vgui:vgui.dll
 0002:000003ec       __imp_?setMouseCapture@App@vgui@@UAEXPAVPanel@2@@Z 100663ec     vgui:vgui.dll
 0002:000003f0       __imp_?setMouseArena@App@vgui@@UAEXPAVPanel@2@@Z 100663f0     vgui:vgui.dll
 0002:000003f4       __imp_?setMouseArena@App@vgui@@UAEXHHHH_N@Z 100663f4     vgui:vgui.dll
 0002:000003f8       __imp_?requestFocus@App@vgui@@UAEXPAVPanel@2@@Z 100663f8     vgui:vgui.dll
 0002:000003fc       __imp_?getFocus@App@vgui@@UAEPAVPanel@2@XZ 100663fc     vgui:vgui.dll
 0002:00000400       __imp_?repaintAll@App@vgui@@UAEXXZ 10066400     vgui:vgui.dll
 0002:00000404       __imp_?setScheme@App@vgui@@UAEXPAVScheme@2@@Z 10066404     vgui:vgui.dll
 0002:00000408       __imp_?getScheme@App@vgui@@UAEPAVScheme@2@XZ 10066408     vgui:vgui.dll
 0002:0000040c       __imp_?enableBuildMode@App@vgui@@UAEXXZ 1006640c     vgui:vgui.dll
 0002:00000410       __imp_?getTimeMillis@App@vgui@@UAEJXZ 10066410     vgui:vgui.dll
 0002:00000414       __imp_?getKeyCodeChar@App@vgui@@UAEDW4KeyCode@2@_N@Z 10066414     vgui:vgui.dll
 0002:00000418       __imp_?getKeyCodeText@App@vgui@@UAEXW4KeyCode@2@PADH@Z 10066418     vgui:vgui.dll
 0002:0000041c       __imp_?getClipboardTextCount@App@vgui@@UAEHXZ 1006641c     vgui:vgui.dll
 0002:00000420       __imp_?setClipboardText@App@vgui@@UAEXPBDH@Z 10066420     vgui:vgui.dll
 0002:00000424       __imp_?getClipboardText@App@vgui@@UAEHHPADH@Z 10066424     vgui:vgui.dll
 0002:00000428       __imp_?reset@App@vgui@@UAEXXZ 10066428     vgui:vgui.dll
 0002:0000042c       __imp_?internalSetMouseArena@App@vgui@@UAEXHHHH_N@Z 1006642c     vgui:vgui.dll
 0002:00000430       __imp_?setRegistryString@App@vgui@@UAE_NPBD0@Z 10066430     vgui:vgui.dll
 0002:00000434       __imp_?getRegistryString@App@vgui@@UAE_NPBDPADH@Z 10066434     vgui:vgui.dll
 0002:00000438       __imp_?setRegistryInteger@App@vgui@@UAE_NPBDH@Z 10066438     vgui:vgui.dll
 0002:0000043c       __imp_?getRegistryInteger@App@vgui@@UAE_NPBDAAH@Z 1006643c     vgui:vgui.dll
 0002:00000440       __imp_?setCursorOveride@App@vgui@@UAEXPAVCursor@2@@Z 10066440     vgui:vgui.dll
 0002:00000444       __imp_?getCursorOveride@App@vgui@@UAEPAVCursor@2@XZ 10066444     vgui:vgui.dll
 0002:00000448       __imp_?setMinimumTickMillisInterval@App@vgui@@UAEXH@Z 10066448     vgui:vgui.dll
 0002:0000044c       __imp_?run@App@vgui@@UAEXXZ 1006644c     vgui:vgui.dll
 0002:00000450       __imp_?internalCursorMoved@App@vgui@@UAEXHHPAVSurfaceBase@2@@Z 10066450     vgui:vgui.dll
 0002:00000454       __imp_?internalMousePressed@App@vgui@@UAEXW4MouseCode@2@PAVSurfaceBase@2@@Z 10066454     vgui:vgui.dll
 0002:00000458       __imp_?internalMouseDoublePressed@App@vgui@@UAEXW4MouseCode@2@PAVSurfaceBase@2@@Z 10066458     vgui:vgui.dll
 0002:0000045c       __imp_?internalMouseReleased@App@vgui@@UAEXW4MouseCode@2@PAVSurfaceBase@2@@Z 1006645c     vgui:vgui.dll
 0002:00000460       __imp_?internalMouseWheeled@App@vgui@@UAEXHPAVSurfaceBase@2@@Z 10066460     vgui:vgui.dll
 0002:00000464       __imp_?internalKeyPressed@App@vgui@@UAEXW4KeyCode@2@PAVSurfaceBase@2@@Z 10066464     vgui:vgui.dll
 0002:00000468       __imp_?internalKeyTyped@App@vgui@@UAEXW4KeyCode@2@PAVSurfaceBase@2@@Z 10066468     vgui:vgui.dll
 0002:0000046c       __imp_?internalKeyReleased@App@vgui@@UAEXW4KeyCode@2@PAVSurfaceBase@2@@Z 1006646c     vgui:vgui.dll
 0002:00000470       __imp_?init@App@vgui@@EAEXXZ 10066470     vgui:vgui.dll
 0002:00000474       __imp_?updateMouseFocus@App@vgui@@EAEXHHPAVSurfaceBase@2@@Z 10066474     vgui:vgui.dll
 0002:00000478       __imp_?setMouseFocus@App@vgui@@EAEXPAVPanel@2@@Z 10066478     vgui:vgui.dll
 0002:0000047c       __imp_?surfaceBaseCreated@App@vgui@@MAEXPAVSurfaceBase@2@@Z 1006647c     vgui:vgui.dll
 0002:00000480       __imp_?surfaceBaseDeleted@App@vgui@@MAEXPAVSurfaceBase@2@@Z 10066480     vgui:vgui.dll
 0002:00000484       __imp_?platTick@App@vgui@@MAEXXZ 10066484     vgui:vgui.dll
 0002:00000488       __imp_?internalTick@App@vgui@@MAEXXZ 10066488     vgui:vgui.dll
 0002:0000048c       __imp_?getName@MiniApp@vgui@@UAEXPADH@Z 1006648c     vgui:vgui.dll
 0002:00000490       __imp_?setName@MiniApp@vgui@@MAEXPBD@Z 10066490     vgui:vgui.dll
 0002:00000494       __imp_?setSize@ScrollPanel@vgui@@MAEXHH@Z 10066494     vgui:vgui.dll
 0002:00000498       __imp_?setScrollBarVisible@ScrollPanel@vgui@@UAEX_N0@Z 10066498     vgui:vgui.dll
 0002:0000049c       __imp_?setScrollBarAutoVisible@ScrollPanel@vgui@@UAEX_N0@Z 1006649c     vgui:vgui.dll
 0002:000004a0       __imp_?getClient@ScrollPanel@vgui@@UAEPAVPanel@2@XZ 100664a0     vgui:vgui.dll
 0002:000004a4       __imp_?getClientClip@ScrollPanel@vgui@@UAEPAVPanel@2@XZ 100664a4     vgui:vgui.dll
 0002:000004a8       __imp_?setScrollValue@ScrollPanel@vgui@@UAEXHH@Z 100664a8     vgui:vgui.dll
 0002:000004ac       __imp_?getScrollValue@ScrollPanel@vgui@@UAEXAAH0@Z 100664ac     vgui:vgui.dll
 0002:000004b0       __imp_?recomputeClientSize@ScrollPanel@vgui@@UAEXXZ 100664b0     vgui:vgui.dll
 0002:000004b4       __imp_?getHorizontalScrollBar@ScrollPanel@vgui@@UAEPAVScrollBar@2@XZ 100664b4     vgui:vgui.dll
 0002:000004b8       __imp_?getVerticalScrollBar@ScrollPanel@vgui@@UAEPAVScrollBar@2@XZ 100664b8     vgui:vgui.dll
 0002:000004bc       __imp_?validate@ScrollPanel@vgui@@UAEXXZ 100664bc     vgui:vgui.dll
 0002:000004c0       __imp_?recomputeScroll@ScrollPanel@vgui@@UAEXXZ 100664c0     vgui:vgui.dll
 0002:000004c4       __imp_?setSize@ScrollBar@vgui@@UAEXHH@Z 100664c4     vgui:vgui.dll
 0002:000004c8       __imp_?performLayout@ScrollBar@vgui@@MAEXXZ 100664c8     vgui:vgui.dll
 0002:000004cc       __imp_?setValue@ScrollBar@vgui@@UAEXH@Z 100664cc     vgui:vgui.dll
 0002:000004d0       __imp_?setSurfaceBaseTraverse@Panel@vgui@@UAEXPAVSurfaceBase@2@@Z 100664d0     vgui:vgui.dll
 0002:000004d4       __imp_?addIntChangeSignal@ScrollBar@vgui@@UAEXPAVIntChangeSignal@2@@Z 100664d4     vgui:vgui.dll
 0002:000004d8       __imp_?internalPerformLayout@Panel@vgui@@MAEXXZ 100664d8     vgui:vgui.dll
 0002:000004dc       __imp_?setRangeWindow@ScrollBar@vgui@@UAEXH@Z 100664dc     vgui:vgui.dll
 0002:000004e0       __imp_?setRangeWindowEnabled@ScrollBar@vgui@@UAEX_N@Z 100664e0     vgui:vgui.dll
 0002:000004e4       __imp_?isVertical@ScrollBar@vgui@@UAE_NXZ 100664e4     vgui:vgui.dll
 0002:000004e8       __imp_?hasFullRange@ScrollBar@vgui@@UAE_NXZ 100664e8     vgui:vgui.dll
 0002:000004ec       __imp_?setButton@ScrollBar@vgui@@UAEXPAVButton@2@H@Z 100664ec     vgui:vgui.dll
 0002:000004f0       __imp_?getButton@ScrollBar@vgui@@UAEPAVButton@2@H@Z 100664f0     vgui:vgui.dll
 0002:000004f4       __imp_?setSlider@ScrollBar@vgui@@UAEXPAVSlider@2@@Z 100664f4     vgui:vgui.dll
 0002:000004f8       __imp_?getSlider@ScrollBar@vgui@@UAEPAVSlider@2@XZ 100664f8     vgui:vgui.dll
 0002:000004fc       __imp_?doButtonPressed@ScrollBar@vgui@@UAEXH@Z 100664fc     vgui:vgui.dll
 0002:00000500       __imp_?setButtonPressedScrollValue@ScrollBar@vgui@@UAEXH@Z 10066500     vgui:vgui.dll
 0002:00000504       __imp_?validate@ScrollBar@vgui@@UAEXXZ 10066504     vgui:vgui.dll
 0002:00000508       __imp_?fireIntChangeSignal@ScrollBar@vgui@@UAEXXZ 10066508     vgui:vgui.dll
 0002:0000050c       __imp_?setSize@Slider@vgui@@UAEXHH@Z 1006650c     vgui:vgui.dll
 0002:00000510       __imp_?paintBackground@Slider@vgui@@MAEXXZ 10066510     vgui:vgui.dll
 0002:00000514       __imp_?setValue@Slider@vgui@@UAEXH@Z 10066514     vgui:vgui.dll
 0002:00000518       __imp_?getValue@Slider@vgui@@UAEHXZ 10066518     vgui:vgui.dll
 0002:0000051c       __imp_?isVertical@Slider@vgui@@UAE_NXZ 1006651c     vgui:vgui.dll
 0002:00000520       __imp_?addIntChangeSignal@Slider@vgui@@UAEXPAVIntChangeSignal@2@@Z 10066520     vgui:vgui.dll
 0002:00000524       __imp_?setRange@Slider@vgui@@UAEXHH@Z 10066524     vgui:vgui.dll
 0002:00000528       __imp_?getRange@Slider@vgui@@UAEXAAH0@Z 10066528     vgui:vgui.dll
 0002:0000052c       __imp_?setRangeWindow@Slider@vgui@@UAEXH@Z 1006652c     vgui:vgui.dll
 0002:00000530       __imp_?setRangeWindowEnabled@Slider@vgui@@UAEX_N@Z 10066530     vgui:vgui.dll
 0002:00000534       __imp_?getNobPos@Slider@vgui@@UAEXAAH0@Z 10066534     vgui:vgui.dll
 0002:00000538       __imp_?hasFullRange@Slider@vgui@@UAE_NXZ 10066538     vgui:vgui.dll
 0002:0000053c       __imp_?setButtonOffset@Slider@vgui@@UAEXH@Z 1006653c     vgui:vgui.dll
 0002:00000540       __imp_?recomputeNobPosFromValue@Slider@vgui@@EAEXXZ 10066540     vgui:vgui.dll
 0002:00000544       __imp_?recomputeValueFromNobPos@Slider@vgui@@EAEXXZ 10066544     vgui:vgui.dll
 0002:00000548       __imp_?privateCursorMoved@Slider@vgui@@UAEXHHPAVPanel@2@@Z 10066548     vgui:vgui.dll
 0002:0000054c       __imp_?privateMousePressed@Slider@vgui@@UAEXW4MouseCode@2@PAVPanel@2@@Z 1006654c     vgui:vgui.dll
 0002:00000550       __imp_?privateMouseReleased@Slider@vgui@@UAEXW4MouseCode@2@PAVPanel@2@@Z 10066550     vgui:vgui.dll
 0002:00000554       __imp_?fireIntChangeSignal@Slider@vgui@@MAEXXZ 10066554     vgui:vgui.dll
 0002:00000558       __imp_?init@Font@vgui@@EAEXPBDPAXHHHMH_N222@Z 10066558     vgui:vgui.dll
 0002:0000055c       __imp_?getCharRGBA@Font@vgui@@UAEXHHHHHPAE@Z 1006655c     vgui:vgui.dll
 0002:00000560       __imp_?getCharABCwide@Font@vgui@@UAEXHAAH00@Z 10066560     vgui:vgui.dll
 0002:00000564       __imp_?getTextSize@Font@vgui@@UAEXPBDAAH1@Z 10066564     vgui:vgui.dll
 0002:00000568       __imp_?getTall@Font@vgui@@UAEHXZ 10066568     vgui:vgui.dll
 0002:0000056c       __imp_?getId@Font@vgui@@UAEHXZ 1006656c     vgui:vgui.dll
 0002:00000570       __imp_?isWithinTraverse@TablePanel@vgui@@MAEPAVPanel@2@HH@Z 10066570     vgui:vgui.dll
 0002:00000574       __imp_?getVirtualSize@TablePanel@vgui@@UAEXAAH0@Z 10066574     vgui:vgui.dll
 0002:00000578       __imp_?paint@TablePanel@vgui@@MAEXXZ 10066578     vgui:vgui.dll
 0002:0000057c       __imp_?setCellEditingEnabled@TablePanel@vgui@@UAEX_N@Z 1006657c     vgui:vgui.dll
 0002:00000580       __imp_?setColumnCount@TablePanel@vgui@@UAEXH@Z 10066580     vgui:vgui.dll
 0002:00000584       __imp_?setGridVisible@TablePanel@vgui@@UAEX_N0@Z 10066584     vgui:vgui.dll
 0002:00000588       __imp_?setGridSize@TablePanel@vgui@@UAEXHH@Z 10066588     vgui:vgui.dll
 0002:0000058c       __imp_?getColumnCount@TablePanel@vgui@@UAEHXZ 1006658c     vgui:vgui.dll
 0002:00000590       __imp_?setColumnExtents@TablePanel@vgui@@UAEXHHH@Z 10066590     vgui:vgui.dll
 0002:00000594       __imp_?setSelectedCell@TablePanel@vgui@@UAEXHH@Z 10066594     vgui:vgui.dll
 0002:00000598       __imp_?getSelectedCell@TablePanel@vgui@@UAEXAAH0@Z 10066598     vgui:vgui.dll
 0002:0000059c       __imp_?setHeaderPanel@TablePanel@vgui@@UAEXPAVHeaderPanel@2@@Z 1006659c     vgui:vgui.dll
 0002:000005a0       __imp_?setColumnSelectionEnabled@TablePanel@vgui@@UAEX_N@Z 100665a0     vgui:vgui.dll
 0002:000005a4       __imp_?setRowSelectionEnabled@TablePanel@vgui@@UAEX_N@Z 100665a4     vgui:vgui.dll
 0002:000005a8       __imp_?setCellSectionEnabled@TablePanel@vgui@@UAEX_N@Z 100665a8     vgui:vgui.dll
 0002:000005ac       __imp_?setEditableCell@TablePanel@vgui@@UAEXHH@Z 100665ac     vgui:vgui.dll
 0002:000005b0       __imp_?stopCellEditing@TablePanel@vgui@@UAEXXZ 100665b0     vgui:vgui.dll
 0002:000005b4       __imp_?privateMousePressed@TablePanel@vgui@@EAEXW4MouseCode@2@PAVPanel@2@@Z 100665b4     vgui:vgui.dll
 0002:000005b8       __imp_?privateMouseDoublePressed@TablePanel@vgui@@EAEXW4MouseCode@2@PAVPanel@2@@Z 100665b8     vgui:vgui.dll
 0002:000005bc       __imp_?privateKeyTyped@TablePanel@vgui@@EAEXW4KeyCode@2@PAVPanel@2@@Z 100665bc     vgui:vgui.dll
 0002:000005c0       __imp_?performLayout@HeaderPanel@vgui@@MAEXXZ 100665c0     vgui:vgui.dll
 0002:000005c4       __imp_?addSectionPanel@HeaderPanel@vgui@@UAEXPAVPanel@2@@Z 100665c4     vgui:vgui.dll
 0002:000005c8       __imp_?setSliderPos@HeaderPanel@vgui@@UAEXHH@Z 100665c8     vgui:vgui.dll
 0002:000005cc       __imp_?getSectionCount@HeaderPanel@vgui@@UAEHXZ 100665cc     vgui:vgui.dll
 0002:000005d0       __imp_?getSectionExtents@HeaderPanel@vgui@@UAEXHAAH0@Z 100665d0     vgui:vgui.dll
 0002:000005d4       __imp_?addChangeSignal@HeaderPanel@vgui@@UAEXPAVChangeSignal@2@@Z 100665d4     vgui:vgui.dll
 0002:000005d8       __imp_?fireChangeSignal@HeaderPanel@vgui@@UAEXXZ 100665d8     vgui:vgui.dll
 0002:000005dc       __imp_?privateCursorMoved@HeaderPanel@vgui@@UAEXHHPAVPanel@2@@Z 100665dc     vgui:vgui.dll
 0002:000005e0       __imp_?privateMousePressed@HeaderPanel@vgui@@UAEXW4MouseCode@2@PAVPanel@2@@Z 100665e0     vgui:vgui.dll
 0002:000005e4       __imp_?privateMouseReleased@HeaderPanel@vgui@@UAEXW4MouseCode@2@PAVPanel@2@@Z 100665e4     vgui:vgui.dll
 0002:000005e8       __imp_?paintBackground@TextGrid@vgui@@MAEXXZ 100665e8     vgui:vgui.dll
 0002:000005ec       __imp_?setGridSize@TextGrid@vgui@@UAEXHH@Z 100665ec     vgui:vgui.dll
 0002:000005f0       __imp_?newLine@TextGrid@vgui@@UAEXXZ 100665f0     vgui:vgui.dll
 0002:000005f4       __imp_?setXY@TextGrid@vgui@@UAEXHH@Z 100665f4     vgui:vgui.dll
 0002:000005f8       __imp_?vprintf@TextGrid@vgui@@UAEHPBDPAD@Z 100665f8     vgui:vgui.dll
 0002:000005fc       __imp_?printf@TextGrid@vgui@@UAAHPBDZZ 100665fc     vgui:vgui.dll
 0002:00000600       __imp_?setSize@TextImage@vgui@@UAEXHH@Z 10066600     vgui:vgui.dll
 0002:00000604       __imp_?paint@TextImage@vgui@@MAEXPAVPanel@2@@Z 10066604     vgui:vgui.dll
 0002:00000608       __imp_?init@TextImage@vgui@@EAEXHPBD@Z 10066608     vgui:vgui.dll
 0002:0000060c       __imp_?getTextSize@TextImage@vgui@@UAEXAAH0@Z 1006660c     vgui:vgui.dll
 0002:00000610       __imp_?getTextSizeWrapped@TextImage@vgui@@UAEXAAH0@Z 10066610     vgui:vgui.dll
 0002:00000614       __imp_?getFont@TextImage@vgui@@UAEPAVFont@2@XZ 10066614     vgui:vgui.dll
 0002:00000618       __imp_?setText@TextImage@vgui@@UAEXPBD@Z 10066618     vgui:vgui.dll
 0002:0000061c       __imp_?setText@TextImage@vgui@@UAEXHPBD@Z 1006661c     vgui:vgui.dll
 0002:00000620       __imp_?setFont@TextImage@vgui@@UAEXPAVFont@2@@Z 10066620     vgui:vgui.dll
 0002:00000624       __imp_?setFont@TextImage@vgui@@UAEXW4SchemeFont@Scheme@2@@Z 10066624     vgui:vgui.dll
 0002:00000628       __imp_??0ImagePanel@vgui@@QAE@PAVImage@1@@Z 10066628     vgui:vgui.dll
 0002:0000062c       __imp_??0Label@vgui@@QAE@PBD@Z 1006662c     vgui:vgui.dll
 0002:00000630       __imp_??0TextPanel@vgui@@QAE@PBDHHHH@Z 10066630     vgui:vgui.dll
 0002:00000634       __imp_??0LineBorder@vgui@@QAE@VColor@1@@Z 10066634     vgui:vgui.dll
 0002:00000638       __imp_??0Label@vgui@@QAE@PBDHH@Z 10066638     vgui:vgui.dll
 0002:0000063c       __imp_?paintBackground@TextEntry@vgui@@MAEXXZ 1006663c     vgui:vgui.dll
 0002:00000640       __imp_?setText@TextEntry@vgui@@UAEXPBDH@Z 10066640     vgui:vgui.dll
 0002:00000644       __imp_?getText@TextEntry@vgui@@UAEXHPADH@Z 10066644     vgui:vgui.dll
 0002:00000648       __imp_?resetCursorBlink@TextEntry@vgui@@UAEXXZ 10066648     vgui:vgui.dll
 0002:0000064c       __imp_?doGotoLeft@TextEntry@vgui@@UAEXXZ 1006664c     vgui:vgui.dll
 0002:00000650       __imp_?doGotoRight@TextEntry@vgui@@UAEXXZ 10066650     vgui:vgui.dll
 0002:00000654       __imp_?doGotoFirstOfLine@TextEntry@vgui@@UAEXXZ 10066654     vgui:vgui.dll
 0002:00000658       __imp_?doGotoEndOfLine@TextEntry@vgui@@UAEXXZ 10066658     vgui:vgui.dll
 0002:0000065c       __imp_?doInsertChar@TextEntry@vgui@@UAEXD@Z 1006665c     vgui:vgui.dll
 0002:00000660       __imp_?doBackspace@TextEntry@vgui@@UAEXXZ 10066660     vgui:vgui.dll
 0002:00000664       __imp_?doDelete@TextEntry@vgui@@UAEXXZ 10066664     vgui:vgui.dll
 0002:00000668       __imp_?doSelectNone@TextEntry@vgui@@UAEXXZ 10066668     vgui:vgui.dll
 0002:0000066c       __imp_?doCopySelected@TextEntry@vgui@@UAEXXZ 1006666c     vgui:vgui.dll
 0002:00000670       __imp_?doPaste@TextEntry@vgui@@UAEXXZ 10066670     vgui:vgui.dll
 0002:00000674       __imp_?doPasteSelected@TextEntry@vgui@@UAEXXZ 10066674     vgui:vgui.dll
 0002:00000678       __imp_?doDeleteSelected@TextEntry@vgui@@UAEXXZ 10066678     vgui:vgui.dll
 0002:0000067c       __imp_?addActionSignal@TextEntry@vgui@@UAEXPAVActionSignal@2@@Z 1006667c     vgui:vgui.dll
 0002:00000680       __imp_?setFont@TextEntry@vgui@@UAEXPAVFont@2@@Z 10066680     vgui:vgui.dll
 0002:00000684       __imp_?setTextHidden@TextEntry@vgui@@UAEX_N@Z 10066684     vgui:vgui.dll
 0002:00000688       __imp_?setCharAt@TextEntry@vgui@@MAEXDH@Z 10066688     vgui:vgui.dll
 0002:0000068c       __imp_?fireActionSignal@TextEntry@vgui@@MAEXXZ 1006668c     vgui:vgui.dll
 0002:00000690       __imp_?getSelectedRange@TextEntry@vgui@@MAE_NAAH0@Z 10066690     vgui:vgui.dll
 0002:00000694       __imp_?getSelectedPixelRange@TextEntry@vgui@@MAE_NAAH0@Z 10066694     vgui:vgui.dll
 0002:00000698       __imp_?cursorToPixelSpace@TextEntry@vgui@@MAEHH@Z 10066698     vgui:vgui.dll
 0002:0000069c       __imp_?selectCheck@TextEntry@vgui@@MAEXXZ 1006669c     vgui:vgui.dll
 0002:000006a0       __imp_?cursorMoved@TextEntry@vgui@@MAEXHHPAVPanel@2@@Z 100666a0     vgui:vgui.dll
 0002:000006a4       __imp_?cursorEntered@TextEntry@vgui@@MAEXPAVPanel@2@@Z 100666a4     vgui:vgui.dll
 0002:000006a8       __imp_?cursorExited@TextEntry@vgui@@MAEXPAVPanel@2@@Z 100666a8     vgui:vgui.dll
 0002:000006ac       __imp_?mousePressed@TextEntry@vgui@@MAEXW4MouseCode@2@PAVPanel@2@@Z 100666ac     vgui:vgui.dll
 0002:000006b0       __imp_?mouseDoublePressed@TextEntry@vgui@@MAEXW4MouseCode@2@PAVPanel@2@@Z 100666b0     vgui:vgui.dll
 0002:000006b4       __imp_?mouseReleased@TextEntry@vgui@@MAEXW4MouseCode@2@PAVPanel@2@@Z 100666b4     vgui:vgui.dll
 0002:000006b8       __imp_?mouseWheeled@TextEntry@vgui@@MAEXHPAVPanel@2@@Z 100666b8     vgui:vgui.dll
 0002:000006bc       __imp_?keyPressed@TextEntry@vgui@@MAEXW4KeyCode@2@PAVPanel@2@@Z 100666bc     vgui:vgui.dll
 0002:000006c0       __imp_?keyTyped@TextEntry@vgui@@MAEXW4KeyCode@2@PAVPanel@2@@Z 100666c0     vgui:vgui.dll
 0002:000006c4       __imp_?keyReleased@TextEntry@vgui@@MAEXW4KeyCode@2@PAVPanel@2@@Z 100666c4     vgui:vgui.dll
 0002:000006c8       __imp_?keyFocusTicked@TextEntry@vgui@@MAEXPAVPanel@2@@Z 100666c8     vgui:vgui.dll
 0002:000006cc       __imp_?paint@EtchedBorder@vgui@@MAEXPAVPanel@2@@Z 100666cc     vgui:vgui.dll
 0002:000006d0       __imp_?paint@LoweredBorder@vgui@@MAEXPAVPanel@2@@Z 100666d0     vgui:vgui.dll
 0002:000006d4       __imp_?close@DataInputStream@vgui@@UAEXXZ 100666d4     vgui:vgui.dll
 0002:000006d8       __imp_?readBool@DataInputStream@vgui@@UAE_NAA_N@Z 100666d8     vgui:vgui.dll
 0002:000006dc       __imp_?readChar@DataInputStream@vgui@@UAEDAA_N@Z 100666dc     vgui:vgui.dll
 0002:000006e0       __imp_?readShort@DataInputStream@vgui@@UAEFAA_N@Z 100666e0     vgui:vgui.dll
 0002:000006e4       __imp_?readUShort@DataInputStream@vgui@@UAEGAA_N@Z 100666e4     vgui:vgui.dll
 0002:000006e8       __imp_?readInt@DataInputStream@vgui@@UAEHAA_N@Z 100666e8     vgui:vgui.dll
 0002:000006ec       __imp_?readUInt@DataInputStream@vgui@@UAEIAA_N@Z 100666ec     vgui:vgui.dll
 0002:000006f0       __imp_?readLong@DataInputStream@vgui@@UAEJAA_N@Z 100666f0     vgui:vgui.dll
 0002:000006f4       __imp_?readULong@DataInputStream@vgui@@UAEKAA_N@Z 100666f4     vgui:vgui.dll
 0002:000006f8       __imp_?readFloat@DataInputStream@vgui@@UAEMAA_N@Z 100666f8     vgui:vgui.dll
 0002:000006fc       __imp_?readDouble@DataInputStream@vgui@@UAENAA_N@Z 100666fc     vgui:vgui.dll
 0002:00000700       __imp_?readLine@DataInputStream@vgui@@UAEXPADHAA_N@Z 10066700     vgui:vgui.dll
 0002:00000704       __imp_??0Label@vgui@@QAE@PBDHHHH@Z 10066704     vgui:vgui.dll
 0002:00000708       __imp_??0TablePanel@vgui@@QAE@HHHHH@Z 10066708     vgui:vgui.dll
 0002:0000070c       __imp_?close@DataInputStream@vgui@@UAEXAA_N@Z 1006670c     vgui:vgui.dll
 0002:00000710       __imp_?seekEnd@DataInputStream@vgui@@UAEXAA_N@Z 10066710     vgui:vgui.dll
 0002:00000714       __imp_?seekRelative@DataInputStream@vgui@@UAEXHAA_N@Z 10066714     vgui:vgui.dll
 0002:00000718       __imp_?readUChar@DataInputStream@vgui@@UAEEAA_N@Z 10066718     vgui:vgui.dll
 0002:0000071c       __imp_?readUChar@DataInputStream@vgui@@UAEXPAEHAA_N@Z 1006671c     vgui:vgui.dll
 0002:00000720       __imp_?getAvailable@DataInputStream@vgui@@UAEHAA_N@Z 10066720     vgui:vgui.dll
 0002:00000724       __imp_?seekStart@DataInputStream@vgui@@UAEXAA_N@Z 10066724     vgui:vgui.dll
 0002:00000728       __imp_??0ScrollPanel@vgui@@QAE@HHHH@Z 10066728     vgui:vgui.dll
 0002:0000072c       __imp_??0HeaderPanel@vgui@@QAE@HHHH@Z 1006672c     vgui:vgui.dll
 0002:00000730       __imp_??0Slider@vgui@@QAE@HHHH_N@Z 10066730     vgui:vgui.dll
 0002:00000734       __imp_??0BitmapTGA@vgui@@QAE@PAVInputStream@1@_N@Z 10066734     vgui:vgui.dll
 0002:00000738       __imp_??0FileInputStream@vgui@@QAE@PBD_N@Z 10066738     vgui:vgui.dll
 0002:0000073c       __imp_??0Button@vgui@@QAE@PBDHHHH@Z 1006673c     vgui:vgui.dll
 0002:00000740       __imp_?performLayout@Layout@vgui@@UAEXPAVPanel@2@@Z 10066740     vgui:vgui.dll
 0002:00000744       __imp_?performLayout@BorderLayout@vgui@@UAEXPAVPanel@2@@Z 10066744     vgui:vgui.dll
 0002:00000748       __imp_?createLayoutInfo@BorderLayout@vgui@@UAEPAVLayoutInfo@2@W4Alignment@12@@Z 10066748     vgui:vgui.dll
 0002:0000074c       __imp_?getPanel@SurfaceBase@vgui@@UAEPAVPanel@2@XZ 1006674c     vgui:vgui.dll
 0002:00000750       __imp_?requestSwap@SurfaceBase@vgui@@UAEXXZ 10066750     vgui:vgui.dll
 0002:00000754       __imp_?resetModeInfo@SurfaceBase@vgui@@UAEXXZ 10066754     vgui:vgui.dll
 0002:00000758       __imp_?getModeInfoCount@SurfaceBase@vgui@@UAEHXZ 10066758     vgui:vgui.dll
 0002:0000075c       __imp_?getModeInfo@SurfaceBase@vgui@@UAE_NHAAH00@Z 1006675c     vgui:vgui.dll
 0002:00000760       __imp_?getApp@SurfaceBase@vgui@@UAEPAVApp@2@XZ 10066760     vgui:vgui.dll
 0002:00000764       __imp_?setEmulatedCursorVisible@SurfaceBase@vgui@@UAEX_N@Z 10066764     vgui:vgui.dll
 0002:00000768       __imp_?setEmulatedCursorPos@SurfaceBase@vgui@@UAEXHH@Z 10066768     vgui:vgui.dll
 0002:0000076c       __imp_?addModeInfo@SurfaceBase@vgui@@MAEXHHH@Z 1006676c     vgui:vgui.dll
 0002:00000770       __imp_??0BorderLayout@vgui@@QAE@H@Z 10066770     vgui:vgui.dll
 0002:00000774       __imp_?performLayout@StackLayout@vgui@@UAEXPAVPanel@2@@Z 10066774     vgui:vgui.dll
 0002:00000778       __imp_??0Font@vgui@@QAE@PBDPAXHHHMH_N222@Z 10066778     vgui:vgui.dll
 0002:0000077c       __imp_??0TextImage@vgui@@QAE@PBD@Z 1006677c     vgui:vgui.dll
 0002:00000780       __imp_??0Image@vgui@@QAE@XZ 10066780     vgui:vgui.dll
 0002:00000784       __imp_??0Color@vgui@@QAE@XZ 10066784     vgui:vgui.dll
 0002:00000788       __imp_??1SurfaceBase@vgui@@IAE@XZ 10066788     vgui:vgui.dll
 0002:0000078c       __imp_?getModeInfoCount@Surface@vgui@@UAEHXZ 1006678c     vgui:vgui.dll
 0002:00000790       __imp_?setTitle@Surface@vgui@@UAEXPBD@Z 10066790     vgui:vgui.dll
 0002:00000794       __imp_?setFullscreenMode@Surface@vgui@@UAE_NHHH@Z 10066794     vgui:vgui.dll
 0002:00000798       __imp_?setWindowedMode@Surface@vgui@@UAEXXZ 10066798     vgui:vgui.dll
 0002:0000079c       __imp_?setAsTopMost@Surface@vgui@@UAEX_N@Z 1006679c     vgui:vgui.dll
 0002:000007a0       __imp_?createPopup@Surface@vgui@@UAEXPAVPanel@2@@Z 100667a0     vgui:vgui.dll
 0002:000007a4       __imp_?hasFocus@Surface@vgui@@UAE_NXZ 100667a4     vgui:vgui.dll
 0002:000007a8       __imp_?isWithin@Surface@vgui@@UAE_NHH@Z 100667a8     vgui:vgui.dll
 0002:000007ac       __imp_?createNewTextureID@Surface@vgui@@MAEHXZ 100667ac     vgui:vgui.dll
 0002:000007b0       __imp_?drawSetColor@Surface@vgui@@MAEXHHHH@Z 100667b0     vgui:vgui.dll
 0002:000007b4       __imp_?drawFilledRect@Surface@vgui@@MAEXHHHH@Z 100667b4     vgui:vgui.dll
 0002:000007b8       __imp_?drawOutlinedRect@Surface@vgui@@MAEXHHHH@Z 100667b8     vgui:vgui.dll
 0002:000007bc       __imp_?drawSetTextFont@Surface@vgui@@MAEXPAVFont@2@@Z 100667bc     vgui:vgui.dll
 0002:000007c0       __imp_?drawSetTextColor@Surface@vgui@@MAEXHHHH@Z 100667c0     vgui:vgui.dll
 0002:000007c4       __imp_?drawSetTextPos@Surface@vgui@@MAEXHH@Z 100667c4     vgui:vgui.dll
 0002:000007c8       __imp_?drawPrintText@Surface@vgui@@MAEXPBDH@Z 100667c8     vgui:vgui.dll
 0002:000007cc       __imp_?drawSetTextureRGBA@Surface@vgui@@MAEXHPBDHH@Z 100667cc     vgui:vgui.dll
 0002:000007d0       __imp_?drawSetTexture@Surface@vgui@@MAEXH@Z 100667d0     vgui:vgui.dll
 0002:000007d4       __imp_?drawTexturedRect@Surface@vgui@@MAEXHHHH@Z 100667d4     vgui:vgui.dll
 0002:000007d8       __imp_?invalidate@Surface@vgui@@MAEXPAVPanel@2@@Z 100667d8     vgui:vgui.dll
 0002:000007dc       __imp_?enableMouseCapture@Surface@vgui@@MAEX_N@Z 100667dc     vgui:vgui.dll
 0002:000007e0       __imp_?setCursor@Surface@vgui@@MAEXPAVCursor@2@@Z 100667e0     vgui:vgui.dll
 0002:000007e4       __imp_?swapBuffers@Surface@vgui@@MAEXXZ 100667e4     vgui:vgui.dll
 0002:000007e8       __imp_?pushMakeCurrent@Surface@vgui@@MAEXPAVPanel@2@_N@Z 100667e8     vgui:vgui.dll
 0002:000007ec       __imp_?popMakeCurrent@Surface@vgui@@MAEXPAVPanel@2@@Z 100667ec     vgui:vgui.dll
 0002:000007f0       __imp_?applyChanges@Surface@vgui@@MAEXXZ 100667f0     vgui:vgui.dll
 0002:000007f4       __imp_?createPlat@Surface@vgui@@MAE_NXZ 100667f4     vgui:vgui.dll
 0002:000007f8       __imp_?recreateContext@Surface@vgui@@MAE_NXZ 100667f8     vgui:vgui.dll
 0002:000007fc       __imp_?paintBackground@MenuSeparator@vgui@@MAEXXZ 100667fc     vgui:vgui.dll
 0002:00000800       __imp_?setEnabled@BuildGroup@vgui@@UAEX_N@Z 10066800     vgui:vgui.dll
 0002:00000804       __imp_?isEnabled@BuildGroup@vgui@@UAE_NXZ 10066804     vgui:vgui.dll
 0002:00000808       __imp_?addCurrentPanelChangeSignal@BuildGroup@vgui@@UAEXPAVChangeSignal@2@@Z 10066808     vgui:vgui.dll
 0002:0000080c       __imp_?getCurrentPanel@BuildGroup@vgui@@UAEPAVPanel@2@XZ 1006680c     vgui:vgui.dll
 0002:00000810       __imp_?copyPropertiesToClipboard@BuildGroup@vgui@@UAEXXZ 10066810     vgui:vgui.dll
 0002:00000814       __imp_?applySnap@BuildGroup@vgui@@EAEXPAVPanel@2@@Z 10066814     vgui:vgui.dll
 0002:00000818       __imp_?fireCurrentPanelChangeSignal@BuildGroup@vgui@@EAEXXZ 10066818     vgui:vgui.dll
 0002:0000081c       __imp_?panelAdded@BuildGroup@vgui@@MAEXPAVPanel@2@PBD@Z 1006681c     vgui:vgui.dll
 0002:00000820       __imp_?cursorMoved@BuildGroup@vgui@@MAEXHHPAVPanel@2@@Z 10066820     vgui:vgui.dll
 0002:00000824       __imp_?mousePressed@BuildGroup@vgui@@MAEXW4MouseCode@2@PAVPanel@2@@Z 10066824     vgui:vgui.dll
 0002:00000828       __imp_?mouseReleased@BuildGroup@vgui@@MAEXW4MouseCode@2@PAVPanel@2@@Z 10066828     vgui:vgui.dll
 0002:0000082c       __imp_?mouseDoublePressed@BuildGroup@vgui@@MAEXW4MouseCode@2@PAVPanel@2@@Z 1006682c     vgui:vgui.dll
 0002:00000830       __imp_?keyTyped@BuildGroup@vgui@@MAEXW4KeyCode@2@PAVPanel@2@@Z 10066830     vgui:vgui.dll
 0002:00000834       __imp_?getCursor@BuildGroup@vgui@@MAEPAVCursor@2@PAVPanel@2@@Z 10066834     vgui:vgui.dll
 0002:00000838       __imp_?getInstance@App@vgui@@SAPAV12@XZ 10066838     vgui:vgui.dll
 0002:0000083c       __imp_?setRange@ScrollBar@vgui@@UAEXHH@Z 1006683c     vgui:vgui.dll
 0002:00000840       __imp_?performLayout@Panel@vgui@@MAEXXZ 10066840     vgui:vgui.dll
 0002:00000844       __imp_?paintTraverse@Panel@vgui@@UAEXXZ 10066844     vgui:vgui.dll
 0002:00000848       __imp_?paintTraverse@Panel@vgui@@MAEX_N@Z 10066848     vgui:vgui.dll
 0002:0000084c       __imp_?solveTraverse@Panel@vgui@@UAEXXZ 1006684c     vgui:vgui.dll
 0002:00000850       __imp_?isCursorNone@Panel@vgui@@UAE_NXZ 10066850     vgui:vgui.dll
 0002:00000854       __imp_?getLayoutInfo@Panel@vgui@@UAEPAVLayoutInfo@2@XZ 10066854     vgui:vgui.dll
 0002:00000858       __imp_?setLayoutInfo@Panel@vgui@@UAEXPAVLayoutInfo@2@@Z 10066858     vgui:vgui.dll
 0002:0000085c       __imp_?getVirtualSize@Panel@vgui@@UAEXAAH0@Z 1006685c     vgui:vgui.dll
 0002:00000860       __imp_?getApp@Panel@vgui@@UAEPAVApp@2@XZ 10066860     vgui:vgui.dll
 0002:00000864       __imp_?setAsMouseArena@Panel@vgui@@UAEX_N@Z 10066864     vgui:vgui.dll
 0002:00000868       __imp_?setAsMouseCapture@Panel@vgui@@UAEX_N@Z 10066868     vgui:vgui.dll
 0002:0000086c       __imp_?getBgColor@Panel@vgui@@UAEXAAH000@Z 1006686c     vgui:vgui.dll
 0002:00000870       __imp_?getBgColor@Panel@vgui@@UAEXAAVColor@2@@Z 10066870     vgui:vgui.dll
 0002:00000874       __imp_?getFgColor@Panel@vgui@@UAEXAAH000@Z 10066874     vgui:vgui.dll
 0002:00000878       __imp_?getFgColor@Panel@vgui@@UAEXAAVColor@2@@Z 10066878     vgui:vgui.dll
 0002:0000087c       __imp_?setBgColor@Panel@vgui@@UAEXW4SchemeColor@Scheme@2@@Z 1006687c     vgui:vgui.dll
 0002:00000880       __imp_?setBgColor@Panel@vgui@@UAEXHHHH@Z 10066880     vgui:vgui.dll
 0002:00000884       __imp_?setBgColor@Panel@vgui@@UAEXVColor@2@@Z 10066884     vgui:vgui.dll
 0002:00000888       __imp_?setFgColor@Panel@vgui@@UAEXW4SchemeColor@Scheme@2@@Z 10066888     vgui:vgui.dll
 0002:0000088c       __imp_?setFgColor@Panel@vgui@@UAEXHHHH@Z 1006688c     vgui:vgui.dll
 0002:00000890       __imp_?setFgColor@Panel@vgui@@UAEXVColor@2@@Z 10066890     vgui:vgui.dll
 0002:00000894       __imp_?applyPersistanceText@Panel@vgui@@UAEXPBD@Z 10066894     vgui:vgui.dll
 0002:00000898       __imp_?getPersistanceText@Panel@vgui@@UAEXPADH@Z 10066898     vgui:vgui.dll
 0002:0000089c       __imp_?createPropertyPanel@Panel@vgui@@UAEPAV12@XZ 1006689c     vgui:vgui.dll
 0002:000008a0       __imp_?repaintParent@Panel@vgui@@UAEXXZ 100668a0     vgui:vgui.dll
 0002:000008a4       __imp_?removeAllChildren@Panel@vgui@@UAEXXZ 100668a4     vgui:vgui.dll
 0002:000008a8       __imp_?isBuildGroupEnabled@Panel@vgui@@UAE_NXZ 100668a8     vgui:vgui.dll
 0002:000008ac       __imp_?setBuildGroup@Panel@vgui@@UAEXPAVBuildGroup@2@PBD@Z 100668ac     vgui:vgui.dll
 0002:000008b0       __imp_?setEnabled@Panel@vgui@@UAEX_N@Z 100668b0     vgui:vgui.dll
 0002:000008b4       __imp_?isEnabled@Panel@vgui@@UAE_NXZ 100668b4     vgui:vgui.dll
 0002:000008b8       __imp_?getSurfaceBase@Panel@vgui@@UAEPAVSurfaceBase@2@XZ 100668b8     vgui:vgui.dll
 0002:000008bc       __imp_?getPreferredSize@Panel@vgui@@UAEXAAH0@Z 100668bc     vgui:vgui.dll
 0002:000008c0       __imp_?setPreferredSize@Panel@vgui@@UAEXHH@Z 100668c0     vgui:vgui.dll
 0002:000008c4       __imp_?getPaintSize@Panel@vgui@@UAEXAAH0@Z 100668c4     vgui:vgui.dll
 0002:000008c8       __imp_?getInset@Panel@vgui@@UAEXAAH000@Z 100668c8     vgui:vgui.dll
 0002:000008cc       __imp_?setPaintEnabled@Panel@vgui@@UAEX_N@Z 100668cc     vgui:vgui.dll
 0002:000008d0       __imp_?setPaintBackgroundEnabled@Panel@vgui@@UAEX_N@Z 100668d0     vgui:vgui.dll
 0002:000008d4       __imp_?setPaintBorderEnabled@Panel@vgui@@UAEX_N@Z 100668d4     vgui:vgui.dll
 0002:000008d8       __imp_?setBorder@Panel@vgui@@UAEXPAVBorder@2@@Z 100668d8     vgui:vgui.dll
 0002:000008dc       __imp_?setAutoFocusNavEnabled@Panel@vgui@@UAEX_N@Z 100668dc     vgui:vgui.dll
 0002:000008e0       __imp_?isAutoFocusNavEnabled@Panel@vgui@@UAE_NXZ 100668e0     vgui:vgui.dll
 0002:000008e4       __imp_?addFocusChangeSignal@Panel@vgui@@UAEXPAVFocusChangeSignal@2@@Z 100668e4     vgui:vgui.dll
 0002:000008e8       __imp_?requestFocusNext@Panel@vgui@@UAEXXZ 100668e8     vgui:vgui.dll
 0002:000008ec       __imp_?requestFocusPrev@Panel@vgui@@UAEXXZ 100668ec     vgui:vgui.dll
 0002:000008f0       __imp_?setFocusNavGroup@Panel@vgui@@UAEXPAVFocusNavGroup@2@@Z 100668f0     vgui:vgui.dll
 0002:000008f4       __imp_?invalidateLayout@Panel@vgui@@UAEX_N@Z 100668f4     vgui:vgui.dll
 0002:000008f8       __imp_?setLayout@Panel@vgui@@UAEXPAVLayout@2@@Z 100668f8     vgui:vgui.dll
 0002:000008fc       __imp_?getChild@Panel@vgui@@UAEPAV12@H@Z 100668fc     vgui:vgui.dll
 0002:00000900       __imp_?getChildCount@Panel@vgui@@UAEHXZ 10066900     vgui:vgui.dll
 0002:00000904       __imp_?hasFocus@Panel@vgui@@UAE_NXZ 10066904     vgui:vgui.dll
 0002:00000908       __imp_?requestFocus@Panel@vgui@@UAEXXZ 10066908     vgui:vgui.dll
 0002:0000090c       __imp_?getMinimumSize@Panel@vgui@@UAEXAAH0@Z 1006690c     vgui:vgui.dll
 0002:00000910       __imp_?setMinimumSize@Panel@vgui@@UAEXHH@Z 10066910     vgui:vgui.dll
 0002:00000914       __imp_?getCursor@Panel@vgui@@UAEPAVCursor@2@XZ 10066914     vgui:vgui.dll
 0002:00000918       __imp_?setCursor@Panel@vgui@@UAEXPAVCursor@2@@Z 10066918     vgui:vgui.dll
 0002:0000091c       __imp_?setCursor@Panel@vgui@@UAEXW4SchemeCursor@Scheme@2@@Z 1006691c     vgui:vgui.dll
 0002:00000920       __imp_?screenToLocal@Panel@vgui@@UAEXAAH0@Z 10066920     vgui:vgui.dll
 0002:00000924       __imp_?localToScreen@Panel@vgui@@UAEXAAH0@Z 10066924     vgui:vgui.dll
 0002:00000928       __imp_?isWithinTraverse@Panel@vgui@@UAEPAV12@HH@Z 10066928     vgui:vgui.dll
 0002:0000092c       __imp_?isWithin@Panel@vgui@@UAE_NHH@Z 1006692c     vgui:vgui.dll
 0002:00000930       __imp_?removeRepaintSignal@Panel@vgui@@UAEXPAVRepaintSignal@2@@Z 10066930     vgui:vgui.dll
 0002:00000934       __imp_?addRepaintSignal@Panel@vgui@@UAEXPAVRepaintSignal@2@@Z 10066934     vgui:vgui.dll
 0002:00000938       __imp_?removeInputSignal@Panel@vgui@@UAEXPAVInputSignal@2@@Z 10066938     vgui:vgui.dll
 0002:0000093c       __imp_?addInputSignal@Panel@vgui@@UAEXPAVInputSignal@2@@Z 1006693c     vgui:vgui.dll
 0002:00000940       __imp_?wasKeyReleased@Panel@vgui@@UAE_NW4KeyCode@2@@Z 10066940     vgui:vgui.dll
 0002:00000944       __imp_?wasKeyTyped@Panel@vgui@@UAE_NW4KeyCode@2@@Z 10066944     vgui:vgui.dll
 0002:00000948       __imp_?isKeyDown@Panel@vgui@@UAE_NW4KeyCode@2@@Z 10066948     vgui:vgui.dll
 0002:0000094c       __imp_?wasKeyPressed@Panel@vgui@@UAE_NW4KeyCode@2@@Z 1006694c     vgui:vgui.dll
 0002:00000950       __imp_?wasMouseReleased@Panel@vgui@@UAE_NW4MouseCode@2@@Z 10066950     vgui:vgui.dll
 0002:00000954       __imp_?isMouseDown@Panel@vgui@@UAE_NW4MouseCode@2@@Z 10066954     vgui:vgui.dll
 0002:00000958       __imp_?wasMouseDoublePressed@Panel@vgui@@UAE_NW4MouseCode@2@@Z 10066958     vgui:vgui.dll
 0002:0000095c       __imp_?wasMousePressed@Panel@vgui@@UAE_NW4MouseCode@2@@Z 1006695c     vgui:vgui.dll
 0002:00000960       __imp_?removeChild@Panel@vgui@@UAEXPAV12@@Z 10066960     vgui:vgui.dll
 0002:00000964       __imp_?insertChildAt@Panel@vgui@@UAEXPAV12@H@Z 10066964     vgui:vgui.dll
 0002:00000968       __imp_?addChild@Panel@vgui@@UAEXPAV12@@Z 10066968     vgui:vgui.dll
 0002:0000096c       __imp_?setParent@Panel@vgui@@UAEXPAV12@@Z 1006696c     vgui:vgui.dll
 0002:00000970       __imp_?getClipRect@Panel@vgui@@UAEXAAH000@Z 10066970     vgui:vgui.dll
 0002:00000974       __imp_?getAbsExtents@Panel@vgui@@UAEXAAH000@Z 10066974     vgui:vgui.dll
 0002:00000978       __imp_?repaintAll@Panel@vgui@@UAEXXZ 10066978     vgui:vgui.dll
 0002:0000097c       __imp_?repaint@Panel@vgui@@UAEXXZ 1006697c     vgui:vgui.dll
 0002:00000980       __imp_?isVisibleUp@Panel@vgui@@UAE_NXZ 10066980     vgui:vgui.dll
 0002:00000984       __imp_?isVisible@Panel@vgui@@UAE_NXZ 10066984     vgui:vgui.dll
 0002:00000988       __imp_?setVisible@Panel@vgui@@UAEX_N@Z 10066988     vgui:vgui.dll
 0002:0000098c       __imp_?getParent@Panel@vgui@@UAEPAV12@XZ 1006698c     vgui:vgui.dll
 0002:00000990       __imp_?getTall@Panel@vgui@@UAEHXZ 10066990     vgui:vgui.dll
 0002:00000994       __imp_?getWide@Panel@vgui@@UAEHXZ 10066994     vgui:vgui.dll
 0002:00000998       __imp_?getBounds@Panel@vgui@@UAEXAAH000@Z 10066998     vgui:vgui.dll
 0002:0000099c       __imp_?setBounds@Panel@vgui@@UAEXHHHH@Z 1006699c     vgui:vgui.dll
 0002:000009a0       __imp_?getSize@Panel@vgui@@UAEXAAH0@Z 100669a0     vgui:vgui.dll
 0002:000009a4       __imp_?setSize@Panel@vgui@@UAEXHH@Z 100669a4     vgui:vgui.dll
 0002:000009a8       __imp_?getPos@Panel@vgui@@UAEXAAH0@Z 100669a8     vgui:vgui.dll
 0002:000009ac       __imp_?setPos@Panel@vgui@@UAEXHH@Z 100669ac     vgui:vgui.dll
 0002:000009b0       __imp_??AColor@vgui@@UAEHH@Z 100669b0     vgui:vgui.dll
 0002:000009b4       __imp_?getColor@Color@vgui@@UAEXAAH000@Z 100669b4     vgui:vgui.dll
 0002:000009b8       __imp_?getColor@Color@vgui@@UAEXAAW4SchemeColor@Scheme@2@@Z 100669b8     vgui:vgui.dll
 0002:000009bc       __imp_?setColor@Color@vgui@@UAEXHHHH@Z 100669bc     vgui:vgui.dll
 0002:000009c0       __imp_?setColor@Color@vgui@@UAEXW4SchemeColor@Scheme@2@@Z 100669c0     vgui:vgui.dll
 0002:000009c4       __imp_?init@Color@vgui@@EAEXXZ 100669c4     vgui:vgui.dll
 0002:000009c8       __imp_?getCursor@Scheme@vgui@@UAEPAVCursor@2@W4SchemeCursor@12@@Z 100669c8     vgui:vgui.dll
 0002:000009cc       __imp_?setCursor@Scheme@vgui@@UAEXW4SchemeCursor@12@PAVCursor@2@@Z 100669cc     vgui:vgui.dll
 0002:000009d0       __imp_?getFont@Scheme@vgui@@UAEPAVFont@2@W4SchemeFont@12@@Z 100669d0     vgui:vgui.dll
 0002:000009d4       __imp_?setFont@Scheme@vgui@@UAEXW4SchemeFont@12@PAVFont@2@@Z 100669d4     vgui:vgui.dll
 0002:000009d8       __imp_?getColor@Scheme@vgui@@UAEXW4SchemeColor@12@AAH111@Z 100669d8     vgui:vgui.dll
 0002:000009dc       __imp_?setColor@Scheme@vgui@@UAEXW4SchemeColor@12@HHHH@Z 100669dc     vgui:vgui.dll
 0002:000009e0       __imp_?getValue@ScrollBar@vgui@@UAEHXZ 100669e0     vgui:vgui.dll
 0002:000009e4       \177vgui_NULL_THUNK_DATA   100669e4     vgui:vgui.dll
 0002:000009e8       ___xc_a                    100669e8     LIBCMT:crt0init.obj
 0002:00000a3c       ___xc_z                    10066a3c     LIBCMT:crt0init.obj
 0002:00000a40       ___xi_a                    10066a40     LIBCMT:crt0init.obj
 0002:00000a58       ___xi_z                    10066a58     LIBCMT:crt0init.obj
 0002:00000a5c       ___xp_a                    10066a5c     LIBCMT:crt0init.obj
 0002:00000a68       ___xp_z                    10066a68     LIBCMT:crt0init.obj
 0002:00000a6c       ___xt_a                    10066a6c     LIBCMT:crt0init.obj
 0002:00000a70       ___xt_z                    10066a70     LIBCMT:crt0init.obj
 0002:00000a80       __real@00000000            10066a80     chumtoadweapon.obj
 0002:00000a8c       ??_7CChumToadWeapon@@6B@   10066a8c     chumtoadweapon.obj
 0002:00000d30       ??_C@_00CNPNBAHC@?$AA@     10066d30     chumtoadweapon.obj
 0002:00000d38       __real@3fe0000000000000    10066d38     chumtoadweapon.obj
 0002:00000d40       ??_C@_0BN@OFHIHKAN@monster_chumtoadpickupwalker?$AA@ 10066d40     chumtoadweapon.obj
 0002:00000d60       __real@c1800000            10066d60     chumtoadweapon.obj
 0002:00000d64       __real@41c00000            10066d64     chumtoadweapon.obj
 0002:00000d68       __real@41800000            10066d68     chumtoadweapon.obj
 0002:00000d6c       ??_C@_0BE@CFPGBGHI@models?1chumtoad?4mdl?$AA@ 10066d6c     chumtoadweapon.obj
 0002:00000d80       ??_C@_0BA@LAHGMOHO@weapon_chumtoad?$AA@ 10066d80     chumtoadweapon.obj
 0002:00000d90       __real@3f947ae147ae147b    10066d90     chumtoadweapon.obj
 0002:00000d98       __real@4004cccccccccccd    10066d98     chumtoadweapon.obj
 0002:00000da0       __real@0000000000000000    10066da0     chumtoadweapon.obj
 0002:00000da8       __real@402c000000000000    10066da8     chumtoadweapon.obj
 0002:00000db0       __real@400ccccccccccccd    10066db0     chumtoadweapon.obj
 0002:00000db8       __real@3ffb333333333333    10066db8     chumtoadweapon.obj
 0002:00000dc0       ??_C@_0BH@CMOIOGCB@events?1chumtoadfire?4sc?$AA@ 10066dc0     chumtoadweapon.obj
 0002:00000dd8       ??_C@_0BB@LGAHKLJP@monster_chumtoad?$AA@ 10066dd8     chumtoadweapon.obj
 0002:00000dec       ??_C@_0BM@HKPOLOH@chumtoad?1cht_croak_long?4wav?$AA@ 10066dec     chumtoadweapon.obj
 0002:00000e08       ??_C@_0BO@KBBPMFPL@chumtoad?1cht_croak_medium?4wav?$AA@ 10066e08     chumtoadweapon.obj
 0002:00000e28       ??_C@_0BN@PIIJDJIG@chumtoad?1cht_croak_short?4wav?$AA@ 10066e28     chumtoadweapon.obj
 0002:00000e48       ??_C@_0BI@NDFCOFJC@chumtoad?1cht_throw2?4wav?$AA@ 10066e48     chumtoadweapon.obj
 0002:00000e60       ??_C@_0BI@FFMGJHDM@chumtoad?1cht_throw1?4wav?$AA@ 10066e60     chumtoadweapon.obj
 0002:00000e78       ??_C@_0BC@JMLGMIFG@models?1v_chub?4mdl?$AA@ 10066e78     chumtoadweapon.obj
 0002:00000e8c       ??_C@_0L@GDKOAMMH@Chum?5Toads?$AA@ 10066e8c     chumtoadweapon.obj
 0002:00000e98       ??_C@_04BMCMHJAN@chub?$AA@ 10066e98     chumtoadweapon.obj
 0002:00000ea0       __real@3f19999a            10066ea0     chumtoadweapon.obj
 0002:00000ea4       __real@bf800000            10066ea4     chumtoadweapon.obj
 0002:00000ea8       __real@3f4ccccd            10066ea8     chumtoadweapon.obj
 0002:00000eac       __real@3f000000            10066eac     chumtoadweapon.obj
 0002:00000eb0       __real@3f800000            10066eb0     chumtoadweapon.obj
 0002:00000eb4       ??_C@_0BA@HKOJACLM@common?1null?4wav?$AA@ 10066eb4     chumtoadweapon.obj
 0002:00000ec8       __real@3fb999999999999a    10066ec8     chumtoadweapon.obj
 0002:00000ed0       __real@4009000000000000    10066ed0     chumtoadweapon.obj
 0002:00000ed8       __real@3ffe000000000000    10066ed8     chumtoadweapon.obj
 0002:00000ee0       __real@3fed1eb851eb851e    10066ee0     chumtoadweapon.obj
 0002:00000ee8       __real@3ffe800000000000    10066ee8     chumtoadweapon.obj
 0002:00000ef0       __real@3fea3d70a3d70a3d    10066ef0     chumtoadweapon.obj
 0002:00000ef8       __real@3ff0000000000000    10066ef8     chumtoadweapon.obj
 0002:00000f00       __real@403a000000000000    10066f00     chumtoadweapon.obj
 0002:00000f08       __real@40000000            10066f08     chumtoadweapon.obj
 0002:00000f10       __real@4059000000000000    10066f10     chumtoadweapon.obj
 0002:00000f18       __real@4034000000000000    10066f18     chumtoadweapon.obj
 0002:00000f20       __real@4027ae14            10066f20     glock.obj
 0002:00000f24       __real@4058f5c3            10066f24     glock.obj
 0002:00000f28       __real@4007ae15            10066f28     glock.obj
 0002:00000f2c       __real@3f333333            10066f2c     glock.obj
 0002:00000f34       ??_7CGlock@@6B@            10066f34     glock.obj
 0002:000011d8       ??_C@_0O@NIPIBGLD@?$CBHEV_SILENCER?$AA@ 100671d8     glock.obj
 0002:000011e8       __real@44e10000            100671e8     glock.obj
 0002:000011ec       ??_C@_0M@IJLMBGNG@?$CBHEV_PISTOL?$AA@ 100671ec     glock.obj
 0002:000011f8       __real@408ccccd            100671f8     glock.obj
 0002:000011fc       ??_C@_0BC@GDALAHJA@weapon_9mmhandgun?$AA@ 100671fc     glock.obj
 0002:00001210       ??_C@_0BG@POFKBBDL@models?1w_silencer?4mdl?$AA@ 10067210     glock.obj
 0002:00001228       ??_C@_0BI@GPGKJLMI@models?1w_9mmhandgun?4mdl?$AA@ 10067228     glock.obj
 0002:00001240       ??_C@_08FHNHJENH@silencer?$AA@ 10067240     glock.obj
 0002:0000124c       ??_C@_0BB@OMAPNLDC@events?1glock2?4sc?$AA@ 1006724c     glock.obj
 0002:00001260       ??_C@_0BB@KLKPKBOC@events?1glock1?4sc?$AA@ 10067260     glock.obj
 0002:00001274       ??_C@_0BE@PGEGJOCD@weapons?1pl_gun3?4wav?$AA@ 10067274     glock.obj
 0002:00001288       ??_C@_0BE@DNBKENIG@weapons?1pl_gun2?4wav?$AA@ 10067288     glock.obj
 0002:0000129c       ??_C@_0BE@LLIODPCI@weapons?1pl_gun1?4wav?$AA@ 1006729c     glock.obj
 0002:000012b0       ??_C@_0BD@BADMCPNB@items?19mmclip1?4wav?$AA@ 100672b0     glock.obj
 0002:000012c4       ??_C@_0BB@JCOADJDD@models?1shell?4mdl?$AA@ 100672c4     glock.obj
 0002:000012d8       ??_C@_0BI@EPPIOHID@models?1p_9mmhandgun?4mdl?$AA@ 100672d8     glock.obj
 0002:000012f0       ??_C@_0BI@OIMMFAIL@models?1v_9mmhandgun?4mdl?$AA@ 100672f0     glock.obj
 0002:00001308       ??_C@_03MDMENKFB@9mm?$AA@  10067308     glock.obj
 0002:0000130c       ??_C@_09JGAJOMPA@onehanded?$AA@ 1006730c     glock.obj
 0002:00001318       __real@c0000000            10067318     glock.obj
 0002:0000131c       ??_C@_0BN@HAIHJDJH@weapons?1glockSilencerOff?4wav?$AA@ 1006731c     glock.obj
 0002:0000133c       ??_C@_0BM@HLPMEGJF@weapons?1glockSilencerOn?4wav?$AA@ 1006733c     glock.obj
 0002:00001358       __real@41100000            10067358     glock.obj
 0002:0000135c       ??_C@_09KNGNPJEJ@?$CBHEV_AMO0?$AA@ 1006735c     glock.obj
 0002:00001368       __real@3fe3333333333333    10067368     glock.obj
 0002:00001370       __real@46000000            10067370     glock.obj
 0002:00001374       __real@3e31d0d4            10067374     glock.obj
 0002:00001378       __real@3fc999999999999a    10067378     glock.obj
 0002:00001380       __real@40038e39            10067380     glock.obj
 0002:00001388       __real@4004000000000000    10067388     glock.obj
 0002:00001390       __real@400d000000000000    10067390     glock.obj
 0002:00001398       __real@3fe8f5c28f5c28f6    10067398     glock.obj
 0002:000013a0       __real@4008800000000000    100673a0     glock.obj
 0002:000013a8       __real@3dcccccd            100673a8     glock.obj
 0002:000013ac       __real@3e4ccccd            100673ac     glock.obj
 0002:000013b0       __real@3c23d70a            100673b0     glock.obj
 0002:000013b4       __real@3e99999a            100673b4     glock.obj
 0002:000013bc       ??_7CGlockAmmo@@6B@        100673bc     glock.obj
 0002:00001558       ??_C@_0BF@DKFPPBMJ@models?1w_9mmclip?4mdl?$AA@ 10067558     glock.obj
 0002:00001570       ??_C@_08LABFNFDH@?$CBHEV_9MM?$AA@ 10067570     glock.obj
 0002:0000157c       __real@44960000            1006757c     glock.obj
 0002:00001580       ??_C@_01EEMJAFIK@?6?$AA@   10067580     util_printout.obj
 0002:00001588       __real@4008000000000000    10067588     util_shared.obj
 0002:00001590       ??_C@_0DN@FBBFOEKA@Error?5loading?5?$CFs?5?3?5?$CC?$CFs?$CC?5could?5no@ 10067590     util_shared.obj
 0002:000015d0       ??_C@_0BI@GEBLNOMA@ISSUE?$DL?5CANT?5FIND?5NUMBER?$AA@ 100675d0     util_shared.obj
 0002:000015e8       ??_C@_0EI@GBKOECHK@WARNING?3?5absMem?5entry?5?$CC?$CFs?$CC?5not?5l@ 100675e8     util_shared.obj
 0002:00001630       ??_C@_07JAOIHEAB@drawhud?$AA@ 10067630     util_shared.obj
 0002:00001638       ??_C@_0O@CDDIBLKE@drawviewmodel?$AA@ 10067638     util_shared.obj
 0002:00001648       ??_C@_0BN@BKGJKIEI@IDENTITY?5VALUE?5PAIR?3?5?$CFs?5?$CF?42f?$AA@ 10067648     util_shared.obj
 0002:00001668       ??_C@_0BA@JLJPJENC@ISSUE?$DL?5NO?5SPACE?$AA@ 10067668     util_shared.obj
 0002:00001678       ??_C@_0BD@PENLOAM@RAW?5INPUT?5LINE?3?5?$CFs?$AA@ 10067678     util_shared.obj
 0002:0000168c       ??_C@_01KDCPPGHE@r?$AA@    1006768c     util_shared.obj
 0002:00001690       ??_C@_0BI@PLGMCIJP@File?5generation?5failed?$DP?$AA@ 10067690     util_shared.obj
 0002:000016a8       ??_C@_0BG@GBDCEAIK@File?5generation?5okay?$DP?$AA@ 100676a8     util_shared.obj
 0002:000016c0       ??_C@_07JNBDLJHN@drawHUD?$AA@ 100676c0     util_shared.obj
 0002:000016c8       ??_C@_06JDPKAMPC@?$CFs?5?$CFg?6?$AA@ 100676c8     util_shared.obj
 0002:000016d0       ??_C@_0O@GLMJBNEC@drawViewModel?$AA@ 100676d0     util_shared.obj
 0002:000016e0       ??_C@_01NOFIACDB@w?$AA@    100676e0     util_shared.obj
 0002:000016e4       ??_C@_0BE@DIMBLHMI@HIDDEN?5MEM?5PATH?3?5?$CFs?$AA@ 100676e4     util_shared.obj
 0002:000016f8       ??_C@_0O@POGGPEMD@GAME?5PATH?3?5?$CFs?$AA@ 100676f8     util_shared.obj
 0002:00001708       ??_C@_0BD@LNHOJDOM@HALF?5LIFE?5PATH?3?5?$CFs?$AA@ 10067708     util_shared.obj
 0002:0000171c       ??_C@_0DG@IGPIIMGN@CLIENT?3?5helpme?4txt?5found?5?9?5hidde@ 1006771c     util_shared.obj
 0002:00001754       ??_C@_0CD@CKLBOGHF@CVAR?5DEBUG?3?5Server?3?5Set?5?$CFs?5to?5?$CF?4@ 10067754     util_shared.obj
 0002:00001778       ??_C@_0BC@MOKLFHCH@hiddenMemPrintout?$AA@ 10067778     util_shared.obj
 0002:0000178c       ??_C@_0L@GGODIFAC@helpme?4txt?$AA@ 1006778c     util_shared.obj
 0002:00001798       ??_C@_0BF@EMDFOIFG@absZeroMemClient?4txt?$AA@ 10067798     util_shared.obj
 0002:000017b0       ??_C@_07LNNJPFHL@valve?2?$AA?$AA@ 100677b0     util_shared.obj
 0002:000017b8       ??_C@_01KICIPPFI@?2?$AA@   100677b8     util_shared.obj
 0002:000017c0       ??_7CHudBase@@6B@          100677c0     ammo.obj
 0002:000017e0       ??_7Scheme@vgui@@6B@       100677e0     ammo.obj
 0002:000017fc       ??_7Color@vgui@@6B@        100677fc     ammo.obj
 0002:0000181c       ??_7Panel@vgui@@6B@        1006781c     ammo.obj
 0002:00001a1c       ??_7Label@vgui@@6B@        10067a1c     ammo.obj
 0002:00001c4c       ??_7Image@vgui@@6B@        10067c4c     ammo.obj
 0002:00001cb4       ??_7Border@vgui@@6B@       10067cb4     ammo.obj
 0002:00001d24       ??_7LineBorder@vgui@@6B@   10067d24     ammo.obj
 0002:00001d94       ??_7ImagePanel@vgui@@6B@   10067d94     ammo.obj
 0002:00001f9c       ??_7Bitmap@vgui@@6B@       10067f9c     ammo.obj
 0002:00002004       ??_7BitmapTGA@vgui@@6B@    10068004     ammo.obj
 0002:00002070       ??_7InputSignal@vgui@@6B@  10068070     ammo.obj
 0002:000020a4       ??_7Button@vgui@@6B@       100680a4     ammo.obj
 0002:0000230c       ??_7Frame@vgui@@6B@        1006830c     ammo.obj
 0002:00002554       ??_7TextPanel@vgui@@6B@    10068554     ammo.obj
 0002:00002764       ??_7ActionSignal@vgui@@6B@ 10068764     ammo.obj
 0002:0000276c       ??_7InputStream@vgui@@6B@  1006876c     ammo.obj
 0002:0000278c       ??_7FileInputStream@vgui@@6B@ 1006878c     ammo.obj
 0002:000027b4       ??_7DesktopIcon@vgui@@6B@  100687b4     ammo.obj
 0002:000029c4       ??_7Cursor@vgui@@6B@       100689c4     ammo.obj
 0002:000029dc       ??_7App@vgui@@6B@          100689dc     ammo.obj
 0002:00002abc       ??_7MiniApp@vgui@@6B@      10068abc     ammo.obj
 0002:00002acc       ??_7ScrollPanel@vgui@@6B@  10068acc     ammo.obj
 0002:00002cfc       ??_7ScrollBar@vgui@@6B@    10068cfc     ammo.obj
 0002:00002f3c       ??_7Slider@vgui@@6B@       10068f3c     ammo.obj
 0002:00003180       ??_7Font@vgui@@6B@         10069180     ammo.obj
 0002:00003198       ??_C@_0BG@FBAPKLEJ@common?1wpn_select?4wav?$AA@ 10069198     ammo.obj
 0002:000031b0       ??_C@_0BF@JMGAEGF@common?1wpn_hudon?4wav?$AA@ 100691b0     ammo.obj
 0002:000031c8       ??_C@_0P@HAOPMPEA@hud_fastswitch?$AA@ 100691c8     ammo.obj
 0002:000031d8       ??_C@_06CHNIFGOF@escape?$AA@ 100691d8     ammo.obj
 0002:000031e0       ??_C@_0BG@MNEIFLMJ@common?1wpn_hudoff?4wav?$AA@ 100691e0     ammo.obj
 0002:000031f8       ??_C@_05ILIAMGON@ammo2?$AA@ 100691f8     ammo.obj
 0002:00003200       ??_C@_04PGKJFGNK@ammo?$AA@ 10069200     ammo.obj
 0002:00003208       ??_C@_08JALFICBG@weapon_s?$AA@ 10069208     ammo.obj
 0002:00003214       ??_C@_06GEPNGEJI@weapon?$AA@ 10069214     ammo.obj
 0002:0000321c       ??_C@_0N@FNDHLGPO@zoom_autoaim?$AA@ 1006921c     ammo.obj
 0002:0000322c       ??_C@_04HKCCIOCO@zoom?$AA@ 1006922c     ammo.obj
 0002:00003234       ??_C@_07KHNCKFFH@autoaim?$AA@ 10069234     ammo.obj
 0002:0000323c       ??_C@_0P@HEMMIFBG@sprites?1?$CFs?4spr?$AA@ 1006923c     ammo.obj
 0002:0000324c       ??_C@_09NBNKIDFG@crosshair?$AA@ 1006924c     ammo.obj
 0002:00003258       ??_C@_0P@LBFCELJB@sprites?1?$CFs?4txt?$AA@ 10069258     ammo.obj
 0002:0000326c       ??_7CHudAmmo@@6B@          1006926c     ammo.obj
 0002:00003288       __real@43480000            10069288     ammo.obj
 0002:00003290       __real@4014000000000000    10069290     ammo.obj
 0002:00003298       __real@3ff8000000000000    10069298     ammo.obj
 0002:000032a0       ??_C@_0L@NJNPDFDL@weapon_rpg?$AA@ 100692a0     ammo.obj
 0002:000032ac       __real@42c80000            100692ac     ammo.obj
 0002:000032b0       __real@405e000000000000    100692b0     ammo.obj
 0002:000032b8       ??_C@_0N@PHPPGDBA@airtank_full?$AA@ 100692b8     ammo.obj
 0002:000032c8       ??_C@_0O@DNEDJJLK@airtank_empty?$AA@ 100692c8     ammo.obj
 0002:000032d8       ??_C@_0O@PNNKKCBG@longjump_full?$AA@ 100692d8     ammo.obj
 0002:000032e8       ??_C@_0P@NECKBJEO@longjump_empty?$AA@ 100692e8     ammo.obj
 0002:000032f8       ??_C@_09NOHPBIPB@radiation?$AA@ 100692f8     ammo.obj
 0002:00003304       ??_C@_0L@MDHOFGCH@adrenaline?$AA@ 10069304     ammo.obj
 0002:00003310       ??_C@_08OENGAPCD@antidote?$AA@ 10069310     ammo.obj
 0002:0000331c       ??_C@_0N@HCEEBPLO@number_slash?$AA@ 1006931c     ammo.obj
 0002:0000332c       ??_C@_09DFNMPCAJ@selection?$AA@ 1006932c     ammo.obj
 0002:00003338       ??_C@_0BL@NMLHFLBG@weapons_categorybackground?$AA@ 10069338     ammo.obj
 0002:00003354       ??_C@_0BN@IDFDLGCM@ALPHACROSSHAIR?5NOT?5LOADED?5B?6?$AA@ 10069354     ammo.obj
 0002:00003374       ??_C@_0P@LNJOEHEC@alphacrosshair?$AA@ 10069374     ammo.obj
 0002:00003384       ??_C@_01GBGANLPD@0?$AA@    10069384     ammo.obj
 0002:00003388       ??_C@_0BF@FCIGCOBI@hud_drawhistory_time?$AA@ 10069388     ammo.obj
 0002:000033a0       ??_C@_01BMBHCPLG@5?$AA@    100693a0     ammo.obj
 0002:000033a4       ??_C@_07FMBGBNAB@invprev?$AA@ 100693a4     ammo.obj
 0002:000033ac       ??_C@_07GIMAAJGF@invnext?$AA@ 100693ac     ammo.obj
 0002:000033b4       ??_C@_0N@INMGFMHB@cancelselect?$AA@ 100693b4     ammo.obj
 0002:000033c4       ??_C@_06MFPFELBF@slot10?$AA@ 100693c4     ammo.obj
 0002:000033cc       ??_C@_05KBHABBBM@slot9?$AA@ 100693cc     ammo.obj
 0002:000033d4       ??_C@_05LIGLCAFN@slot8?$AA@ 100693d4     ammo.obj
 0002:000033dc       ??_C@_05DPPDDMJC@slot7?$AA@ 100693dc     ammo.obj
 0002:000033e4       ??_C@_05CGOIANND@slot6?$AA@ 100693e4     ammo.obj
 0002:000033ec       ??_C@_05NMFFOBA@slot5?$AA@ 100693ec     ammo.obj
 0002:000033f4       ??_C@_05BENOGPFB@slot4?$AA@ 100693f4     ammo.obj
 0002:000033fc       ??_C@_05FLJPPJJG@slot3?$AA@ 100693fc     ammo.obj
 0002:00003404       ??_C@_05ECIEMINH@slot2?$AA@ 10069404     ammo.obj
 0002:0000340c       ??_C@_05GJKJJLBE@slot1?$AA@ 1006940c     ammo.obj
 0002:00003414       ??_C@_0M@EJFMCHCL@HasGlockSil?$AA@ 10069414     ammo.obj
 0002:00003420       ??_C@_06EIDEBAHO@UpdFrz?$AA@ 10069420     ammo.obj
 0002:00003428       ??_C@_06BNDKPDBB@UpdACH?$AA@ 10069428     ammo.obj
 0002:00003430       ??_C@_08BJMMHEBH@ClearWpn?$AA@ 10069430     ammo.obj
 0002:0000343c       ??_C@_0M@CHBFFKDN@UpdLJCharge?$AA@ 1006943c     ammo.obj
 0002:00003448       ??_C@_0M@FPKBIMBI@UpdTankTime?$AA@ 10069448     ammo.obj
 0002:00003454       ??_C@_0L@PGEDGPBB@RadiationP?$AA@ 10069454     ammo.obj
 0002:00003460       ??_C@_0M@HEDENJB@AdrenalineP?$AA@ 10069460     ammo.obj
 0002:0000346c       ??_C@_09FHGFPJPJ@AntidoteP?$AA@ 1006946c     ammo.obj
 0002:00003478       ??_C@_05BDDOEAPG@AmmoX?$AA@ 10069478     ammo.obj
 0002:00003480       ??_C@_0L@IFFGJKPB@HideWeapon?$AA@ 10069480     ammo.obj
 0002:0000348c       ??_C@_0L@NIFLCEON@ItemPickup?$AA@ 1006948c     ammo.obj
 0002:00003498       ??_C@_0L@FGOFFEAA@WeapPickup?$AA@ 10069498     ammo.obj
 0002:000034a4       ??_C@_0L@EANOMKOP@AmmoPickup?$AA@ 100694a4     ammo.obj
 0002:000034b0       ??_C@_0L@JMLCHIOL@WeaponList?$AA@ 100694b0     ammo.obj
 0002:000034bc       ??_C@_09PEGKEGNI@CurWeapon?$AA@ 100694bc     ammo.obj
 0002:000034c8       ??_C@_0M@IBNNKOAA@SecAmmoIcon?$AA@ 100694c8     ammo_secondary.obj
 0002:000034d4       ??_C@_0L@OJGBEBOP@SecAmmoVal?$AA@ 100694d4     ammo_secondary.obj
 0002:000034e0       __real@437f0000            100694e0     ammohistory.obj
 0002:000034e8       __real@406fe00000000000    100694e8     ammohistory.obj
 0002:000034f0       __real@4054000000000000    100694f0     ammohistory.obj
 0002:000034f8       ??_C@_0N@CCDFELOM@battery_full?$AA@ 100694f8     battery.obj
 0002:00003508       ??_C@_0O@IJJNONKF@battery_empty?$AA@ 10069508     battery.obj
 0002:00003518       ??_C@_09FDHCBOKO@suit_full?$AA@ 10069518     battery.obj
 0002:00003524       ??_C@_0L@BBDOIKEM@suit_empty?$AA@ 10069524     battery.obj
 0002:00003530       __real@4060000000000000    10069530     battery.obj
 0002:00003538       ??_C@_06OEAKMMKH@Tester?$AA@ 10069538     battery.obj
 0002:00003540       ??_C@_07OFDFNCDP@Battery?$AA@ 10069540     battery.obj
 0002:00003548       ??_C@_0BC@JJLNGFCF@media?1AutoMus?4mp3?$AA@ 10069548     cdll_int.obj
 0002:0000355c       ??_C@_0BJ@EOEBOPMD@textureHitSoundPrintouts?$AA@ 1006955c     cdll_int.obj
 0002:00003578       ??_C@_0BK@MPBOCIPH@viewModelSyncFixPrintouts?$AA@ 10069578     cdll_int.obj
 0002:00003594       ??_C@_0BD@EBIGNFAI@viewModelPrintouts?$AA@ 10069594     cdll_int.obj
 0002:000035a8       ??_C@_0BM@MOECOGID@playerWeaponForceSpreadMode?$AA@ 100695a8     cdll_int.obj
 0002:000035c4       ??_C@_0CB@OIGHEHJP@playerBulletHitEffectForceServer@ 100695c4     cdll_int.obj
 0002:000035e8       ??_C@_0O@KNHFIEMC@iHaveAscended?$AA@ 100695e8     cdll_int.obj
 0002:000035f8       ??_C@_0BN@NFKLBCAA@crossbowFirePlaysReloadSound?$AA@ 100695f8     cdll_int.obj
 0002:00003618       ??_C@_0BJ@HJCGMNHF@crossbowReloadSoundDelay?$AA@ 10069618     cdll_int.obj
 0002:00003634       ??_C@_0BC@DGJIIPGJ@itemFlashFadeMult?$AA@ 10069634     cdll_int.obj
 0002:00003648       ??_C@_0BI@IPKAPKFI@itemFlashDrawOpacityMax?$AA@ 10069648     cdll_int.obj
 0002:00003660       ??_C@_0BI@JNCLBODH@itemFlashDrawOpacityMin?$AA@ 10069660     cdll_int.obj
 0002:00003678       ??_C@_0BI@OMKJDMHN@itemFlashCumulativeJump?$AA@ 10069678     cdll_int.obj
 0002:00003690       ??_C@_0BD@IJAJCDKO@painFlashPrintouts?$AA@ 10069690     cdll_int.obj
 0002:000036a4       ??_C@_0BL@OFJCNDAM@painArrowCumulativeDmgJump?$AA@ 100696a4     cdll_int.obj
 0002:000036c0       ??_C@_0BN@IDIMOAPB@painArrowCumulativeAppearMin?$AA@ 100696c0     cdll_int.obj
 0002:000036e0       ??_C@_0BG@GNPOGBDD@painFlashDirTolerance?$AA@ 100696e0     cdll_int.obj
 0002:000036f8       ??_C@_0BF@LFKEIINF@painFlashIgnoreArmor?$AA@ 100696f8     cdll_int.obj
 0002:00003710       ??_C@_0BC@JHHLLEBD@painArrowFadeMult?$AA@ 10069710     cdll_int.obj
 0002:00003724       ??_C@_0BC@LFJIAHNM@painFlashFadeMult?$AA@ 10069724     cdll_int.obj
 0002:00003738       ??_C@_0BI@OPJIIEOJ@painArrowDrawOpacityMax?$AA@ 10069738     cdll_int.obj
 0002:00003750       ??_C@_0BI@PNBDGAIG@painArrowDrawOpacityMin?$AA@ 10069750     cdll_int.obj
 0002:00003768       ??_C@_0BI@KHECCGBE@painFlashDrawOpacityMax?$AA@ 10069768     cdll_int.obj
 0002:00003780       ??_C@_0BH@MLOCCNME@painFlashCumulativeMax?$AA@ 10069780     cdll_int.obj
 0002:00003798       ??_C@_0BP@LLHMNEE@painFlashCumulativeMinDrowning?$AA@ 10069798     cdll_int.obj
 0002:000037b8       ??_C@_0BD@JNLCCINI@painFlashDmgExMult?$AA@ 100697b8     cdll_int.obj
 0002:000037cc       ??_C@_0BA@GKNGNCFF@painFlashDmgMin?$AA@ 100697cc     cdll_int.obj
 0002:000037dc       ??_C@_0BI@BFDLNEKB@gauss_chargeInterval_MP?$AA@ 100697dc     cdll_int.obj
 0002:000037f4       ??_C@_0BI@DIDFKNL@gauss_chargeInterval_SP?$AA@ 100697f4     cdll_int.obj
 0002:0000380c       ??_C@_0BH@BFKPOCEN@gauss_chargeMaxAmmo_MP?$AA@ 1006980c     cdll_int.obj
 0002:00003824       ??_C@_0BH@DBHGMDH@gauss_chargeMaxAmmo_SP?$AA@ 10069824     cdll_int.obj
 0002:0000383c       ??_C@_0BO@OLAILEHO@gauss_secondarychargemindelay?$AA@ 1006983c     cdll_int.obj
 0002:0000385c       ??_C@_0BJ@BCGHPNJ@gauss_betweenattackdelay?$AA@ 1006985c     cdll_int.obj
 0002:00003878       ??_C@_0BM@CIADJIFP@gauss_secondarypunchthrough?$AA@ 10069878     cdll_int.obj
 0002:00003894       ??_C@_0BK@BLEAPBMM@gauss_primarypunchthrough?$AA@ 10069894     cdll_int.obj
 0002:000038b0       ??_C@_0BH@MCCPDAHO@gauss_secondarypierces?$AA@ 100698b0     cdll_int.obj
 0002:000038c8       ??_C@_0BI@GNGEKBHI@gauss_secondaryreflects?$AA@ 100698c8     cdll_int.obj
 0002:000038e0       ??_C@_0BF@ONIJPHGF@gauss_primarypierces?$AA@ 100698e0     cdll_int.obj
 0002:000038f8       ??_C@_0BG@OHCOMOFD@gauss_primaryreflects?$AA@ 100698f8     cdll_int.obj
 0002:00003910       ??_C@_0BN@HPIGLPLL@gauss_secondarychargetimereq?$AA@ 10069910     cdll_int.obj
 0002:00003930       ??_C@_0BG@MDKPGIFK@gauss_chargeworkdelay?$AA@ 10069930     cdll_int.obj
 0002:00003948       ??_C@_0BG@LMGFJFPB@gauss_chargeanimdelay?$AA@ 10069948     cdll_int.obj
 0002:00003960       ??_C@_0BJ@CGKCHAGC@gauss_reflectdealsdamage?$AA@ 10069960     cdll_int.obj
 0002:0000397c       ??_C@_0BC@FGECEKDN@gauss_primaryonly?$AA@ 1006997c     cdll_int.obj
 0002:00003990       ??_C@_0BB@OOPCDBJN@rocketSkipIgnite?$AA@ 10069990     cdll_int.obj
 0002:000039a4       ??_C@_0BG@GDLNEAPA@rocketTrailAlphaScale?$AA@ 100699a4     cdll_int.obj
 0002:000039bc       ??_C@_0BJ@FMKGPNHG@rocketTrailAlphaInterval?$AA@ 100699bc     cdll_int.obj
 0002:000039d8       ??_C@_0BF@NNEIDGMI@hornetSpeedDartMulti?$AA@ 100699d8     cdll_int.obj
 0002:000039f0       ??_C@_0BB@DLJCIMJG@hornetSpeedMulti?$AA@ 100699f0     cdll_int.obj
 0002:00003a04       ??_C@_0N@GFGFMBDL@hornetSpiral?$AA@ 10069a04     cdll_int.obj
 0002:00003a14       ??_C@_0P@IGBEJKED@hornetZoomPuff?$AA@ 10069a14     cdll_int.obj
 0002:00003a24       ??_C@_0BD@NICHKHDD@hornetDeathModHard?$AA@ 10069a24     cdll_int.obj
 0002:00003a38       ??_C@_0BF@OKNDODED@hornetDeathModMedium?$AA@ 10069a38     cdll_int.obj
 0002:00003a50       ??_C@_0BD@NOBJGFKJ@hornetDeathModEasy?$AA@ 10069a50     cdll_int.obj
 0002:00003a64       ??_C@_0BG@BMDAKNDF@hornetTrailSolidColor?$AA@ 10069a64     cdll_int.obj
 0002:00003a7c       ??_C@_0M@JGLAKJMA@hornetTrail?$AA@ 10069a7c     cdll_int.obj
 0002:00003a88       ??_C@_0O@KAOFMPEP@trailTypeTest?$AA@ 10069a88     cdll_int.obj
 0002:00003a98       ??_C@_0BP@FDJGIABI@playerBarnacleVictimViewOffset?$AA@ 10069a98     cdll_int.obj
 0002:00003ab8       ??_C@_0BH@EMAJIGCI@glockUseLastBulletAnim?$AA@ 10069ab8     cdll_int.obj
 0002:00003ad0       ??_C@_0BN@MGDIFKLO@weaponSelectUsesReloadSounds?$AA@ 10069ad0     cdll_int.obj
 0002:00003af0       ??_C@_0BL@IDBDHFHD@timedDamageDeathRemoveMode?$AA@ 10069af0     cdll_int.obj
 0002:00003b0c       ??_C@_0CC@CGBCHPCO@weaponSelectSoundPlayOnMousewhee@ 10069b0c     cdll_int.obj
 0002:00003b30       ??_C@_0BF@GPNOJDCH@skipTFDamageTextures?$AA@ 10069b30     cdll_int.obj
 0002:00003b48       ??_C@_0BL@KDBCBLHG@handGrenadePickupYieldsOne?$AA@ 10069b48     cdll_int.obj
 0002:00003b64       ??_C@_0BD@HINMNBFM@enableModPrintouts?$AA@ 10069b64     cdll_int.obj
 0002:00003b78       ??_C@_0N@OELGOMPO@egonHitCloud?$AA@ 10069b78     cdll_int.obj
 0002:00003b88       ??_C@_0BA@CCBEMEAI@egonEffectsMode?$AA@ 10069b88     cdll_int.obj
 0002:00003b98       ??_C@_0BB@HMFDHNOH@germanCensorship?$AA@ 10069b98     cdll_int.obj
 0002:00003bac       ??_C@_0BK@LLALOILN@mirrorsDoNotReflectPlayer?$AA@ 10069bac     cdll_int.obj
 0002:00003bc8       ??_C@_0BH@EBNKIOAD@mirrorsReflectOnlyNPCs?$AA@ 10069bc8     cdll_int.obj
 0002:00003be0       ??_C@_0BO@JKDOJHIB@alphaCrosshairBlockedOnFrozen?$AA@ 10069be0     cdll_int.obj
 0002:00003c00       ??_C@_0BP@GAMNNMME@allowAlphaCrosshairWithoutGuns?$AA@ 10069c00     cdll_int.obj
 0002:00003c20       ??_C@_0BC@JDGKIGGP@useAlphaCrosshair?$AA@ 10069c20     cdll_int.obj
 0002:00003c34       ??_C@_07DINJIOIF@fogTest?$AA@ 10069c34     cdll_int.obj
 0002:00003c3c       ??_C@_0BI@CDJJPOBN@raveEffectSpawnInterval?$AA@ 10069c3c     cdll_int.obj
 0002:00003c54       ??_C@_0BH@LHONGDLA@gaussRecoilSendsUpInSP?$AA@ 10069c54     cdll_int.obj
 0002:00003c6c       ??_C@_0BE@HMANOMPC@cheat_nogaussrecoil?$AA@ 10069c6c     cdll_int.obj
 0002:00003c80       ??_C@_0BN@FIDMOJGP@cheat_minimumfiredelaycustom?$AA@ 10069c80     cdll_int.obj
 0002:00003ca0       ??_C@_0BH@CJCFIFPN@cheat_minimumfiredelay?$AA@ 10069ca0     cdll_int.obj
 0002:00003cb8       ??_C@_0BD@PJJDOCEH@cheat_infiniteammo?$AA@ 10069cb8     cdll_int.obj
 0002:00003ccc       ??_C@_0BD@PBLMHAAA@cheat_infiniteclip?$AA@ 10069ccc     cdll_int.obj
 0002:00003ce0       ??_C@_0BE@OCKMAFOJ@auto_adjust_zoomfov?$AA@ 10069ce0     cdll_int.obj
 0002:00003cf4       ??_C@_0BH@FEIKMBBJ@auto_adjust_fov_aspect?$AA@ 10069cf4     cdll_int.obj
 0002:00003d0c       ??_C@_0BD@BAPBJBFA@canApplyDefaultFOV?$AA@ 10069d0c     cdll_int.obj
 0002:00003d20       ??_C@_0BB@ILNJFBKC@crossbow_zoomfov?$AA@ 10069d20     cdll_int.obj
 0002:00003d34       ??_C@_0P@GDHOPLFK@python_zoomfov?$AA@ 10069d34     cdll_int.obj
 0002:00003d44       ??_C@_0BD@CDEPNKHM@revolverLaserScope?$AA@ 10069d44     cdll_int.obj
 0002:00003d58       ??_C@_0BL@DHAENGCP@tripmineAnimWaitsForFinish?$AA@ 10069d58     cdll_int.obj
 0002:00003d74       ??_C@_0BI@IDDPILPN@playerForceCrossbowMode?$AA@ 10069d74     cdll_int.obj
 0002:00003d8c       ??_C@_0BD@BPKGDMPP@E3ShowsDamageIcons?$AA@ 10069d8c     cdll_int.obj
 0002:00003da0       ??_C@_0BG@EOCGOEIP@preE3ShowsDamageIcons?$AA@ 10069da0     cdll_int.obj
 0002:00003db8       ??_C@_0BB@LLMNIHNF@E3UsesFailColors?$AA@ 10069db8     cdll_int.obj
 0002:00003dcc       ??_C@_0BE@LNHOLIKN@preE3UsesFailColors?$AA@ 10069dcc     cdll_int.obj
 0002:00003de0       ??_C@_0BJ@CJMMKGMK@endlessFlashlightBattery?$AA@ 10069de0     cdll_int.obj
 0002:00003dfc       ??_C@_0BL@PCMMDCCC@canShowWeaponSelectAtDeath?$AA@ 10069dfc     cdll_int.obj
 0002:00003e18       ??_C@_0BH@EHEIPNIK@forceDrawBatteryNumber?$AA@ 10069e18     cdll_int.obj
 0002:00003e30       ??_C@_0BI@COADIPHH@firstPersonIdleDelayMax?$AA@ 10069e30     cdll_int.obj
 0002:00003e48       ??_C@_0BI@DMIIGLBI@firstPersonIdleDelayMin?$AA@ 10069e48     cdll_int.obj
 0002:00003e60       ??_C@_0BC@EPIEKGEB@drownDrawPainMode?$AA@ 10069e60     cdll_int.obj
 0002:00003e74       ??_C@_0BJ@LGMHKNME@allowPainDrawWithoutSuit?$AA@ 10069e74     cdll_int.obj
 0002:00003e90       ??_C@_0BD@KEMKIHJG@painFlashColorMode?$AA@ 10069e90     cdll_int.obj
 0002:00003ea4       ??_C@_0BD@KPDDLLAE@painArrowColorMode?$AA@ 10069ea4     cdll_int.obj
 0002:00003eb8       ??_C@_07FANHAPMD@testVar?$AA@ 10069eb8     cdll_int.obj
 0002:00003ec0       ??_C@_0BE@HMKNJEI@glockOldReloadLogic?$AA@ 10069ec0     cdll_int.obj
 0002:00003ed4       ??_C@_0BC@OFBLPIHF@eventsAreFabulous?$AA@ 10069ed4     cdll_int.obj
 0002:00003ee8       ??_C@_0BB@LKMALFBC@event5004Allowed?$AA@ 10069ee8     cdll_int.obj
 0002:00003efc       ??_C@_0BB@MJNKMMJI@event5002Allowed?$AA@ 10069efc     cdll_int.obj
 0002:00003f10       ??_C@_0BB@BLGAELFO@event5031Allowed?$AA@ 10069f10     cdll_int.obj
 0002:00003f24       ??_C@_0BB@PEKCCAGA@event5021Allowed?$AA@ 10069f24     cdll_int.obj
 0002:00003f38       ??_C@_0BB@BPJFJLGD@event5011Allowed?$AA@ 10069f38     cdll_int.obj
 0002:00003f4c       ??_C@_0BB@EJHMNGBP@seeMonsterHealth?$AA@ 10069f4c     cdll_int.obj
 0002:00003f60       ??_C@_0BF@KDJIDDNK@mutePlayerWeaponFire?$AA@ 10069f60     cdll_int.obj
 0002:00003f78       ??_C@_0BC@GGJFFGEK@muteRicochetSound?$AA@ 10069f78     cdll_int.obj
 0002:00003f8c       ??_C@_0BN@IMDMLJLF@muteTempEntityGroundHitSound?$AA@ 10069f8c     cdll_int.obj
 0002:00003fac       ??_C@_0O@FHELEENG@geigerChannel?$AA@ 10069fac     cdll_int.obj
 0002:00003fbc       ??_C@_0BE@CFPBLBNG@muteBulletHitSounds?$AA@ 10069fbc     cdll_int.obj
 0002:00003fd0       ??_C@_0O@NNNHPKLG@myCameraSucks?$AA@ 10069fd0     cdll_int.obj
 0002:00003fe0       ??_C@_06LCCGPCAO@fogFar?$AA@ 10069fe0     cdll_int.obj
 0002:00003fe8       ??_C@_07FLHBNBDO@fogNear?$AA@ 10069fe8     cdll_int.obj
 0002:00003ff0       ??_C@_0P@JFJJAGHO@thatWasntPunch?$AA@ 10069ff0     cdll_int.obj
 0002:00004000       ??_C@_0P@NEBJJAPB@thatWasntGrass?$AA@ 1006a000     cdll_int.obj
 0002:00004010       ??_C@_0O@EOEIBGLD@imAllFuckedUp?$AA@ 1006a010     cdll_int.obj
 0002:00004020       ??_C@_0O@BBOJFKKE@cameraRotOffZ?$AA@ 1006a020     cdll_int.obj
 0002:00004030       ??_C@_0O@DKMEAJGH@cameraRotOffY?$AA@ 1006a030     cdll_int.obj
 0002:00004040       ??_C@_0O@CDNPDICG@cameraRotOffX?$AA@ 1006a040     cdll_int.obj
 0002:00004050       ??_C@_0BA@FNAJDANO@cameraRotFixedZ?$AA@ 1006a050     cdll_int.obj
 0002:00004060       ??_C@_0BA@HGCEGDBN@cameraRotFixedY?$AA@ 1006a060     cdll_int.obj
 0002:00004070       ??_C@_0BA@GPDPFCFM@cameraRotFixedX?$AA@ 1006a070     cdll_int.obj
 0002:00004080       ??_C@_0O@EOMJGNGB@cameraPosOffZ?$AA@ 1006a080     cdll_int.obj
 0002:00004090       ??_C@_0O@GFOEDOKC@cameraPosOffY?$AA@ 1006a090     cdll_int.obj
 0002:000040a0       ??_C@_0O@HMPPAPOD@cameraPosOffX?$AA@ 1006a0a0     cdll_int.obj
 0002:000040b0       ??_C@_0BA@FDDJOJPK@cameraPosFixedZ?$AA@ 1006a0b0     cdll_int.obj
 0002:000040c0       ??_C@_0BA@HIBELKDJ@cameraPosFixedY?$AA@ 1006a0c0     cdll_int.obj
 0002:000040d0       ??_C@_0BA@GBAPILHI@cameraPosFixedX?$AA@ 1006a0d0     cdll_int.obj
 0002:000040e0       ??_C@_0BE@KCOCCDI@raveLaserMultiColor?$AA@ 1006a0e0     cdll_int.obj
 0002:000040f4       ??_C@_0BG@OEBFNNIN@raveLaserFrameRateMax?$AA@ 1006a0f4     cdll_int.obj
 0002:0000410c       ??_C@_0BG@PGJODJOC@raveLaserFrameRateMin?$AA@ 1006a10c     cdll_int.obj
 0002:00004124       ??_C@_0BC@HPMLBNJC@raveLaserNoiseMax?$AA@ 1006a124     cdll_int.obj
 0002:00004138       ??_C@_0BC@GNEAPJPN@raveLaserNoiseMin?$AA@ 1006a138     cdll_int.obj
 0002:0000414c       ??_C@_0BG@GOCBPBFO@raveLaserThicknessMax?$AA@ 1006a14c     cdll_int.obj
 0002:00004164       ??_C@_0BG@HMKKBFDB@raveLaserThicknessMin?$AA@ 1006a164     cdll_int.obj
 0002:0000417c       ??_C@_0BF@GPJPICGC@raveLaserDurationMax?$AA@ 1006a17c     cdll_int.obj
 0002:00004194       ??_C@_0BF@HNBEGGAN@raveLaserDurationMin?$AA@ 1006a194     cdll_int.obj
 0002:000041ac       ??_C@_0BH@KHBFCCII@raveLaserBrightnessMax?$AA@ 1006a1ac     cdll_int.obj
 0002:000041c4       ??_C@_0BH@LFJOMGOH@raveLaserBrightnessMin?$AA@ 1006a1c4     cdll_int.obj
 0002:000041dc       ??_C@_0BK@ICPIFLCK@raveLaserSpawnDistVertMax?$AA@ 1006a1dc     cdll_int.obj
 0002:000041f8       ??_C@_0BK@JAHDLPEF@raveLaserSpawnDistVertMin?$AA@ 1006a1f8     cdll_int.obj
 0002:00004214       ??_C@_0BK@NHMJHEEO@raveLaserSpawnDistHoriMax?$AA@ 1006a214     cdll_int.obj
 0002:00004230       ??_C@_0BK@MFECJACB@raveLaserSpawnDistHoriMin?$AA@ 1006a230     cdll_int.obj
 0002:0000424c       ??_C@_0BA@FFEHFECA@raveLaserLength?$AA@ 1006a24c     cdll_int.obj
 0002:0000425c       ??_C@_0BD@OFJMMABM@raveLaserSpawnFreq?$AA@ 1006a25c     cdll_int.obj
 0002:00004270       ??_C@_0BB@IDCBFHGI@raveLaserEnabled?$AA@ 1006a270     cdll_int.obj
 0002:00004284       ??_C@_0BB@JMKHPJJA@strobeMultiColor?$AA@ 1006a284     cdll_int.obj
 0002:00004298       ??_C@_0BH@OAFNLLBC@strobeSpawnDistVertMax?$AA@ 1006a298     cdll_int.obj
 0002:000042b0       ??_C@_0BH@PCNGFPHN@strobeSpawnDistVertMin?$AA@ 1006a2b0     cdll_int.obj
 0002:000042c8       ??_C@_0BE@BEFPCDCJ@strobeSpawnDistHori?$AA@ 1006a2c8     cdll_int.obj
 0002:000042dc       ??_C@_0BA@DAMEAMGB@strobeRadiusMax?$AA@ 1006a2dc     cdll_int.obj
 0002:000042ec       ??_C@_0BA@CCEPOIAO@strobeRadiusMin?$AA@ 1006a2ec     cdll_int.obj
 0002:000042fc       ??_C@_0BC@LHAECAGD@strobeDurationMax?$AA@ 1006a2fc     cdll_int.obj
 0002:00004310       ??_C@_0BC@KFIPMEAM@strobeDurationMin?$AA@ 1006a310     cdll_int.obj
 0002:00004324       ??_C@_02DKCKIIND@?$CFs?$AA@ 1006a324     com_weapons.obj
 0002:00004328       ??_C@_0CA@DFIBFNJC@?$CB?$CB?$CB?$CBpfnWeaponAnim?3?5a?3?$CFd?5rev?$DP?3?$CFd?$AA@ 1006a328     com_weapons.obj
 0002:00004348       __real@4f800000            1006a348     com_weapons.obj
 0002:00004350       __real@3ef0000000000000    1006a350     com_weapons.obj
 0002:00004358       ??_C@_04HPNHAEOP@func?$AA@ 1006a358     com_weapons.obj
 0002:00004360       ??_C@_08LADGPOPE@mp3?5stop?$AA@ 1006a360     custom_message.obj
 0002:0000436c       ??_C@_0BL@LJOBLCBE@mp3?5play?5media?1AutoMus?4mp3?$AA@ 1006a36c     custom_message.obj
 0002:00004388       ??_C@_0BM@OCFAOANM@mp3?5pause?5media?1AutoMus?4mp3?$AA@ 1006a388     custom_message.obj
 0002:000043a4       ??_C@_0DF@EPLGOCML@CVAR?5DEBUG?3?5Client?3?5found?5ID?5?$CFd?4@ 1006a3a4     custom_message.obj
 0002:000043dc       ??_C@_0BM@MCPGBHN@?$CC?$CFs?$CC?5is?5?$CF?42f?4?5My?5ID?5was?5?$CFd?4?$AA@ 1006a3dc     custom_message.obj
 0002:000043f8       ??_C@_07BIEIMCKD@unpause?$AA@ 1006a3f8     custom_message.obj
 0002:00004400       __real@408f400000000000    1006a400     custom_message.obj
 0002:0000440c       ??_7CCustomMessage@@6B@    1006a40c     custom_message.obj
 0002:00004428       ??_C@_05DFGKJMAF@YMG_S?$AA@ 1006a428     custom_message.obj
 0002:00004430       ??_C@_03KPMEKHJK@YMG?$AA@  1006a430     custom_message.obj
 0002:00004434       ??_C@_05PMDCNHMF@UpdJT?$AA@ 1006a434     custom_message.obj
 0002:0000443c       ??_C@_06HIMJGOFB@UpdTWI?$AA@ 1006a43c     custom_message.obj
 0002:00004444       ??_C@_08ENMIIPGC@MUnpause?$AA@ 1006a444     custom_message.obj
 0002:00004450       ??_C@_07DLHOKLI@UpdPlyA?$AA@ 1006a450     custom_message.obj
 0002:00004458       ??_C@_0M@GPBJHNBB@UpdBnclStat?$AA@ 1006a458     custom_message.obj
 0002:00004464       ??_C@_0M@OHMFPADF@RetrieveFOV?$AA@ 1006a464     custom_message.obj
 0002:00004470       ??_C@_0L@EINPCMGH@PntClientC?$AA@ 1006a470     custom_message.obj
 0002:0000447c       ??_C@_0L@MCODJPPO@RstClientC?$AA@ 1006a47c     custom_message.obj
 0002:00004488       ??_C@_0L@KMCPHDAP@UpdClientC?$AA@ 1006a488     custom_message.obj
 0002:00004494       ??_C@_07ICKNJJFK@CliTest?$AA@ 1006a494     custom_message.obj
 0002:0000449c       ??_C@_07HFDNLCEM@AutoMus?$AA@ 1006a49c     custom_message.obj
 0002:000044a4       ??_C@_07HNJOLPLK@JBoxOff?$AA@ 1006a4a4     custom_message.obj
 0002:000044ac       ??_C@_07NICIAKDH@JBoxReq?$AA@ 1006a4ac     custom_message.obj
 0002:000044b4       ??_C@_07KMNBGIPL@d_skull?$AA@ 1006a4b4     death.obj
 0002:000044c0       __real@4040000000000000    1006a4c0     death.obj
 0002:000044c8       __real@407e000000000000    1006a4c8     death.obj
 0002:000044d0       ??_C@_0N@HPEKGPJE@d_tau?5cannon?$AA@ 1006a4d0     death.obj
 0002:000044e0       ??_C@_05PBNKJDNB@gauss?$AA@ 1006a4e0     death.obj
 0002:000044e8       ??_C@_0M@KIJAOLEC@d_gluon?5gun?$AA@ 1006a4e8     death.obj
 0002:000044f4       ??_C@_04HGALPFFB@egon?$AA@ 1006a4f4     death.obj
 0002:000044fc       ??_C@_06BIDGLIKJ@?5with?5?$AA@ 1006a4fc     death.obj
 0002:00004504       ??_C@_08PNPOMJCL@?5killed?5?$AA@ 1006a504     death.obj
 0002:00004510       ??_C@_0BG@HEJMPEDM@?5killed?5his?5teammate?5?$AA@ 1006a510     death.obj
 0002:00004528       ??_C@_0N@GAJOKECJ@?5killed?5self?$AA@ 1006a528     death.obj
 0002:00004538       ??_C@_05CMIAJFAG@?5died?$AA@ 1006a538     death.obj
 0002:00004540       ??_C@_07JHMODOJM@d_world?$AA@ 1006a540     death.obj
 0002:00004548       ??_C@_0L@EIFJPPDG@?5killed?5a?5?$AA@ 1006a548     death.obj
 0002:00004554       ??_C@_0BF@IGDIMMCO@hud_deathnotice_time?$AA@ 1006a554     death.obj
 0002:0000456c       ??_C@_0L@DJMPGNEL@d_teammate?$AA@ 1006a56c     death.obj
 0002:00004578       ??_C@_02HCEDAEIK@d_?$AA@   1006a578     death.obj
 0002:0000457c       ??_C@_01DHDKHMHF@6?$AA@    1006a57c     death.obj
 0002:00004580       ??_C@_08DMGIIAG@DeathMsg?$AA@ 1006a580     death.obj
 0002:0000458c       ??_C@_0CF@ICKHGGMC@Unknown?5demo?5buffer?5type?0?5skippi@ 1006a58c     demo.obj
 0002:000045b8       __real@3f847ae147ae147b    1006a5b8     entity.obj
 0002:000045c0       __real@42700000            1006a5c0     entity.obj
 0002:000045c4       __real@3f666666            1006a5c4     entity.obj
 0002:000045c8       __real@3feccccccccccccd    1006a5c8     entity.obj
 0002:000045d0       __real@41200000            1006a5d0     entity.obj
 0002:000045d8       __real@4010000000000000    1006a5d8     entity.obj
 0002:000045e0       __real@403e000000000000    1006a5e0     entity.obj
 0002:000045e8       __real@4020000000000000    1006a5e8     entity.obj
 0002:000045f0       __real@3fe6666666666666    1006a5f0     entity.obj
 0002:000045f8       __real@4024000000000000    1006a5f8     entity.obj
 0002:00004600       __real@4016000000000000    1006a600     entity.obj
 0002:00004608       __real@41400000            1006a608     ev_common.obj
 0002:0000460c       __real@41e00000            1006a60c     ev_common.obj
 0002:00004610       __real@40200000            1006a610     ev_common.obj
 0002:00004618       __real@4039000000000000    1006a618     ev_common.obj
 0002:00004620       __real@43160000            1006a620     ev_common.obj
 0002:00004624       __real@42480000            1006a624     ev_common.obj
 0002:00004628       __real@428c0000            1006a628     ev_common.obj
 0002:0000462c       ??_C@_0BD@IOHGMEKA@alphaflashlightoff?$AA@ 1006a62c     flashlight.obj
 0002:00004640       ??_C@_0BC@KECDBHPI@alphaflashlighton?$AA@ 1006a640     flashlight.obj
 0002:00004654       ??_C@_0L@LNMINKED@flash_beam?$AA@ 1006a654     flashlight.obj
 0002:00004660       ??_C@_0L@JJCIJAO@flash_full?$AA@ 1006a660     flashlight.obj
 0002:0000466c       ??_C@_0M@MHLCMJDD@flash_empty?$AA@ 1006a66c     flashlight.obj
 0002:00004678       ??_C@_08JFEKNMJ@FlashBat?$AA@ 1006a678     flashlight.obj
 0002:00004684       ??_C@_0L@PALCELJK@Flashlight?$AA@ 1006a684     flashlight.obj
 0002:00004694       ??_7CGameStudioModelRenderer@@6B@ 1006a694     GameStudioModelRenderer.obj
 0002:00004708       ??_C@_06NKMADNKG@Geiger?$AA@ 1006a708     geiger.obj
 0002:00004710       ??_C@_05HCKPILGO@cross?$AA@ 1006a710     health.obj
 0002:00004718       ??_C@_07LPODHMEF@dmg_bio?$AA@ 1006a718     health.obj
 0002:00004720       __real@4051800000000000    1006a720     health.obj
 0002:00004728       __real@4062c00000000000    1006a728     health.obj
 0002:00004730       __real@4000000000000000    1006a730     health.obj
 0002:00004738       __real@4070000000000000    1006a738     health.obj
 0002:00004740       __real@3fd0000000000000    1006a740     health.obj
 0002:0000474c       ??_7CHudHealth@@6B@        1006a74c     health.obj
 0002:00004768       __real@3e800000            1006a768     health.obj
 0002:00004770       __real@4049000000000000    1006a770     health.obj
 0002:00004778       ??_C@_0DE@MNPLJPPG@OW?5right?5dir?3?$CF?42f?5dam?3?$CF?42f?5resul@ 1006a778     health.obj
 0002:000047ac       ??_C@_0DD@GAHDOAOP@OW?5left?5raw?3?$CF?42f?5dam?3?$CF?42f?5result@ 1006a7ac     health.obj
 0002:000047e0       ??_C@_0DD@GNEOBCFG@OW?5rear?5raw?3?$CF?42f?5dam?3?$CF?42f?5result@ 1006a7e0     health.obj
 0002:00004814       ??_C@_0DF@FFECNIEP@OW?5front?3?5raw?3?$CF?42f?5dam?3?$CF?42f?5resu@ 1006a814     health.obj
 0002:0000484c       __real@40400000            1006a84c     health.obj
 0002:00004850       ??_C@_0BB@PKECPFAG@RAW?5DAMAGE?5?$CFd?5?$CFd?$AA@ 1006a850     health.obj
 0002:00004864       ??_C@_0BH@NGGAJGFP@sprites?1?$CFd_painmod?4spr?$AA@ 1006a864     health.obj
 0002:0000487c       ??_C@_0L@HGDCJJBC@HUDItemFsh?$AA@ 1006a87c     health.obj
 0002:00004888       ??_C@_08BHPNEECN@Drowning?$AA@ 1006a888     health.obj
 0002:00004894       ??_C@_06KGFFMMMJ@Damage?$AA@ 1006a894     health.obj
 0002:0000489c       ??_C@_06GGDALCBD@Health?$AA@ 1006a89c     health.obj
 0002:000048a8       ??_7IVoiceStatusHelper@@6B@ 1006a8a8     hud.obj
 0002:000048c4       ??_7TablePanel@vgui@@6B@   1006a8c4     hud.obj
 0002:00004b1c       ??_7HeaderPanel@vgui@@6B@  1006ab1c     hud.obj
 0002:00004d44       ??_7TextGrid@vgui@@6B@     1006ad44     hud.obj
 0002:00004f5c       ??_7TextImage@vgui@@6B@    1006af5c     hud.obj
 0002:00004fe0       ??_7IntChangeSignal@vgui@@6B@ 1006afe0     hud.obj
 0002:00004fec       ??_7Slider2@vgui@@6B@      1006afec     hud.obj
 0002:00005234       ??_7ScrollBar2@vgui@@6B@   1006b234     hud.obj
 0002:00005470       ??_C@_0M@KMCCHFPF@Aug?530?52018?$AA@ 1006b470     hud.obj
 0002:0000547c       ??_C@_04MMCKKLKL@vs10?$AA@ 1006b47c     hud.obj
 0002:00005484       ??_C@_0BE@EIGFGEIO@weapons?1reload1?4wav?$AA@ 1006b484     hud.obj
 0002:00005498       ??_C@_0BE@MOPBBGCA@weapons?1reload2?4wav?$AA@ 1006b498     hud.obj
 0002:000054ac       ??_C@_0BE@FKNMFIF@weapons?1reload3?4wav?$AA@ 1006b4ac     hud.obj
 0002:000054c0       ??_C@_0BK@JHOFLAAJ@common?1wpn_moveselect?4wav?$AA@ 1006b4c0     hud.obj
 0002:000054dc       ??_C@_08HPLPOCJL@notarget?$AA@ 1006b4dc     hud.obj
 0002:000054e8       ??_C@_0M@OLBNMBHJ@impulse?5105?$AA@ 1006b4e8     hud.obj
 0002:000054f4       ??_C@_0M@HEGEGMEA@cameraper_f?$AA@ 1006b4f4     hud.obj
 0002:00005500       ??_C@_0M@MJABMJD@cameraper_t?$AA@ 1006b500     hud.obj
 0002:0000550c       ??_C@_04NDCEHDGH@god2?$AA@ 1006b50c     hud.obj
 0002:00005514       ??_C@_07PEPMNAD@noclip2?$AA@ 1006b514     hud.obj
 0002:0000551c       ??_C@_0L@BOAAKDBB@fvoxtoggle?$AA@ 1006b51c     hud.obj
 0002:00005528       ??_C@_0O@CINHJAPB@glocksilinact?$AA@ 1006b528     hud.obj
 0002:00005538       ??_C@_0P@JJFAPLLJ@glocksilactive?$AA@ 1006b538     hud.obj
 0002:00005548       ??_C@_0P@HCCEAIMH@brokentranswww?$AA@ 1006b548     hud.obj
 0002:00005558       ??_C@_0P@DMAIBPNG@brokentransalt?$AA@ 1006b558     hud.obj
 0002:00005568       ??_C@_0M@INDFFJNH@brokentrans?$AA@ 1006b568     hud.obj
 0002:00005574       ??_C@_0BN@IBBFAIHF@ALPHACROSSHAIR?5NOT?5LOADED?5A?6?$AA@ 1006b574     hud.obj
 0002:00005594       ??_C@_0BI@OJFCIHOF@battery_full_E3_minimal?$AA@ 1006b594     hud.obj
 0002:000055ac       ??_C@_0BF@KMBHDMNO@battery_full_E3_glow?$AA@ 1006b5ac     hud.obj
 0002:000055c4       ??_C@_0BB@KLIJMILF@battery_empty_E3?$AA@ 1006b5c4     hud.obj
 0002:000055d8       ??_C@_0N@GHGKMOPK@number_0_E3R?$AA@ 1006b5d8     hud.obj
 0002:000055e8       ??_C@_0N@OCNHFDEG@number_1tiny?$AA@ 1006b5e8     hud.obj
 0002:000055f8       ??_C@_0P@FEBMCNBK@number_0health?$AA@ 1006b5f8     hud.obj
 0002:00005608       ??_C@_08OOPIGCLD@number_0?$AA@ 1006b608     hud.obj
 0002:00005614       ??_C@_0BA@ICAOBHNB@sprites?1hud?4txt?$AA@ 1006b614     hud.obj
 0002:00005624       ??_C@_0BA@CFCEEIOE@sprites?1ymg?4spr?$AA@ 1006b624     hud.obj
 0002:00005638       __real@4046800000000000    1006b638     hud.obj
 0002:00005640       __real@4040e00000000000    1006b640     hud.obj
 0002:00005648       ??_C@_0BH@EHIOFMDB@zoom_sensitivity_ratio?$AA@ 1006b648     hud.obj
 0002:00005660       ??_C@_0M@LPOJOBFH@default_fov?$AA@ 1006b660     hud.obj
 0002:0000566c       ??_C@_07LDDIIHCM@RELEASE?$AA@ 1006b66c     hud.obj
 0002:00005674       ??_C@_04JFJJOLBB@1?45u?$AA@ 1006b674     hud.obj
 0002:00005680       ??_7CHLVoiceStatusHelper@@6B@ 1006b680     hud.obj
 0002:00005698       ??_7CHudSpectator@@6B@     1006b698     hud.obj
 0002:000056b8       ??_7CHudGeiger@@6B@        1006b6b8     hud.obj
 0002:000056d8       ??_7CHudBattery@@6B@       1006b6d8     hud.obj
 0002:000056f8       ??_7CHudTrain@@6B@         1006b6f8     hud.obj
 0002:00005718       ??_7CHudFlashlight@@6B@    1006b718     hud.obj
 0002:00005738       ??_7CHudMessage@@6B@       1006b738     hud.obj
 0002:00005758       ??_7CHudStatusBar@@6B@     1006b758     hud.obj
 0002:00005778       ??_7CHudDeathNotice@@6B@   1006b778     hud.obj
 0002:00005798       ??_7CHudSayText@@6B@       1006b798     hud.obj
 0002:000057b8       ??_7CHudMenu@@6B@          1006b7b8     hud.obj
 0002:000057d8       ??_7CHudAmmoSecondary@@6B@ 1006b7d8     hud.obj
 0002:000057f8       ??_7CHudTextMessage@@6B@   1006b7f8     hud.obj
 0002:00005818       ??_7CHudStatusIcons@@6B@   1006b818     hud.obj
 0002:00005834       ??_C@_05COECHLGF@cl_lw?$AA@ 1006b834     hud.obj
 0002:0000583c       ??_C@_08BMDDHCHB@hud_draw?$AA@ 1006b83c     hud.obj
 0002:00005848       ??_C@_0BB@IOFCFALI@hud_capturemouse?$AA@ 1006b848     hud.obj
 0002:0000585c       ??_C@_03BAHGJIAB@105?$AA@  1006b85c     hud.obj
 0002:00005860       ??_C@_03EJIPIALM@1?42?$AA@ 1006b860     hud.obj
 0002:00005864       ??_C@_0P@LAMKKGMB@hud_takesshots?$AA@ 1006b864     hud.obj
 0002:00005874       ??_C@_0BC@MNNNKHJ@hud_classautokill?$AA@ 1006b874     hud.obj
 0002:00005888       ??_C@_0BB@CDBLLIEJ@cl_viewrollspeed?$AA@ 1006b888     hud.obj
 0002:0000589c       ??_C@_03MHAIKEMP@300?$AA@  1006b89c     hud.obj
 0002:000058a0       ??_C@_0BB@OBGPAHP@cl_viewrollangle?$AA@ 1006b8a0     hud.obj
 0002:000058b4       ??_C@_04FKMGDDPN@0?465?$AA@ 1006b8b4     hud.obj
 0002:000058bc       ??_C@_08NOMGHFLN@VGUIMenu?$AA@ 1006b8bc     hud.obj
 0002:000058c8       ??_C@_09CPIHBJAO@AllowSpec?$AA@ 1006b8c8     hud.obj
 0002:000058d4       ??_C@_09BCJOCADI@Spectator?$AA@ 1006b8d4     hud.obj
 0002:000058e0       ??_C@_08BHMNHEND@TeamInfo?$AA@ 1006b8e0     hud.obj
 0002:000058ec       ??_C@_09DEGMELBN@TeamScore?$AA@ 1006b8ec     hud.obj
 0002:000058f8       ??_C@_09CBJIIAKN@ScoreInfo?$AA@ 1006b8f8     hud.obj
 0002:00005904       ??_C@_0L@FFDIDHBB@ServerName?$AA@ 1006b904     hud.obj
 0002:00005910       ??_C@_08HEDJKFEE@RandomPC?$AA@ 1006b910     hud.obj
 0002:0000591c       ??_C@_07KNOBJCBL@BuildSt?$AA@ 1006b91c     hud.obj
 0002:00005924       ??_C@_04KFGJNABM@MOTD?$AA@ 1006b924     hud.obj
 0002:0000592c       ??_C@_07MIOHHHKI@Detpack?$AA@ 1006b92c     hud.obj
 0002:00005934       ??_C@_05DGCGGMBF@Feign?$AA@ 1006b934     hud.obj
 0002:0000593c       ??_C@_09FOBMMBJB@TeamNames?$AA@ 1006b93c     hud.obj
 0002:00005948       ??_C@_08EMNINLMN@ValClass?$AA@ 1006b948     hud.obj
 0002:00005954       ??_C@_09IFGDJPPN@gaussmode?$AA@ 1006b954     hud.obj
 0002:00005960       ??_C@_0BE@OLFLHPFH@hud_drawsidebarmode?$AA@ 1006b960     hud.obj
 0002:00005974       ??_C@_0BL@GOEDINHA@hud_weaponselecthideslower?$AA@ 1006b974     hud.obj
 0002:00005990       ??_C@_0BA@GMKAKJNH@hud_drawammobar?$AA@ 1006b990     hud.obj
 0002:000059a0       ??_C@_0P@OGILLKKE@cl_hornettrail?$AA@ 1006b9a0     hud.obj
 0002:000059b0       ??_C@_0BA@CPMKFPGJ@cl_hornetspiral?$AA@ 1006b9b0     hud.obj
 0002:000059c0       ??_C@_0P@ICFPBAKA@cl_rockettrail?$AA@ 1006b9c0     hud.obj
 0002:000059d0       ??_C@_0BE@FGGOBGKA@cl_bullsquidspitarc?$AA@ 1006b9d0     hud.obj
 0002:000059e4       ??_C@_0BB@KFKGJOBA@cl_bullsquidspit?$AA@ 1006b9e4     hud.obj
 0002:000059f8       ??_C@_09EAFHGGLN@r_shadows?$AA@ 1006b9f8     hud.obj
 0002:00005a04       ??_C@_0P@OKHPOHPC@cl_muzzleflash?$AA@ 1006ba04     hud.obj
 0002:00005a14       ??_C@_0BC@JOELPJGD@wpn_glocksilencer?$AA@ 1006ba14     hud.obj
 0002:00005a28       ??_C@_0N@NLPJDDG@chromeEffect?$AA@ 1006ba28     hud.obj
 0002:00005a38       ??_C@_0BA@JLKGOIAP@hud_batterydraw?$AA@ 1006ba38     hud.obj
 0002:00005a48       ??_C@_0M@OFBEEIEH@hud_version?$AA@ 1006ba48     hud.obj
 0002:00005a54       ??_C@_0L@EFJEICEG@protoDateS?$AA@ 1006ba54     hud.obj
 0002:00005a60       ??_C@_0O@GBOIEDNN@protoVersionS?$AA@ 1006ba60     hud.obj
 0002:00005a70       ??_C@_0BA@OBJMCGML@Start?5the?5game?$CB?$AA@ 1006ba70     hud.obj
 0002:00005a80       ??_C@_0L@PFGJABH@protoDateC?$AA@ 1006ba80     hud.obj
 0002:00005a8c       ??_C@_0O@CLCKFBIM@protoVersionC?$AA@ 1006ba8c     hud.obj
 0002:00005a9c       ??_C@_06OFNKAKDI@sneaky?$AA@ 1006ba9c     hud.obj
 0002:00005aa4       ??_C@_0BC@ONPCOGBN@soundSentenceSave?$AA@ 1006baa4     hud.obj
 0002:00005ab8       ??_C@_0M@OMEJILOD@precacheAll?$AA@ 1006bab8     hud.obj
 0002:00005ac4       ??_C@_0O@IOCGGHBA@cl_fvoxtoggle?$AA@ 1006bac4     hud.obj
 0002:00005ad4       ??_C@_0N@NLLCAOOC@god_friendly?$AA@ 1006bad4     hud.obj
 0002:00005ae4       ??_C@_0BA@NBGPPJJP@noclip_friendly?$AA@ 1006bae4     hud.obj
 0002:00005af4       ??_C@_0L@LMLCIEBB@pissedNPCs?$AA@ 1006baf4     hud.obj
 0002:00005b00       ??_C@_0N@KAFEELFD@cl_explosion?$AA@ 1006bb00     hud.obj
 0002:00005b10       ??_C@_09BEKJOCCI@cl_ladder?$AA@ 1006bb10     hud.obj
 0002:00005b1c       ??_C@_07IJDMBJDD@cl_fvox?$AA@ 1006bb1c     hud.obj
 0002:00005b24       ??_C@_01HIHLOKLC@1?$AA@    1006bb24     hud.obj
 0002:00005b28       ??_C@_0BA@NOFJEAHE@hud_brokentrans?$AA@ 1006bb28     hud.obj
 0002:00005b38       ??_C@_08IKGFCBJ@hud_logo?$AA@ 1006bb38     hud.obj
 0002:00005b44       ??_C@_0O@HNPIGJHN@togglebrowser?$AA@ 1006bb44     hud.obj
 0002:00005b54       ??_C@_07BELCMIIP@special?$AA@ 1006bb54     hud.obj
 0002:00005b5c       ??_C@_0BG@OILKJFBH@ForceCloseCommandMenu?$AA@ 1006bb5c     hud.obj
 0002:00005b74       ??_C@_0N@DIPKKCEG@?9commandmenu?$AA@ 1006bb74     hud.obj
 0002:00005b84       ??_C@_0N@JIBPHNJL@?$CLcommandmenu?$AA@ 1006bb84     hud.obj
 0002:00005b94       ??_C@_07KCBJBGLB@Concuss?$AA@ 1006bb94     hud.obj
 0002:00005b9c       ??_C@_06NJNDMID@SetFOV?$AA@ 1006bb9c     hud.obj
 0002:00005ba4       ??_C@_08IMMBLBLF@ViewMode?$AA@ 1006bba4     hud.obj
 0002:00005bb0       ??_C@_07PEONMAPN@InitHUD?$AA@ 1006bbb0     hud.obj
 0002:00005bb8       ??_C@_08JJGOBBMF@GameMode?$AA@ 1006bbb8     hud.obj
 0002:00005bc4       ??_C@_08PEHACIKG@ResetHUD?$AA@ 1006bbc4     hud.obj
 0002:00005bd0       ??_C@_04GIGGPADC@Logo?$AA@ 1006bbd0     hud.obj
 0002:00005bd8       ??_C@_0M@GLFMHAAH@dmg_concuss?$AA@ 1006bbd8     hud_msg.obj
 0002:00005be4       __real@3e6b851f            1006bbe4     hud_redraw.obj
 0002:00005be8       __real@42bc0000            1006bbe8     hud_redraw.obj
 0002:00005bec       __real@42dc0000            1006bbec     hud_redraw.obj
 0002:00005bf0       __real@42b40000            1006bbf0     hud_redraw.obj
 0002:00005bf8       __real@401101dc658b13e9    1006bbf8     hud_redraw.obj
 0002:00005c00       __real@405f800000000000    1006bc00     hud_redraw.obj
 0002:00005c08       __real@4069000000000000    1006bc08     hud_redraw.obj
 0002:00005c10       ??_C@_0BE@CMKCIFOB@sprites?1?$CFd_logo?4spr?$AA@ 1006bc10     hud_redraw.obj
 0002:00005c24       ??_C@_09ILCFAPJK@snapshot?6?$AA@ 1006bc24     hud_redraw.obj
 0002:00005c30       ??_C@_02DPKJAMEF@?$CFd?$AA@ 1006bc30     hud_redraw.obj
 0002:00005c34       ??_C@_09HALKJNGK@got?5list?6?$AA@ 1006bc34     hud_servers.obj
 0002:00005c40       ??_C@_08EHKIGBEA@hostname?$AA@ 1006bc40     hud_servers.obj
 0002:00005c4c       ??_C@_05LCABBMOG@?$CFs?3?$CFi?$AA@ 1006bc4c     hud_servers.obj
 0002:00005c54       ??_C@_01JLIPDDHJ@?3?$AA@   1006bc54     hud_servers.obj
 0002:00005c58       ??_C@_01CELHOKLL@?$HN?$AA@ 1006bc58     hud_servers.obj
 0002:00005c5c       ??_C@_01HCONENDN@?$HL?$AA@ 1006bc5c     hud_servers.obj
 0002:00005c60       ??_C@_06INNNFHKM@Master?$AA@ 1006bc60     hud_servers.obj
 0002:00005c68       ??_C@_05NIIEOPOF@?9comm?$AA@ 1006bc68     hud_servers.obj
 0002:00005c70       ??_C@_0BH@POMFIJOE@half?9life?4east?4won?4net?$AA@ 1006bc70     hud_servers.obj
 0002:00005c88       ??_C@_0M@PIDBIKCE@woncomm?4lst?$AA@ 1006bc88     hud_servers.obj
 0002:00005c94       ??_C@_04OONEELOO@ping?$AA@ 1006bc94     hud_servers.obj
 0002:00005c9c       ??_C@_07LHEPONKL@address?$AA@ 1006bc9c     hud_servers.obj
 0002:00005ca4       ??_C@_02IKAHHCAI@?$CFi?$AA@ 1006bca4     hud_servers.obj
 0002:00005ca8       ??_C@_0DG@OAALHIGH@SendRequest?3?5?5Unable?5to?5read?5mas@ 1006bca8     hud_servers.obj
 0002:00005ce0       ??_C@_0BM@PBPJNGEE@drc_spray?5?$CF?42f?5?$CF?42f?5?$CF?42f?5?$CFi?$AA@ 1006bce0     hud_spectator.obj
 0002:00005cfc       __real@43000000            1006bcfc     hud_spectator.obj
 0002:00005d00       ??_C@_02HAOIJKIC@?$CFc?$AA@ 1006bd00     hud_spectator.obj
 0002:00005d04       ??_C@_0BA@CCNJAPBO@?$CDSpec_Help_Text?$AA@ 1006bd04     hud_spectator.obj
 0002:00005d14       ??_C@_0BJ@PAGNGJCG@usage?3?5?5spec_menu?5?$DM0?$HM1?$DO?6?$AA@ 1006bd14     hud_spectator.obj
 0002:00005d30       ??_C@_0DB@LCCPKBCM@UTIL_FindEntityInMap?3?5closing?5br@ 1006bd30     hud_spectator.obj
 0002:00005d64       ??_C@_0CC@LNLNNALJ@UTIL_FindEntityInMap?3?5expected?5?$HL@ 1006bd64     hud_spectator.obj
 0002:00005d88       ??_C@_0DB@OHOEAMHJ@UTIL_FindEntityInMap?3?5EOF?5withou@ 1006bd88     hud_spectator.obj
 0002:00005dbc       ??_C@_06NHCMNMEH@origin?$AA@ 1006bdbc     hud_spectator.obj
 0002:00005dc4       ??_C@_06GNEAMJOC@angles?$AA@ 1006bdc4     hud_spectator.obj
 0002:00005dcc       __real@c2b40000            1006bdcc     hud_spectator.obj
 0002:00005dd0       ??_C@_05FECBCJJD@angle?$AA@ 1006bdd0     hud_spectator.obj
 0002:00005dd8       ??_C@_09CNJINBGN@classname?$AA@ 1006bdd8     hud_spectator.obj
 0002:00005de4       ??_C@_0BB@HKBBLLCA@info_player_coop?$AA@ 1006bde4     hud_spectator.obj
 0002:00005df8       ??_C@_0BH@IGAFCIL@info_player_deathmatch?$AA@ 1006bdf8     hud_spectator.obj
 0002:00005e10       ??_C@_0BC@IHPKIKNE@info_player_start?$AA@ 1006be10     hud_spectator.obj
 0002:00005e24       ??_C@_0P@FJOMPPCK@trigger_camera?$AA@ 1006be24     hud_spectator.obj
 0002:00005e34       ??_C@_0BH@IKIHGJOH@sprites?1crosshairs?4spr?$AA@ 1006be34     hud_spectator.obj
 0002:00005e4c       ??_C@_0BD@LOJIPFHH@sprites?1camera?4spr?$AA@ 1006be4c     hud_spectator.obj
 0002:00005e60       ??_C@_0BG@LKPONKLB@sprites?1laserbeam?4spr?$AA@ 1006be60     hud_spectator.obj
 0002:00005e78       ??_C@_0BB@HJGECOFP@sprites?1tile?4spr?$AA@ 1006be78     hud_spectator.obj
 0002:00005e8c       ??_C@_0BI@DCNJECMO@sprites?1iplayerdead?4spr?$AA@ 1006be8c     hud_spectator.obj
 0002:00005ea4       ??_C@_0BH@EOGINPGP@sprites?1iplayerred?4spr?$AA@ 1006bea4     hud_spectator.obj
 0002:00005ebc       ??_C@_0BI@GEBELBH@sprites?1iplayerblue?4spr?$AA@ 1006bebc     hud_spectator.obj
 0002:00005ed4       ??_C@_0BE@OHGMCOHF@sprites?1iplayer?4spr?$AA@ 1006bed4     hud_spectator.obj
 0002:00005ee8       __real@4084000000000000    1006bee8     hud_spectator.obj
 0002:00005ef0       ??_C@_0CN@KGPODENE@Error?5parsing?5overview?5file?5?$CFs?4?5@ 1006bef0     hud_spectator.obj
 0002:00005f20       ??_C@_0DF@LJNEDBEA@Error?5parsing?5overview?5file?5?$CFs?4?5@ 1006bf20     hud_spectator.obj
 0002:00005f58       ??_C@_0CP@MEBBDFEG@Error?5parsing?5overview?5file?5?$CFs?4?5@ 1006bf58     hud_spectator.obj
 0002:00005f88       ??_C@_06LNLHEAAG@height?$AA@ 1006bf88     hud_spectator.obj
 0002:00005f90       ??_C@_05NGOMGBBD@image?$AA@ 1006bf90     hud_spectator.obj
 0002:00005f98       ??_C@_05NAHLDCCJ@layer?$AA@ 1006bf98     hud_spectator.obj
 0002:00005fa0       ??_C@_05DLABHDKJ@inset?$AA@ 1006bfa0     hud_spectator.obj
 0002:00005fa8       ??_C@_07JGGHALPO@rotated?$AA@ 1006bfa8     hud_spectator.obj
 0002:00005fb0       ??_C@_06FJKEMHGD@global?$AA@ 1006bfb0     hud_spectator.obj
 0002:00005fb8       ??_C@_0DP@DDEJNCCD@Couldn?8t?5open?5file?5?$CFs?4?5Using?5def@ 1006bfb8     hud_spectator.obj
 0002:00005ff8       ??_C@_0BB@JNJCKILF@overviews?1?$CFs?4txt?$AA@ 1006bff8     hud_spectator.obj
 0002:00006010       __real@40b0000000000000    1006c010     hud_spectator.obj
 0002:00006018       __real@3ff5555560000000    1006c018     hud_spectator.obj
 0002:00006020       __real@40c0000000000000    1006c020     hud_spectator.obj
 0002:00006028       __real@4056800000000000    1006c028     hud_spectator.obj
 0002:00006030       __real@c2340000            1006c030     hud_spectator.obj
 0002:00006034       __real@42340000            1006c034     hud_spectator.obj
 0002:00006038       __real@44000000            1006c038     hud_spectator.obj
 0002:0000603c       __real@3f20a0a1            1006c03c     hud_spectator.obj
 0002:00006040       __real@c2800000            1006c040     hud_spectator.obj
 0002:00006044       __real@42800000            1006c044     hud_spectator.obj
 0002:00006048       ??_C@_0N@CHHJEJMP@ignoremsg?5?$CFi?$AA@ 1006c048     hud_spectator.obj
 0002:00006058       ??_C@_0BG@MNJFKGFL@No?5observer?5targets?4?6?$AA@ 1006c058     hud_spectator.obj
 0002:00006070       ??_C@_0O@GNCHHKOI@follownext?5?$CFi?$AA@ 1006c070     hud_spectator.obj
 0002:00006080       ??_C@_0BJ@COIHBDFG@Invalid?5spectator?5mode?4?6?$AA@ 1006c080     hud_spectator.obj
 0002:0000609c       ??_C@_04CDPLFOEF@?$CFc?$CFs?$AA@ 1006c09c     hud_spectator.obj
 0002:000060a4       ??_C@_0N@BGPNICFE@?$CDSpec_Mode?$CFd?$AA@ 1006c0a4     hud_spectator.obj
 0002:000060b4       ??_C@_0CO@GBFHPFON@usage?3?5?5spec_mode?5?$DMMain?5Mode?$DO?5?$FL?$DM@ 1006c0b4     hud_spectator.obj
 0002:000060e4       ??_C@_0DD@MECJOOGH@ERROR?$CB?5Couldn?8t?5register?5all?5spe@ 1006c0e4     hud_spectator.obj
 0002:00006118       ??_C@_08JCCDOKLI@spec_pip?$AA@ 1006c118     hud_spectator.obj
 0002:00006124       ??_C@_0BC@DGEJKFNE@spec_autodirector?$AA@ 1006c124     hud_spectator.obj
 0002:00006138       ??_C@_0BA@LCDGCKOM@spec_drawstatus?$AA@ 1006c138     hud_spectator.obj
 0002:00006148       ??_C@_0O@GOPFKL@spec_drawcone?$AA@ 1006c148     hud_spectator.obj
 0002:00006158       ??_C@_0P@FEANDMPB@spec_drawnames?$AA@ 1006c158     hud_spectator.obj
 0002:00006168       ??_C@_0N@HLDCAAPM@togglescores?$AA@ 1006c168     hud_spectator.obj
 0002:00006178       ??_C@_09FDHOPHBG@spec_menu?$AA@ 1006c178     hud_spectator.obj
 0002:00006184       ??_C@_09OFGNFIEN@spec_help?$AA@ 1006c184     hud_spectator.obj
 0002:00006190       ??_C@_0L@PDIFGNLE@spec_decal?$AA@ 1006c190     hud_spectator.obj
 0002:0000619c       ??_C@_09HLJGIAPF@spec_mode?$AA@ 1006c19c     hud_spectator.obj
 0002:000061a8       ??_C@_0DF@LIDEKMMD@CHudSpectator?3?3DirectorMessage?3?5@ 1006c1a8     hud_spectator.obj
 0002:000061e0       ??_C@_0M@LGHPNHI@HUD_MESSAGE?$AA@ 1006c1e0     hud_spectator.obj
 0002:000061ec       __real@c1400000            1006c1ec     hud_spectator.obj
 0002:000061f0       __real@bc23d70a            1006c1f0     hud_spectator.obj
 0002:000061f4       __real@43b40000            1006c1f4     in_camera.obj
 0002:000061f8       __real@43340000            1006c1f8     in_camera.obj
 0002:00006200       __real@4076800000000000    1006c200     in_camera.obj
 0002:00006208       ??_C@_0M@PFFOCDDE@cam_command?$AA@ 1006c208     in_camera.obj
 0002:00006214       __real@41f00000            1006c214     in_camera.obj
 0002:00006218       ??_C@_0O@MOAOFBJ@c_mindistance?$AA@ 1006c218     in_camera.obj
 0002:00006228       ??_C@_04MCOCGPAM@30?40?$AA@ 1006c228     in_camera.obj
 0002:00006230       ??_C@_0O@JMJDPFPD@c_maxdistance?$AA@ 1006c230     in_camera.obj
 0002:00006240       ??_C@_05LLBAOFME@200?40?$AA@ 1006c240     in_camera.obj
 0002:00006248       ??_C@_08CMNKKMPB@c_minyaw?$AA@ 1006c248     in_camera.obj
 0002:00006254       ??_C@_06MPDODLAJ@?9135?40?$AA@ 1006c254     in_camera.obj
 0002:0000625c       ??_C@_08CPCJEMLO@c_maxyaw?$AA@ 1006c25c     in_camera.obj
 0002:00006268       ??_C@_05ENPKBNII@135?40?$AA@ 1006c268     in_camera.obj
 0002:00006270       ??_C@_0L@DALIDCNE@c_minpitch?$AA@ 1006c270     in_camera.obj
 0002:0000627c       ??_C@_03MDAFIFFL@0?40?$AA@ 1006c27c     in_camera.obj
 0002:00006280       ??_C@_0L@OHFDIAJF@c_maxpitch?$AA@ 1006c280     in_camera.obj
 0002:0000628c       ??_C@_04IIFCHHKN@90?40?$AA@ 1006c28c     in_camera.obj
 0002:00006294       ??_C@_0M@OBJKFKGG@cam_contain?$AA@ 1006c294     in_camera.obj
 0002:000062a0       ??_C@_0O@IBNPLBFH@cam_idealdist?$AA@ 1006c2a0     in_camera.obj
 0002:000062b0       ??_C@_02JLHCEMDI@64?$AA@   1006c2b0     in_camera.obj
 0002:000062b4       ??_C@_0P@EEFDDHII@cam_idealpitch?$AA@ 1006c2b4     in_camera.obj
 0002:000062c4       ??_C@_0N@POMDDEAP@cam_idealyaw?$AA@ 1006c2c4     in_camera.obj
 0002:000062d4       ??_C@_02PEECMOAB@90?$AA@   1006c2d4     in_camera.obj
 0002:000062d8       ??_C@_0L@NDMPLLOE@cam_snapto?$AA@ 1006c2d8     in_camera.obj
 0002:000062e4       ??_C@_06PDBNMNJI@snapto?$AA@ 1006c2e4     in_camera.obj
 0002:000062ec       ??_C@_0N@EAPODADJ@?9camdistance?$AA@ 1006c2ec     in_camera.obj
 0002:000062fc       ??_C@_0N@OABLOPOE@?$CLcamdistance?$AA@ 1006c2fc     in_camera.obj
 0002:0000630c       ??_C@_0O@EDIPBGME@?9cammousemove?$AA@ 1006c30c     in_camera.obj
 0002:0000631c       ??_C@_0O@LLENFNHC@?$CLcammousemove?$AA@ 1006c31c     in_camera.obj
 0002:0000632c       ??_C@_0M@INGIFFDB@firstperson?$AA@ 1006c32c     in_camera.obj
 0002:00006338       ??_C@_0M@BIELKGOF@thirdperson?$AA@ 1006c338     in_camera.obj
 0002:00006344       ??_C@_07JKNGJPHG@?9camout?$AA@ 1006c344     in_camera.obj
 0002:0000634c       ??_C@_07FMLJJGPB@?$CLcamout?$AA@ 1006c34c     in_camera.obj
 0002:00006354       ??_C@_06JDPPMCIM@?9camin?$AA@ 1006c354     in_camera.obj
 0002:0000635c       ??_C@_06PACPPHLG@?$CLcamin?$AA@ 1006c35c     in_camera.obj
 0002:00006364       ??_C@_0N@POHGIBBO@?9camyawright?$AA@ 1006c364     in_camera.obj
 0002:00006374       ??_C@_0N@FOJDFOMD@?$CLcamyawright?$AA@ 1006c374     in_camera.obj
 0002:00006384       ??_C@_0M@IHEBHMIM@?9camyawleft?$AA@ 1006c384     in_camera.obj
 0002:00006390       ??_C@_0M@GIHMNJGM@?$CLcamyawleft?$AA@ 1006c390     in_camera.obj
 0002:0000639c       ??_C@_0O@BKAJDLBF@?9campitchdown?$AA@ 1006c39c     in_camera.obj
 0002:000063ac       ??_C@_0O@OCMLHAKD@?$CLcampitchdown?$AA@ 1006c3ac     in_camera.obj
 0002:000063bc       ??_C@_0M@CHEDMMEP@?9campitchup?$AA@ 1006c3bc     in_camera.obj
 0002:000063c8       ??_C@_0M@MIHOGJKP@?$CLcampitchup?$AA@ 1006c3c8     in_camera.obj
 0002:000063d4       ??_C@_08KKKAJICN@in_jlook?$AA@ 1006c3d4     input.obj
 0002:000063e0       ??_C@_08LHKFKIJF@in_mlook?$AA@ 1006c3e0     input.obj
 0002:000063ec       ??_C@_08BFGGGCKN@in_graph?$AA@ 1006c3ec     input.obj
 0002:000063f8       ??_C@_0CO@JIBCJLJF@Three?5keys?5down?5for?5a?5button?5?8?$CFc@ 1006c3f8     input.obj
 0002:00006428       __real@3f400000            1006c428     input.obj
 0002:0000642c       __real@c2480000            1006c42c     input.obj
 0002:00006430       __real@c049000000000000    1006c430     input.obj
 0002:00006438       ??_C@_06NKCCGJAO@m_side?$AA@ 1006c438     input.obj
 0002:00006440       ??_C@_03LNMAPFD@0?48?$AA@  1006c440     input.obj
 0002:00006444       ??_C@_09CGJLBBDA@m_forward?$AA@ 1006c444     input.obj
 0002:00006450       ??_C@_05HPEILLPC@m_yaw?$AA@ 1006c450     input.obj
 0002:00006458       ??_C@_07JIEGLHEC@m_pitch?$AA@ 1006c458     input.obj
 0002:00006460       ??_C@_05OACFFLK@0?4022?$AA@ 1006c460     input.obj
 0002:00006468       ??_C@_0O@MBIEBEEJ@cl_vsmoothing?$AA@ 1006c468     input.obj
 0002:00006478       ??_C@_04FOELEPEP@0?405?$AA@ 1006c478     input.obj
 0002:00006480       ??_C@_0N@FAPBPPOA@cl_pitchdown?$AA@ 1006c480     input.obj
 0002:00006490       ??_C@_0L@EELGACDO@cl_pitchup?$AA@ 1006c490     input.obj
 0002:0000649c       ??_C@_02CEECBPHP@89?$AA@   1006c49c     input.obj
 0002:000064a0       ??_C@_0BA@JDGEPJLO@cl_movespeedkey?$AA@ 1006c4a0     input.obj
 0002:000064b0       ??_C@_03OICINGJI@0?43?$AA@ 1006c4b0     input.obj
 0002:000064b4       ??_C@_0N@NCCMPMBI@cl_sidespeed?$AA@ 1006c4b4     input.obj
 0002:000064c4       ??_C@_0N@PLGCMGJC@cl_backspeed?$AA@ 1006c4c4     input.obj
 0002:000064d4       ??_C@_0BA@NOBHMJJP@cl_forwardspeed?$AA@ 1006c4d4     input.obj
 0002:000064e4       ??_C@_03FKNPJMHG@400?$AA@  1006c4e4     input.obj
 0002:000064e8       ??_C@_0L@ELHKEFF@cl_upspeed?$AA@ 1006c4e8     input.obj
 0002:000064f4       ??_C@_03MEIMHAKB@320?$AA@  1006c4f4     input.obj
 0002:000064f8       ??_C@_0O@KLONPPKB@cl_pitchspeed?$AA@ 1006c4f8     input.obj
 0002:00006508       ??_C@_03BEHODIB@225?$AA@   1006c508     input.obj
 0002:0000650c       ??_C@_0M@JHKIFKKF@cl_yawspeed?$AA@ 1006c50c     input.obj
 0002:00006518       ??_C@_03HOHGKJJN@210?$AA@  1006c518     input.obj
 0002:0000651c       ??_C@_0BB@FCKNHEAF@cl_anglespeedkey?$AA@ 1006c51c     input.obj
 0002:00006530       ??_C@_04GIPAFBHP@0?467?$AA@ 1006c530     input.obj
 0002:00006538       ??_C@_0L@JLGKDAJC@lookspring?$AA@ 1006c538     input.obj
 0002:00006544       ??_C@_0L@PJGKGJFB@lookstrafe?$AA@ 1006c544     input.obj
 0002:00006550       ??_C@_06MJDDHBGJ@?9break?$AA@ 1006c550     input.obj
 0002:00006558       ??_C@_06KKODEEFD@?$CLbreak?$AA@ 1006c558     input.obj
 0002:00006560       ??_C@_06CAFFONAJ@?9graph?$AA@ 1006c560     input.obj
 0002:00006568       ??_C@_06EDIFNIDD@?$CLgraph?$AA@ 1006c568     input.obj
 0002:00006570       ??_C@_0M@EBLBFJDL@?9showscores?$AA@ 1006c570     input.obj
 0002:0000657c       ??_C@_0M@KOIMPMNL@?$CLshowscores?$AA@ 1006c57c     input.obj
 0002:00006588       ??_C@_06LDGHMOKG@?9score?$AA@ 1006c588     input.obj
 0002:00006590       ??_C@_06NALHPLJM@?$CLscore?$AA@ 1006c590     input.obj
 0002:00006598       ??_C@_05LFAIJJMM@?9alt1?$AA@ 1006c598     input.obj
 0002:000065a0       ??_C@_05GDFBHKNB@?$CLalt1?$AA@ 1006c5a0     input.obj
 0002:000065a8       ??_C@_07KMGDHKFH@?9reload?$AA@ 1006c5a8     input.obj
 0002:000065b0       ??_C@_07GKAMHDNA@?$CLreload?$AA@ 1006c5b0     input.obj
 0002:000065b8       ??_C@_05JMEAOIC@?9duck?$AA@ 1006c5b8     input.obj
 0002:000065c0       ??_C@_05NPJNONJP@?$CLduck?$AA@ 1006c5c0     input.obj
 0002:000065c8       ??_C@_06JPJDBHIJ@?9jlook?$AA@ 1006c5c8     input.obj
 0002:000065d0       ??_C@_06PMEDCCLD@?$CLjlook?$AA@ 1006c5d0     input.obj
 0002:000065d8       ??_C@_06ICJGCHDB@?9mlook?$AA@ 1006c5d8     input.obj
 0002:000065e0       ??_C@_06OBEGBCAL@?$CLmlook?$AA@ 1006c5e0     input.obj
 0002:000065e8       ??_C@_06FEMPMECM@?9klook?$AA@ 1006c5e8     input.obj
 0002:000065f0       ??_C@_06DHBPPBBG@?$CLklook?$AA@ 1006c5f0     input.obj
 0002:000065f8       ??_C@_07LKMFNFAN@impulse?$AA@ 1006c5f8     input.obj
 0002:00006600       ??_C@_05BFFMFGHD@?9jump?$AA@ 1006c600     input.obj
 0002:00006608       ??_C@_05MDAFLFGO@?$CLjump?$AA@ 1006c608     input.obj
 0002:00006610       ??_C@_04BCFAPKBC@?9use?$AA@ 1006c610     input.obj
 0002:00006618       ??_C@_04JNBAAPLC@?$CLuse?$AA@ 1006c618     input.obj
 0002:00006620       ??_C@_08NKKOODMP@?9attack2?$AA@ 1006c620     input.obj
 0002:0000662c       ??_C@_08KJLEJKEF@?$CLattack2?$AA@ 1006c62c     input.obj
 0002:00006638       ??_C@_07GIMEOOL@?9attack?$AA@ 1006c638     input.obj
 0002:00006640       ??_C@_07MAODEHGM@?$CLattack?$AA@ 1006c640     input.obj
 0002:00006648       ??_C@_06PLOIEHCE@?9speed?$AA@ 1006c648     input.obj
 0002:00006650       ??_C@_06JIDIHCBO@?$CLspeed?$AA@ 1006c650     input.obj
 0002:00006658       ??_C@_0L@LEKMOGAF@?9moveright?$AA@ 1006c658     input.obj
 0002:00006664       ??_C@_0L@FMBJCMEG@?$CLmoveright?$AA@ 1006c664     input.obj
 0002:00006670       ??_C@_09ICIDCGOI@?9moveleft?$AA@ 1006c670     input.obj
 0002:0000667c       ??_C@_09IPJNFGKP@?$CLmoveleft?$AA@ 1006c67c     input.obj
 0002:00006688       ??_C@_07OBMFNJMJ@?9strafe?$AA@ 1006c688     input.obj
 0002:00006690       ??_C@_07CHKKNAEO@?$CLstrafe?$AA@ 1006c690     input.obj
 0002:00006698       ??_C@_09KPLABCPP@?9lookdown?$AA@ 1006c698     input.obj
 0002:000066a4       ??_C@_09KCKOGCLI@?$CLlookdown?$AA@ 1006c6a4     input.obj
 0002:000066b0       ??_C@_07MHFKIPNM@?9lookup?$AA@ 1006c6b0     input.obj
 0002:000066b8       ??_C@_07BDFIGFL@?$CLlookup?$AA@ 1006c6b8     input.obj
 0002:000066c0       ??_C@_05FJPPDLOK@?9back?$AA@ 1006c6c0     input.obj
 0002:000066c8       ??_C@_05IPKGNIPH@?$CLback?$AA@ 1006c6c8     input.obj
 0002:000066d0       ??_C@_08NJFEAJHL@?9forward?$AA@ 1006c6d0     input.obj
 0002:000066dc       ??_C@_08KKEOHAPB@?$CLforward?$AA@ 1006c6dc     input.obj
 0002:000066e8       ??_C@_06LFFHCIPL@?9right?$AA@ 1006c6e8     input.obj
 0002:000066f0       ??_C@_06NGIHBNMB@?$CLright?$AA@ 1006c6f0     input.obj
 0002:000066f8       ??_C@_05KCDMNOKJ@?9left?$AA@ 1006c6f8     input.obj
 0002:00006700       ??_C@_05HEGFDNLE@?$CLleft?$AA@ 1006c700     input.obj
 0002:00006708       ??_C@_09HAIHLONB@?9movedown?$AA@ 1006c708     input.obj
 0002:00006714       ??_C@_09HNJJMOJG@?$CLmovedown?$AA@ 1006c714     input.obj
 0002:00006720       ??_C@_07OMACAGKI@?9moveup?$AA@ 1006c720     input.obj
 0002:00006728       ??_C@_07CKGNAPCP@?$CLmoveup?$AA@ 1006c728     input.obj
 0002:00006730       __real@c3160000            1006c730     input.obj
 0002:00006734       ??_C@_0P@PJACOMAN@?9noforcemparms?$AA@ 1006c734     inputw32.obj
 0002:00006744       ??_C@_0P@GAKEABIP@?9noforcemaccel?$AA@ 1006c744     inputw32.obj
 0002:00006754       ??_C@_0N@BIOPFBFN@?9noforcemspd?$AA@ 1006c754     inputw32.obj
 0002:00006764       ??_C@_08GPADOFHN@?9nomouse?$AA@ 1006c764     inputw32.obj
 0002:00006770       ??_C@_0BB@NOIPDHAF@joystick?5found?6?6?$AA@ 1006c770     inputw32.obj
 0002:00006784       ??_C@_0DL@MIDHCADG@joystick?5not?5found?5?9?9?5invalid?5jo@ 1006c784     inputw32.obj
 0002:000067c0       ??_C@_0DA@NMIAJCGD@joystick?5not?5found?5?9?9?5no?5valid?5j@ 1006c7c0     inputw32.obj
 0002:000067f0       ??_C@_0CL@KIPOHMFD@joystick?5not?5found?5?9?9?5driver?5not@ 1006c7f0     inputw32.obj
 0002:0000681c       ??_C@_06MIIKPKO@?9nojoy?$AA@ 1006c81c     inputw32.obj
 0002:00006824       ??_C@_0BB@EEABALLD@?6?$CFs?5configured?6?6?$AA@ 1006c824     inputw32.obj
 0002:00006838       ??_C@_08KLNCIBHI@joystick?$AA@ 1006c838     inputw32.obj
 0002:00006848       __real@4066800000000000    1006c848     inputw32.obj
 0002:00006850       __real@3f00000000000000    1006c850     inputw32.obj
 0002:00006858       __real@465ac000            1006c858     inputw32.obj
 0002:00006860       __real@40cb580000000000    1006c860     inputw32.obj
 0002:00006868       __real@4072c00000000000    1006c868     inputw32.obj
 0002:00006870       __real@3ff4cccccccccccd    1006c870     inputw32.obj
 0002:00006878       __real@4089000000000000    1006c878     inputw32.obj
 0002:00006880       __real@40e0000000000000    1006c880     inputw32.obj
 0002:00006888       ??_C@_0BC@HGINHNFJ@joyadvancedupdate?$AA@ 1006c888     inputw32.obj
 0002:0000689c       ??_C@_0BB@JFMGBHMD@force_centerview?$AA@ 1006c89c     inputw32.obj
 0002:000068b0       ??_C@_0L@BFCBCHGH@joywwhack2?$AA@ 1006c8b0     inputw32.obj
 0002:000068bc       ??_C@_0L@DOAMHEKE@joywwhack1?$AA@ 1006c8bc     inputw32.obj
 0002:000068c8       ??_C@_0BC@GNDNCBHD@joyyawsensitivity?$AA@ 1006c8c8     inputw32.obj
 0002:000068dc       ??_C@_0BE@CIDHPJGA@joypitchsensitivity?$AA@ 1006c8dc     inputw32.obj
 0002:000068f0       ??_C@_03HLLJOCDO@1?40?$AA@ 1006c8f0     inputw32.obj
 0002:000068f4       ??_C@_0BD@HCABLBBE@joysidesensitivity?$AA@ 1006c8f4     inputw32.obj
 0002:00006908       ??_C@_0BG@MALNOMPG@joyforwardsensitivity?$AA@ 1006c908     inputw32.obj
 0002:00006920       ??_C@_04KFIOCBIK@?91?40?$AA@ 1006c920     inputw32.obj
 0002:00006928       ??_C@_0BA@PNLJJDKB@joyyawthreshold?$AA@ 1006c928     inputw32.obj
 0002:00006938       ??_C@_0BC@BJJOFKID@joypitchthreshold?$AA@ 1006c938     inputw32.obj
 0002:0000694c       ??_C@_0BB@INOMEBOO@joysidethreshold?$AA@ 1006c94c     inputw32.obj
 0002:00006960       ??_C@_0BE@FHPOKP@joyforwardthreshold?$AA@ 1006c960     inputw32.obj
 0002:00006974       ??_C@_04FPIJCFHI@0?415?$AA@ 1006c974     inputw32.obj
 0002:0000697c       ??_C@_0M@HMMIGIOD@joyadvaxisv?$AA@ 1006c97c     inputw32.obj
 0002:00006988       ??_C@_0M@FHOFDLCA@joyadvaxisu?$AA@ 1006c988     inputw32.obj
 0002:00006994       ??_C@_0M@BIKEKNOH@joyadvaxisr?$AA@ 1006c994     inputw32.obj
 0002:000069a0       ??_C@_0M@NAHNCHOP@joyadvaxisz?$AA@ 1006c9a0     inputw32.obj
 0002:000069ac       ??_C@_0M@PLFAHECM@joyadvaxisy?$AA@ 1006c9ac     inputw32.obj
 0002:000069b8       ??_C@_0M@OCELEFGN@joyadvaxisx?$AA@ 1006c9b8     inputw32.obj
 0002:000069c4       ??_C@_0M@JMIKEFLE@joyadvanced?$AA@ 1006c9c4     inputw32.obj
 0002:000069d0       ??_C@_07HHDIGCDL@joyname?$AA@ 1006c9d0     inputw32.obj
 0002:000069d8       ??_C@_0M@JFLMCFNC@sensitivity?$AA@ 1006c9d8     inputw32.obj
 0002:000069e4       ??_C@_01EKENIIDA@3?$AA@    1006c9e4     inputw32.obj
 0002:000069e8       ??_C@_08BEMLPELN@m_filter?$AA@ 1006c9e8     inputw32.obj
 0002:000069f4       ??_C@_0P@GNDNMPMB@menuselect?5?$CFd?6?$AA@ 1006c9f4     menu.obj
 0002:00006a04       ??_C@_08IGGENMMJ@ShowMenu?$AA@ 1006ca04     menu.obj
 0002:00006a10       ??_C@_06IFGIOHDE@Custom?$AA@ 1006ca10     message.obj
 0002:00006a18       ??_C@_0L@LHBALECA@title_life?$AA@ 1006ca18     message.obj
 0002:00006a24       ??_C@_0L@KBJOOMBK@title_half?$AA@ 1006ca24     message.obj
 0002:00006a30       __real@3f1a36e2eb1c432d    1006ca30     message.obj
 0002:00006a38       __real@40a00000            1006ca38     message.obj
 0002:00006a3c       __real@3fc00000            1006ca3c     message.obj
 0002:00006a40       ??_C@_09HPEMDGDO@GAMETITLE?$AA@ 1006ca40     message.obj
 0002:00006a4c       ??_C@_09HEMANCP@GameTitle?$AA@ 1006ca4c     message.obj
 0002:00006a58       ??_C@_07JNEKKACO@HudText?$AA@ 1006ca58     message.obj
 0002:00006a60       __real@3fc0000000000000    1006ca60     parsemsg.obj
 0002:00006a68       __real@3ff6800000000000    1006ca68     parsemsg.obj
 0002:00006a70       __real@3f76800000000000    1006ca70     parsemsg.obj
 0002:00006a78       __real@4066c16c16c16c17    1006ca78     pm_math.obj
 0002:00006a80       __real@bff0000000000000    1006ca80     pm_math.obj
 0002:00006a88       __real@3f91df46a2529d39    1006ca88     pm_math.obj
 0002:00006a90       __real@c3340000            1006ca90     pm_math.obj
 0002:00006a98       __real@400921fb54442d18    1006ca98     pm_math.obj
 0002:00006aa0       __real@43870000            1006caa0     pm_math.obj
 0002:00006aa4       ??_C@_0BE@CMDBNMCL@sound?1materials?4txt?$AA@ 1006caa4     pm_shared.obj
 0002:00006ab8       ??_C@_0BE@FADOODEJ@player?1pl_step4?4wav?$AA@ 1006cab8     pm_shared.obj
 0002:00006acc       ??_C@_0BE@IGGHAAFE@player?1pl_step2?4wav?$AA@ 1006cacc     pm_shared.obj
 0002:00006ae0       ??_C@_0BE@ENDLNDPB@player?1pl_step3?4wav?$AA@ 1006cae0     pm_shared.obj
 0002:00006af4       ??_C@_0BE@PDHCPK@player?1pl_step1?4wav?$AA@ 1006caf4     pm_shared.obj
 0002:00006b08       ??_C@_0BG@BCBKKDE@player?1pl_ladder4?4wav?$AA@ 1006cb08     pm_shared.obj
 0002:00006b20       ??_C@_0BG@NHHIEJCJ@player?1pl_ladder2?4wav?$AA@ 1006cb20     pm_shared.obj
 0002:00006b38       ??_C@_0BG@BMCEJKIM@player?1pl_ladder3?4wav?$AA@ 1006cb38     pm_shared.obj
 0002:00006b50       ??_C@_0BG@FBOMDLIH@player?1pl_ladder1?4wav?$AA@ 1006cb50     pm_shared.obj
 0002:00006b68       ??_C@_0BE@EGMOPHPK@player?1pl_wade4?4wav?$AA@ 1006cb68     pm_shared.obj
 0002:00006b7c       ??_C@_0BE@FLMLMHEC@player?1pl_wade3?4wav?$AA@ 1006cb7c     pm_shared.obj
 0002:00006b90       ??_C@_0BE@JAJHBEOH@player?1pl_wade2?4wav?$AA@ 1006cb90     pm_shared.obj
 0002:00006ba4       ??_C@_0BE@BGADGGEJ@player?1pl_wade1?4wav?$AA@ 1006cba4     pm_shared.obj
 0002:00006bb8       ??_C@_0BF@EGMNOHPE@player?1pl_slosh4?4wav?$AA@ 1006cbb8     pm_shared.obj
 0002:00006bd0       ??_C@_0BF@JAJEAEOJ@player?1pl_slosh2?4wav?$AA@ 1006cbd0     pm_shared.obj
 0002:00006be8       ??_C@_0BF@FLMINHEM@player?1pl_slosh3?4wav?$AA@ 1006cbe8     pm_shared.obj
 0002:00006c00       ??_C@_0BF@BGAAHGEH@player?1pl_slosh1?4wav?$AA@ 1006cc00     pm_shared.obj
 0002:00006c18       ??_C@_0BE@OJICGPB@player?1pl_tile5?4wav?$AA@ 1006cc18     pm_shared.obj
 0002:00006c2c       ??_C@_0BE@MFMEPFFE@player?1pl_tile4?4wav?$AA@ 1006cc2c     pm_shared.obj
 0002:00006c40       ??_C@_0BE@BDJNBGEJ@player?1pl_tile2?4wav?$AA@ 1006cc40     pm_shared.obj
 0002:00006c54       ??_C@_0BE@NIMBMFOM@player?1pl_tile3?4wav?$AA@ 1006cc54     pm_shared.obj
 0002:00006c68       ??_C@_0BE@JFAJGEOH@player?1pl_tile1?4wav?$AA@ 1006cc68     pm_shared.obj
 0002:00006c7c       ??_C@_0BF@MCFFFCKN@player?1pl_grate4?4wav?$AA@ 1006cc7c     pm_shared.obj
 0002:00006c94       ??_C@_0BF@BEAMLBLA@player?1pl_grate2?4wav?$AA@ 1006cc94     pm_shared.obj
 0002:00006cac       ??_C@_0BF@NPFAGCBF@player?1pl_grate3?4wav?$AA@ 1006ccac     pm_shared.obj
 0002:00006cc4       ??_C@_0BF@JCJIMDBO@player?1pl_grate1?4wav?$AA@ 1006ccc4     pm_shared.obj
 0002:00006cdc       ??_C@_0BE@LABHEAAP@player?1pl_duct4?4wav?$AA@ 1006ccdc     pm_shared.obj
 0002:00006cf0       ??_C@_0BE@GGEOKDBC@player?1pl_duct2?4wav?$AA@ 1006ccf0     pm_shared.obj
 0002:00006d04       ??_C@_0BE@KNBCHALH@player?1pl_duct3?4wav?$AA@ 1006cd04     pm_shared.obj
 0002:00006d18       ??_C@_0BE@OANKNBLM@player?1pl_duct1?4wav?$AA@ 1006cd18     pm_shared.obj
 0002:00006d2c       ??_C@_0BE@EKPCMANP@player?1pl_dirt4?4wav?$AA@ 1006cd2c     pm_shared.obj
 0002:00006d40       ??_C@_0BE@JMKLCDMC@player?1pl_dirt2?4wav?$AA@ 1006cd40     pm_shared.obj
 0002:00006d54       ??_C@_0BE@FHPHPAGH@player?1pl_dirt3?4wav?$AA@ 1006cd54     pm_shared.obj
 0002:00006d68       ??_C@_0BE@BKDPFBGM@player?1pl_dirt1?4wav?$AA@ 1006cd68     pm_shared.obj
 0002:00006d7c       ??_C@_0BF@KCBMONBK@player?1pl_metal4?4wav?$AA@ 1006cd7c     pm_shared.obj
 0002:00006d94       ??_C@_0BF@HEEFAOAH@player?1pl_metal2?4wav?$AA@ 1006cd94     pm_shared.obj
 0002:00006dac       ??_C@_0BF@LPBJNNKC@player?1pl_metal3?4wav?$AA@ 1006cdac     pm_shared.obj
 0002:00006dc4       ??_C@_0BF@PCNBHMKJ@player?1pl_metal1?4wav?$AA@ 1006cdc4     pm_shared.obj
 0002:00006de0       __real@406b800000000000    1006cde0     pm_shared.obj
 0002:00006de8       ??_C@_03CEBKKHNB@plm?$AA@  1006cde8     pm_shared.obj
 0002:00006df0       __real@4050000000000000    1006cdf0     pm_shared.obj
 0002:00006df8       __real@3fd6666666666666    1006cdf8     pm_shared.obj
 0002:00006e00       __real@3fd999999999999a    1006ce00     pm_shared.obj
 0002:00006e08       __real@3fe199999999999a    1006ce08     pm_shared.obj
 0002:00006e10       __real@3f266666            1006ce10     pm_shared.obj
 0002:00006e14       __real@3eb33333            1006ce14     pm_shared.obj
 0002:00006e18       __real@3fd3333333333333    1006ce18     pm_shared.obj
 0002:00006e20       __real@42a00000            1006ce20     pm_shared.obj
 0002:00006e24       __real@43520000            1006ce24     pm_shared.obj
 0002:00006e28       __real@42f00000            1006ce28     pm_shared.obj
 0002:00006e2c       ??_C@_0CB@CNILIGKA@Too?5many?5entities?5were?5touched?$CB?6@ 1006ce2c     pm_shared.obj
 0002:00006e50       ??_C@_0CC@OFBNMFAF@PM?5?5Got?5a?5velocity?5too?5low?5on?5?$CFi@ 1006ce50     pm_shared.obj
 0002:00006e74       ??_C@_0CD@BDBMHNGO@PM?5?5Got?5a?5velocity?5too?5high?5on?5?$CF@ 1006ce74     pm_shared.obj
 0002:00006e98       ??_C@_0BM@IKDFNEMI@PM?5?5Got?5a?5NaN?5origin?5on?5?$CFi?6?$AA@ 1006ce98     pm_shared.obj
 0002:00006eb4       ??_C@_0BL@ODOJHMIN@PM?5?5Got?5a?5NaN?5velocity?5?$CFi?6?$AA@ 1006ceb4     pm_shared.obj
 0002:00006ed0       __real@bfb999999999999a    1006ced0     pm_shared.obj
 0002:00006ed8       ??_C@_03IDKGGDDA@nsm?$AA@  1006ced8     pm_shared.obj
 0002:00006ee0       __real@4041000000000000    1006cee0     pm_shared.obj
 0002:00006ee8       __real@4030000000000000    1006cee8     pm_shared.obj
 0002:00006ef0       __real@3fb99999a0000000    1006cef0     pm_shared.obj
 0002:00006ef8       __real@3fe999999999999a    1006cef8     pm_shared.obj
 0002:00006f00       __real@404e000000000000    1006cf00     pm_shared.obj
 0002:00006f08       __real@42900000            1006cf08     pm_shared.obj
 0002:00006f10       __real@4032000000000000    1006cf10     pm_shared.obj
 0002:00006f18       __real@41000000            1006cf18     pm_shared.obj
 0002:00006f1c       __real@c1000000            1006cf1c     pm_shared.obj
 0002:00006f20       __real@3fa999999999999a    1006cf20     pm_shared.obj
 0002:00006f28       __real@40c3880000000000    1006cf28     pm_shared.obj
 0002:00006f30       __real@40adf1ffffffffff    1006cf30     pm_shared.obj
 0002:00006f38       __real@461c4000            1006cf38     pm_shared.obj
 0002:00006f40       __real@408c200000000000    1006cf40     pm_shared.obj
 0002:00006f48       ??_C@_03JPIAMAEA@ncm?$AA@  1006cf48     pm_shared.obj
 0002:00006f50       __real@3fe4cccccccccccd    1006cf50     pm_shared.obj
 0002:00006f58       __real@40f1940000000000    1006cf58     pm_shared.obj
 0002:00006f60       __real@40f5e00000000000    1006cf60     pm_shared.obj
 0002:00006f68       __real@3ff999999999999a    1006cf68     pm_shared.obj
 0002:00006f70       __real@4075e00000000000    1006cf70     pm_shared.obj
 0002:00006f78       __real@c0a00000            1006cf78     pm_shared.obj
 0002:00006f80       __real@401c000000000000    1006cf80     pm_shared.obj
 0002:00006f88       ??_C@_03BGCJJFPM@jfm?$AA@  1006cf88     pm_shared.obj
 0002:00006f8c       ??_C@_03HJOOJOPI@slj?$AA@  1006cf8c     pm_shared.obj
 0002:00006f90       ??_C@_0BE@JJECKFIA@player?1pl_jump2?4wav?$AA@ 1006cf90     pm_shared.obj
 0002:00006fa4       ??_C@_0BE@BPNGNHCO@player?1pl_jump1?4wav?$AA@ 1006cfa4     pm_shared.obj
 0002:00006fb8       ??_C@_0BE@BBPAIPMO@player?1plyrjmp8?4wav?$AA@ 1006cfb8     pm_shared.obj
 0002:00006fcc       __real@447a0000            1006cfcc     pm_shared.obj
 0002:00006fd0       ??_C@_03DIGMJINO@tfc?$AA@  1006cfd0     pm_shared.obj
 0002:00006fd8       __real@406c200000000000    1006cfd8     pm_shared.obj
 0002:00006fe0       __real@44fa0000            1006cfe0     pm_shared.obj
 0002:00006fe4       ??_C@_0BI@MCOMGOAA@player?1pl_jumpland2?4wav?$AA@ 1006cfe4     pm_shared.obj
 0002:00006ffc       __real@43af0000            1006cffc     pm_shared.obj
 0002:00007000       __real@3f826e978d4fdf3b    1006d000     pm_shared.obj
 0002:00007008       __real@3f59999a            1006d008     pm_shared.obj
 0002:0000700c       __real@43910000            1006d00c     pm_shared.obj
 0002:00007010       __real@3f8a9fbe76c8b439    1006d010     pm_shared.obj
 0002:00007018       ??_C@_0BI@PLJFMNJG@player?1pl_fallpain3?4wav?$AA@ 1006d018     pm_shared.obj
 0002:00007030       __real@44110000            1006d030     pm_shared.obj
 0002:00007034       __real@40c00000            1006d034     pm_shared.obj
 0002:00007038       __real@3e000000            1006d038     pm_shared.obj
 0002:0000703c       __real@be000000            1006d03c     pm_shared.obj
 0002:00007040       __real@c018000000000000    1006d040     pm_shared.obj
 0002:00007048       __real@403c000000000000    1006d048     pm_shared.obj
 0002:00007050       __real@3fd54fdf3b645a1d    1006d050     pm_shared.obj
 0002:00007058       ??_C@_0DC@MKOCNFCM@Bogus?5pmove?5player?5movetype?5?$CFi?5o@ 1006d058     pm_shared.obj
 0002:00007090       __real@3f50624dd2f1a9fc    1006d090     pm_shared.obj
 0002:00007098       ??_C@_03FFIDGLAK@res?$AA@  1006d098     pm_shared.obj
 0002:0000709c       ??_C@_01CLKCMJKC@?5?$AA@   1006d09c     saytext.obj
 0002:000070a0       ??_C@_0O@JPPDMPEP@misc?1talk?4wav?$AA@ 1006d0a0     saytext.obj
 0002:000070b0       ??_C@_0BB@OPEEGHEM@hud_saytext_time?$AA@ 1006d0b0     saytext.obj
 0002:000070c4       ??_C@_0M@GCMOLOHF@hud_saytext?$AA@ 1006d0c4     saytext.obj
 0002:000070d0       ??_C@_07JAECCEML@SayText?$AA@ 1006d0d0     saytext.obj
 0002:000070d8       ??_C@_0BC@KNPBAIFK@weapons?1timer?4wav?$AA@ 1006d0d8     status_icons.obj
 0002:000070ec       ??_C@_07JBPBHDIL@grenade?$AA@ 1006d0ec     status_icons.obj
 0002:000070f4       ??_C@_0L@BOOHPCFL@StatusIcon?$AA@ 1006d0f4     status_icons.obj
 0002:00007100       ??_C@_06LBCGBHOC@?$CK?$CK?$CK?$CK?$CK?$CK?$AA@ 1006d100     statusbar.obj
 0002:00007108       ??_C@_0N@NACMNLCC@hud_centerid?$AA@ 1006d108     statusbar.obj
 0002:00007118       __real@4042000000000000    1006d118     statusbar.obj
 0002:00007120       ??_C@_0M@GOKLPADN@StatusValue?$AA@ 1006d120     statusbar.obj
 0002:0000712c       ??_C@_0L@KLILBJK@StatusText?$AA@ 1006d12c     statusbar.obj
 0002:00007138       __real@3ff921fb54442d18    1006d138     studio_util.obj
 0002:00007140       __real@3eb0c6f7a0b5ed8d    1006d140     studio_util.obj
 0002:00007148       ??_C@_0P@JAKGJBEE@r_drawentities?$AA@ 1006d148     StudioModelRenderer.obj
 0002:00007158       ??_C@_09DNECJBKD@developer?$AA@ 1006d158     StudioModelRenderer.obj
 0002:00007164       ??_C@_0M@NHHOJIBJ@cl_himodels?$AA@ 1006d164     StudioModelRenderer.obj
 0002:00007174       ??_7CStudioModelRenderer@@6B@ 1006d174     StudioModelRenderer.obj
 0002:000071e8       __real@3f90000000000000    1006d1e8     StudioModelRenderer.obj
 0002:000071f0       ??_C@_0M@KOFNDIEA@loading?5?$CFs?6?$AA@ 1006d1f0     StudioModelRenderer.obj
 0002:00007200       __real@bf847ae147ae147b    1006d200     StudioModelRenderer.obj
 0002:00007208       __real@c1200000            1006d208     StudioModelRenderer.obj
 0002:0000720c       __real@3fbdf3b6            1006d20c     StudioModelRenderer.obj
 0002:00007210       ??_C@_0DF@HIILJGIB@RENDER?3?5id?3?$CFd?5ai?3?$CFd?5seq?3?$CFd?5f?3?$CF?42@ 1006d210     StudioModelRenderer.obj
 0002:00007248       __real@3ff004189374bc6a    1006d248     StudioModelRenderer.obj
 0002:00007250       __real@3f70000000000000    1006d250     StudioModelRenderer.obj
 0002:00007258       ??_C@_0M@ECGMMMKA@Bip01?5Spine?$AA@ 1006d258     StudioModelRenderer.obj
 0002:00007264       ??_C@_0CN@NJOMFNLH@AM?5I?5BACKWARDS?5MOTHAFUCKAAAAAAHH@ 1006d264     StudioModelRenderer.obj
 0002:00007294       ??_C@_0M@FNEPPBEP@BULLSHIT?51a?$AA@ 1006d294     StudioModelRenderer.obj
 0002:000072a0       ??_C@_0BH@BLMGELHA@O?5SHIT?$DP?$DP?$DP?5id?3?$CFd?5seq?3?$CFd?$AA@ 1006d2a0     StudioModelRenderer.obj
 0002:000072b8       ??_C@_0L@CPGJHOLG@BULLSHIT?53?$AA@ 1006d2b8     StudioModelRenderer.obj
 0002:000072c8       __real@3fce1e1e1e1e1e1e    1006d2c8     StudioModelRenderer.obj
 0002:000072d0       __real@c05e000000000000    1006d2d0     StudioModelRenderer.obj
 0002:000072d8       ??_C@_0L@DGHCEPPH@BULLSHIT?52?$AA@ 1006d2d8     StudioModelRenderer.obj
 0002:000072e4       ??_C@_0BM@JLFDLDEI@Too?5many?5attachments?5on?5?$CFs?6?$AA@ 1006d2e4     StudioModelRenderer.obj
 0002:00007300       __real@40800000            1006d300     StudioModelRenderer.obj
 0002:00007304       ??_C@_0BC@ICNMJHMC@FLAG11?4?5s?3?$CFd?5b?3?$CFd?$AA@ 1006d304     StudioModelRenderer.obj
 0002:00007318       ??_C@_0BC@FPEKEOEH@FLAG10?4?5s?3?$CFd?5b?3?$CFd?$AA@ 1006d318     StudioModelRenderer.obj
 0002:0000732c       ??_C@_0BB@MJOLAHLL@FLAG9?4?5s?3?$CFd?5b?3?$CFd?$AA@ 1006d32c     StudioModelRenderer.obj
 0002:00007340       ??_C@_0BB@BEHNNODO@FLAG8?4?5s?3?$CFd?5b?3?$CFd?$AA@ 1006d340     StudioModelRenderer.obj
 0002:00007354       ??_C@_06LDFEEGMG@OHSHIT?$AA@ 1006d354     StudioModelRenderer.obj
 0002:0000735c       ??_C@_0BB@DDANALAL@FLAG7?4?5s?3?$CFd?5b?3?$CFd?$AA@ 1006d35c     StudioModelRenderer.obj
 0002:00007370       ??_C@_0BB@OOJLNCIO@FLAG6?4?5s?3?$CFd?5b?3?$CFd?$AA@ 1006d370     StudioModelRenderer.obj
 0002:00007384       ??_C@_0BC@IPNFJMLL@FLAG5d?4?5s?3?$CFd?5b?3?$CFd?$AA@ 1006d384     StudioModelRenderer.obj
 0002:00007398       ??_C@_0BC@PCKGJKOD@FLAG5c?4?5s?3?$CFd?5b?3?$CFd?$AA@ 1006d398     StudioModelRenderer.obj
 0002:000073ac       ??_C@_0BC@CPDAEDGG@FLAG5b?4?5s?3?$CFd?5b?3?$CFd?$AA@ 1006d3ac     StudioModelRenderer.obj
 0002:000073c0       ??_C@_0BC@JCPKCPKI@FLAG5a?4?5s?3?$CFd?5b?3?$CFd?$AA@ 1006d3c0     StudioModelRenderer.obj
 0002:000073d4       ??_C@_0BB@FDFBLOEA@FLAG5?4?5s?3?$CFd?5b?3?$CFd?$AA@ 1006d3d4     StudioModelRenderer.obj
 0002:000073e8       ??_C@_0BB@IOMHGHMF@FLAG4?4?5s?3?$CFd?5b?3?$CFd?$AA@ 1006d3e8     StudioModelRenderer.obj
 0002:000073fc       ??_C@_0BB@PDLEGBJN@FLAG3?4?5s?3?$CFd?5b?3?$CFd?$AA@ 1006d3fc     StudioModelRenderer.obj
 0002:00007410       ??_C@_0BB@COCCLIBI@FLAG2?4?5s?3?$CFd?5b?3?$CFd?$AA@ 1006d410     StudioModelRenderer.obj
 0002:00007424       ??_C@_0BB@JDOINENG@FLAG1?4?5s?3?$CFd?5b?3?$CFd?$AA@ 1006d424     StudioModelRenderer.obj
 0002:00007438       ??_C@_07GMGJNMMC@TextMsg?$AA@ 1006d438     text_message.obj
 0002:00007440       __real@4012000000000000    1006d440     train.obj
 0002:00007448       ??_C@_0BF@NIILEJAO@sprites?1?$CFd_train?4spr?$AA@ 1006d448     train.obj
 0002:00007460       ??_C@_05GFNCIBPC@Train?$AA@ 1006d460     train.obj
 0002:00007468       __real@3fd7ae147ae147ae    1006d468     tri.obj
 0002:00007470       ??_C@_0DC@OOONAAOL@ERROR?3?5could?5not?5set?5alpha?5cross@ 1006d470     util.obj
 0002:000074a8       __real@4019800000000000    1006d4a8     util.obj
 0002:000074b0       __real@3f999999a0000000    1006d4b0     util.obj
 0002:000074b8       ??_C@_07CLPDBJLL@N?8?5SHIT?$AA@ 1006d4b8     util.obj
 0002:000074c0       ??_C@_0M@GOCNKKLC@WE?5GOT?5MATH?$AA@ 1006d4c0     util.obj
 0002:000074cc       __real@3f07ae14            1006d4cc     util.obj
 0002:000074d0       __real@3f68f5c3            1006d4d0     util.obj
 0002:000074d8       __real@401921d9f4d37c13    1006d4d8     util.obj
 0002:000074e0       __real@3fb0c13bf88cfd62    1006d4e0     util.obj
 0002:000074e8       __real@4046000000000000    1006d4e8     util.obj
 0002:000074f0       __real@4028000000000000    1006d4f0     util.obj
 0002:000074f8       __real@3ff3333333333333    1006d4f8     util.obj
 0002:00007500       ??_C@_0BJ@NGCOIHL@BITCHES?5DIG?5MY?5SINE?5WAVE?$AA@ 1006d500     util.obj
 0002:00007520       __real@402c333340000000    1006d520     util.obj
 0002:00007528       __real@4079000000000000    1006d528     util.obj
 0002:00007530       ??_C@_05OLOPLHHL@DICKS?$AA@ 1006d530     util.obj
 0002:00007538       __real@4064000000000000    1006d538     util.obj
 0002:00007540       ??_C@_0BP@COLNHMPM@I?8M?5LITTLE?5TEAPOT?5SUCK?5MY?5DICK?$AA@ 1006d540     util.obj
 0002:00007560       __real@3ff3333340000000    1006d560     util.obj
 0002:00007568       __real@4044000000000000    1006d568     util.obj
 0002:00007570       ??_C@_0BJ@FHEHIJDI@MOTHERFUCKERS?5GONNA?5FUCK?$AA@ 1006d570     util.obj
 0002:00007590       __real@c054000000000000    1006d590     util.obj
 0002:00007598       __real@c04e000000000000    1006d598     util.obj
 0002:000075a0       ??_C@_07BBNNIMLK@BITCHES?$AA@ 1006d5a0     util.obj
 0002:000075a8       __real@4014666660000000    1006d5a8     util.obj
 0002:000075b0       ??_C@_0N@FINDGPHH@MOTHERFUCKER?$AA@ 1006d5b0     util.obj
 0002:000075c0       ??_C@_0BC@GCMMDLGJ@TASTE?5THE?5RAINBOW?$AA@ 1006d5c0     util.obj
 0002:000075d4       ??_C@_08HLALLBFE@FABULOUS?$AA@ 1006d5d4     util.obj
 0002:000075e0       ??_C@_0JI@MFFDELFG@LOLOLOLOLOLOLOLOLOLOLOLOLOLOLOLO@ 1006d5e0     util.obj
 0002:00007678       ??_C@_0KE@HBFFJIPJ@LOLOLOLOLOLOLOLOLOLOLOLOLOLOLOLO@ 1006d678     util.obj
 0002:00007720       __real@4006666660000000    1006d720     util.obj
 0002:00007728       ??_C@_0L@DKEDGKDG@OH?5SHIT?$CB?$CB?$CB?$AA@ 1006d728     util.obj
 0002:00007734       ??_C@_0O@HKGCOGMI@FUCK?5YO?5COUCH?$AA@ 1006d734     util.obj
 0002:00007748       __real@4016666660000000    1006d748     util.obj
 0002:00007750       __real@4021333340000000    1006d750     util.obj
 0002:00007758       ??_C@_0O@FBFLHIND@8?$DN?$DN?$DN?$DN?$DN?$DN?$DN?$DN?$DN?$DN?$DND?$AA@ 1006d758     util.obj
 0002:00007768       ??_C@_0CE@DEOOINBA@Consequences?5will?5never?5be?5the?5s@ 1006d768     util.obj
 0002:0000778c       __real@3ecccccd            1006d78c     util.obj
 0002:00007790       ??_C@_09OOLIDFPE@MR?4?5KRABS?$AA@ 1006d790     util.obj
 0002:0000779c       ??_C@_0BH@KALGOPLJ@ARE?5YOU?5FEELIN?8?5IT?5NOW?$AA@ 1006d79c     util.obj
 0002:000077b4       ??_C@_05DIALNFFA@?$CFs?5?$CFd?$AA@ 1006d7b4     util.obj
 0002:000077bc       ??_C@_0M@DFLPLONF@sendautofov?$AA@ 1006d7bc     util.obj
 0002:000077c8       __real@3f933333            1006d7c8     util.obj
 0002:000077cc       __real@3f99999a            1006d7cc     util.obj
 0002:000077d0       __real@3fd9999a            1006d7d0     util.obj
 0002:000077d4       __real@3fb33333            1006d7d4     util.obj
 0002:000077d8       __real@41500000            1006d7d8     util.obj
 0002:000077dc       __real@3e570a3d            1006d7dc     util.obj
 0002:000077e0       __real@3d0f5c29            1006d7e0     util.obj
 0002:000077e4       __real@c0c00000            1006d7e4     util.obj
 0002:000077e8       __real@3e6147ae            1006d7e8     util.obj
 0002:000077ec       __real@3d449ba6            1006d7ec     util.obj
 0002:000077f0       __real@44bb8000            1006d7f0     util.obj
 0002:000077f4       __real@43be0000            1006d7f4     util.obj
 0002:000077f8       __real@43820000            1006d7f8     util.obj
 0002:000077fc       __real@40266666            1006d7fc     util.obj
 0002:00007800       __real@3df5c28f            1006d800     util.obj
 0002:00007804       __real@3d75c28f            1006d804     util.obj
 0002:00007808       __real@40133333            1006d808     util.obj
 0002:0000780c       __real@42960000            1006d80c     util.obj
 0002:00007810       __real@41c80000            1006d810     util.obj
 0002:00007814       __real@43cd0000            1006d814     util.obj
 0002:00007818       __real@438c0000            1006d818     util.obj
 0002:0000781c       __real@3e0f5c29            1006d81c     util.obj
 0002:00007820       __real@3da3d70a            1006d820     util.obj
 0002:00007828       ??_7CDefaultInputSignal@vgui@@6B@ 1006d828     vgui_checkbutton2.obj
 0002:00007858       ??_7CMenuHandler_StringCommand@@6B@ 1006d858     vgui_ClassMenu.obj
 0002:00007860       ??_7CMenuHandler_StringCommandClassSelect@@6B@ 1006d860     vgui_ClassMenu.obj
 0002:00007868       ??_7CMenuHandler_TextWindow@@6B@ 1006d868     vgui_ClassMenu.obj
 0002:00007870       ??_7CHandler_MenuButtonOver@@6B@ 1006d870     vgui_ClassMenu.obj
 0002:000078a4       ??_7ClassButton@@6B@       1006d8a4     vgui_ClassMenu.obj
 0002:00007b14       ??_7CTransparentPanel@@6B@ 1006db14     vgui_ClassMenu.obj
 0002:00007d10       __real@4038000000000000    1006dd10     vgui_ClassMenu.obj
 0002:00007d18       ??_C@_0N@LGOCEOKL@?$CDMenu_Cancel?$AA@ 1006dd18     vgui_ClassMenu.obj
 0002:00007d28       ??_C@_0CB@IBOLKFJM@Class?5Description?5not?5available?4@ 1006dd28     vgui_ClassMenu.obj
 0002:00007d4c       ??_C@_0BF@JPAOPDCP@classes?1short_?$CFs?4txt?$AA@ 1006dd4c     vgui_ClassMenu.obj
 0002:00007d68       __real@4045000000000000    1006dd68     vgui_ClassMenu.obj
 0002:00007d70       ??_C@_0BL@HAKMLCJM@?$CDTitle_CurrentlyOnYourTeam?$AA@ 1006dd70     vgui_ClassMenu.obj
 0002:00007d8c       ??_C@_06KKBCBABK@?$CFsblue?$AA@ 1006dd8c     vgui_ClassMenu.obj
 0002:00007d94       ??_C@_05CJJFJPLJ@?$CFsred?$AA@ 1006dd94     vgui_ClassMenu.obj
 0002:00007d9c       ??_C@_09MHDMPGFO@?$CDTitle_?$CFs?$AA@ 1006dd9c     vgui_ClassMenu.obj
 0002:00007da8       __real@405f000000000000    1006dda8     vgui_ClassMenu.obj
 0002:00007db0       __real@4066000000000000    1006ddb0     vgui_ClassMenu.obj
 0002:00007db8       __real@407a800000000000    1006ddb8     vgui_ClassMenu.obj
 0002:00007dc0       __real@4073800000000000    1006ddc0     vgui_ClassMenu.obj
 0002:00007dc8       ??_C@_0BH@PDMOPGGD@?$CDTitle_SelectYourClass?$AA@ 1006ddc8     vgui_ClassMenu.obj
 0002:00007de0       ??_C@_0O@LAHMHNHE@Briefing?5Text?$AA@ 1006dde0     vgui_ClassMenu.obj
 0002:00007df0       ??_C@_0L@DICIJODC@Title?5Font?$AA@ 1006ddf0     vgui_ClassMenu.obj
 0002:00007e04       ??_7CClassMenuPanel@@6B@   1006de04     vgui_ClassMenu.obj
 0002:00008020       ??_7TextEntry@vgui@@6BInputSignal@1@@ 1006e020     vgui_ConsolePanel.obj
 0002:00008054       ??_7TextEntry@vgui@@6BPanel@1@@ 1006e054     vgui_ConsolePanel.obj
 0002:000082b4       ??_7EtchedBorder@vgui@@6B@ 1006e2b4     vgui_ConsolePanel.obj
 0002:00008324       ??_7LoweredBorder@vgui@@6B@ 1006e324     vgui_ConsolePanel.obj
 0002:00008390       ??_7DataInputStream@vgui@@6BInputStream@1@@ 1006e390     vgui_ControlConfigPanel.obj
 0002:000083b0       ??_7DataInputStream@vgui@@6B01@@ 1006e3b0     vgui_ControlConfigPanel.obj
 0002:000083e0       ??_8DataInputStream@vgui@@7B@ 1006e3e0     vgui_ControlConfigPanel.obj
 0002:000083e8       ??_C@_07EKCNJFAO@arrowrt?$AA@ 1006e3e8     vgui_CustomObjects.obj
 0002:000083f0       ??_C@_07FMJFBLHE@arrowlt?$AA@ 1006e3f0     vgui_CustomObjects.obj
 0002:000083f8       ??_C@_07OCKLLABH@arrowdn?$AA@ 1006e3f8     vgui_CustomObjects.obj
 0002:00008400       ??_C@_07CLAOEGIP@arrowup?$AA@ 1006e400     vgui_CustomObjects.obj
 0002:0000840c       ??_7CHandler_CommandButtonHighlight@@6B@ 1006e40c     vgui_CustomObjects.obj
 0002:0000843c       ??_7CTFSlider@@6B@         1006e43c     vgui_CustomObjects.obj
 0002:0000867c       ??_C@_0BA@DDIPIFDF@gfx?1vgui?1?$CFs?4tga?$AA@ 1006e67c     vgui_CustomObjects.obj
 0002:0000868c       ??_C@_06GNDPMCHI@?$CF?$CFd_?$CFs?$AA@ 1006e68c     vgui_CustomObjects.obj
 0002:00008694       ??_C@_07PANNFAGO@?5?5?5?5?5?$CFs?$AA@ 1006e694     vgui_CustomObjects.obj
 0002:0000869c       ??_C@_08CKPDEOGP@?5?5?$CFc?5?5?$CFs?$AA@ 1006e69c     vgui_CustomObjects.obj
 0002:000086ac       ??_7CImageLabel@@6B@       1006e6ac     vgui_CustomObjects.obj
 0002:000088e0       ??_C@_05GFOLEBJA@?$CFs?1?$CFs?$AA@ 1006e8e0     vgui_CustomObjects.obj
 0002:000088e8       ??_C@_04BJJEOANI@kill?$AA@ 1006e8e8     vgui_CustomObjects.obj
 0002:000088f4       ??_7CommandButton@@6B@     1006e8f4     vgui_CustomObjects.obj
 0002:00008b64       ??_7CTFScrollButton@@6B@   1006eb64     vgui_CustomObjects.obj
 0002:00008dd4       ??_7CTFScrollPanel@@6B@    1006edd4     vgui_CustomObjects.obj
 0002:00009004       ??_7CGrid@vgui@@6B@        1006f004     vgui_grid.obj
 0002:00009208       ??_7Layout@vgui@@6B@       1006f208     vgui_int.obj
 0002:00009210       ??_7BorderLayout@vgui@@6B@ 1006f210     vgui_int.obj
 0002:0000921c       ??_7SurfaceBase@vgui@@6B@  1006f21c     vgui_int.obj
 0002:000092a8       ??_7ListBoxSignal@CListBox@vgui@@6B@ 1006f2a8     vgui_listbox.obj
 0002:000092b4       ??_7CListBox@vgui@@6B@     1006f2b4     vgui_listbox.obj
 0002:000094b8       ??_7MemoryInputStream@@6B@ 1006f4b8     vgui_loadtga.obj
 0002:000094d8       ??_7StackLayout@vgui@@6B@  1006f4d8     vgui_MOTDWindow.obj
 0002:000094dc       ??_C@_08DBHFKDBL@?$CDMenu_OK?$AA@ 1006f4dc     vgui_MOTDWindow.obj
 0002:000094e8       __real@4048000000000000    1006f4e8     vgui_MOTDWindow.obj
 0002:000094f0       __real@405c000000000000    1006f4f0     vgui_MOTDWindow.obj
 0002:000094fc       ??_7CMessageWindowPanel@@6B@ 1006f4fc     vgui_MOTDWindow.obj
 0002:0000970c       ??_C@_0M@IAKBDGPH@bitmapfonts?$AA@ 1006f70c     vgui_SchemeManager.obj
 0002:00009718       ??_C@_06PFFBCHML@?$CFs?$CFd?$CFs?$AA@ 1006f718     vgui_SchemeManager.obj
 0002:00009720       ??_C@_0M@FMGEODLN@?$CFd?5?$CFd?5?$CFd?5?$CFd?$AA@ 1006f720     vgui_SchemeManager.obj
 0002:00009730       ??_7CSchemeManager@@6B@    1006f730     vgui_SchemeManager.obj
 0002:00009734       ??_C@_0BJ@DNELGNNL@Missing?5bitmap?5font?3?5?$CFs?6?$AA@ 1006f734     vgui_SchemeManager.obj
 0002:00009750       ??_C@_0BB@FAJNMEO@fontFileName?3?5?$CFs?$AA@ 1006f750     vgui_SchemeManager.obj
 0002:00009764       ??_C@_0BJ@FCNJMAOM@gfx?2vgui?2fonts?2?$CFd_?$CFs?4tga?$AA@ 1006f764     vgui_SchemeManager.obj
 0002:00009780       ??_C@_0P@MMBLOJE@Default?5Scheme?$AA@ 1006f780     vgui_SchemeManager.obj
 0002:00009790       ??_C@_0DG@BMKAKEMK@font?5scheme?5text?5file?5MUST?5start@ 1006f790     vgui_SchemeManager.obj
 0002:000097c8       ??_C@_0FA@BKGKKHOG@error?5parsing?5font?5scheme?5text?5f@ 1006f7c8     vgui_SchemeManager.obj
 0002:00009818       ??_C@_0EP@LAOHCAIO@error?5parsing?5font?5scheme?5text?5f@ 1006f818     vgui_SchemeManager.obj
 0002:00009868       ??_C@_0M@DGENNPFN@BorderColor?$AA@ 1006f868     vgui_SchemeManager.obj
 0002:00009874       ??_C@_0BB@DOHMNIFM@BgColorMousedown?$AA@ 1006f874     vgui_SchemeManager.obj
 0002:00009888       ??_C@_0BB@ENHEPPJD@FgColorMousedown?$AA@ 1006f888     vgui_SchemeManager.obj
 0002:0000989c       ??_C@_0N@BHGKNLHM@BgColorArmed?$AA@ 1006f89c     vgui_SchemeManager.obj
 0002:000098ac       ??_C@_0N@NHNDLBOK@FgColorArmed?$AA@ 1006f8ac     vgui_SchemeManager.obj
 0002:000098bc       ??_C@_07CKINAOB@BgColor?$AA@ 1006f8bc     vgui_SchemeManager.obj
 0002:000098c4       ??_C@_07IGOCNOBL@FgColor?$AA@ 1006f8c4     vgui_SchemeManager.obj
 0002:000098cc       ??_C@_0L@LHNNLCCC@FontWeight?$AA@ 1006f8cc     vgui_SchemeManager.obj
 0002:000098d8       ??_C@_08IOPOCEFC@FontSize?$AA@ 1006f8d8     vgui_SchemeManager.obj
 0002:000098e4       ??_C@_08MKFDOKHL@FontName?$AA@ 1006f8e4     vgui_SchemeManager.obj
 0002:000098f0       ??_C@_05MPFIAJAP@Arial?$AA@ 1006f8f0     vgui_SchemeManager.obj
 0002:000098f8       ??_C@_0L@LOMAMFDF@SchemeName?$AA@ 1006f8f8     vgui_SchemeManager.obj
 0002:00009904       ??_C@_01NEMOKFLO@?$DN?$AA@ 1006f904     vgui_SchemeManager.obj
 0002:00009908       ??_C@_0CB@GGEPFBNC@Unable?5to?5find?5?$CK_textscheme?4txt?6@ 1006f908     vgui_SchemeManager.obj
 0002:0000992c       ??_C@_0BA@NPHMGIH@_textscheme?4txt?$AA@ 1006f92c     vgui_SchemeManager.obj
 0002:0000993c       ??_C@_06IFHMLIJM@?$CDVOICE?$AA@ 1006f93c     vgui_ScorePanel.obj
 0002:00009944       ??_C@_08FLKGJLAK@?$CDLATENCY?$AA@ 1006f944     vgui_ScorePanel.obj
 0002:00009950       ??_C@_07MMBGLEHF@?$CDDEATHS?$AA@ 1006f950     vgui_ScorePanel.obj
 0002:00009958       ??_C@_06CIMOFCLF@?$CDSCORE?$AA@ 1006f958     vgui_ScorePanel.obj
 0002:00009964       ??_7CMenuHandler_StringCommandWatch@@6B@ 1006f964     vgui_ScorePanel.obj
 0002:00009968       ??_C@_0L@JNCJPEMB@jointeam?54?$AA@ 1006f968     vgui_ScorePanel.obj
 0002:00009974       ??_C@_0L@NCGIGCAG@jointeam?53?$AA@ 1006f974     vgui_ScorePanel.obj
 0002:00009980       ??_C@_0L@MLHDFDEH@jointeam?52?$AA@ 1006f980     vgui_ScorePanel.obj
 0002:0000998c       ??_C@_0L@OAFOAAIE@jointeam?51?$AA@ 1006f98c     vgui_ScorePanel.obj
 0002:0000999c       ??_7CTextImage2@@6B@       1006f99c     vgui_ScorePanel.obj
 0002:00009a04       ??_7CLabelHeader@@6B@      1006fa04     vgui_ScorePanel.obj
 0002:00009c3c       ??_7HitTestPanel@ScorePanel@@6B@ 1006fc3c     vgui_ScorePanel.obj
 0002:00009e38       ??_C@_04OELPMFKG@?$CFs?5?5?$AA@ 1006fe38     vgui_ScorePanel.obj
 0002:00009e40       ??_C@_0P@LCNEBEMF@?$CDPlayer_plural?$AA@ 1006fe40     vgui_ScorePanel.obj
 0002:00009e50       ??_C@_07PKHCDLOI@?$CI?$CFd?5?$CFs?$CJ?$AA@ 1006fe50     vgui_ScorePanel.obj
 0002:00009e58       ??_C@_07FALHMAOB@?$CDPlayer?$AA@ 1006fe58     vgui_ScorePanel.obj
 0002:00009e60       ??_C@_0M@FDPPHCAA@?$CDSpectators?$AA@ 1006fe60     vgui_ScorePanel.obj
 0002:00009e70       __real@402e000000000000    1006fe70     vgui_ScorePanel.obj
 0002:00009e78       __real@402a000000000000    1006fe78     vgui_ScorePanel.obj
 0002:00009e80       ??_C@_0BG@ONEEJNIJ@Scoreboard?5Small?5Text?$AA@ 1006fe80     vgui_ScorePanel.obj
 0002:00009e98       ??_C@_0BG@LOFLGKJN@Scoreboard?5Title?5Text?$AA@ 1006fe98     vgui_ScorePanel.obj
 0002:00009eb0       ??_C@_0BA@DEDAPLEA@Scoreboard?5Text?$AA@ 1006feb0     vgui_ScorePanel.obj
 0002:00009ec0       ??_C@_0M@JBBOLLOM@?$CFc?$CK?$CK?5?$CFs?5?$CFs?6?$AA@ 1006fec0     vgui_ScorePanel.obj
 0002:00009ecc       ??_C@_0BM@DPODEJE@?$CDNo_longer_hear_that_player?$AA@ 1006fecc     vgui_ScorePanel.obj
 0002:00009ee8       ??_C@_06LFOCOFCO@?$CDMuted?$AA@ 1006fee8     vgui_ScorePanel.obj
 0002:00009ef0       ??_C@_08LIHLIFOM@?$CFc?$CK?$CK?5?$CFs?6?$AA@ 1006fef0     vgui_ScorePanel.obj
 0002:00009efc       ??_C@_08EKENHMLF@?$CDUnmuted?$AA@ 1006fefc     vgui_ScorePanel.obj
 0002:00009f08       ??_C@_01FJMABOPO@x?$AA@    1006ff08     vgui_ScorePanel.obj
 0002:00009f10       __real@4036000000000000    1006ff10     vgui_ScorePanel.obj
 0002:00009f1c       ??_7ScorePanel@@6BCDefaultInputSignal@vgui@@@ 1006ff1c     vgui_ScorePanel.obj
 0002:00009f4c       ??_7ScorePanel@@6BPanel@vgui@@@ 1006ff4c     vgui_ScorePanel.obj
 0002:0000a14c       ??_7CBrowser_InputSignal@?A0x5998a8a3@@6B@ 1007014c     vgui_ServerBrowser.obj
 0002:0000a17c       ??_7ServerBrowserTablePanel@?A0x5998a8a3@@6B@ 1007017c     vgui_ServerBrowser.obj
 0002:0000a3cc       ??_C@_0P@NECGBNGC@togglebrowser?6?$AA@ 100703cc     vgui_ServerBrowser.obj
 0002:0000a3dc       ??_C@_0M@LNGHCJI@connect?5?$CFs?6?$AA@ 100703dc     vgui_ServerBrowser.obj
 0002:0000a3e8       ??_C@_0CJ@HBJDFEIP@Press?5?8Refresh?8?5to?5search?5for?5se@ 100703e8     vgui_ServerBrowser.obj
 0002:0000a414       ??_C@_0CC@OALBPANI@Waiting?5for?5servers?5to?5respond?4?4@ 10070414     vgui_ServerBrowser.obj
 0002:0000a438       ??_C@_03LJAEFNNE@max?$AA@  10070438     vgui_ServerBrowser.obj
 0002:0000a43c       ??_C@_07LKPDDKMO@current?$AA@ 1007043c     vgui_ServerBrowser.obj
 0002:0000a444       ??_C@_03HBNNNHNM@map?$AA@  10070444     vgui_ServerBrowser.obj
 0002:0000a44c       ??_7ConnectHandler@?A0x5998a8a3@@6B@ 1007044c     vgui_ServerBrowser.obj
 0002:0000a454       ??_7RefreshHandler@?A0x5998a8a3@@6B@ 10070454     vgui_ServerBrowser.obj
 0002:0000a45c       ??_7StopHandler@?A0x5998a8a3@@6B@ 1007045c     vgui_ServerBrowser.obj
 0002:0000a464       ??_7CancelHandler@?A0x5998a8a3@@6B@ 10070464     vgui_ServerBrowser.obj
 0002:0000a46c       ??_7LabelSortInputHandler@@6B@ 1007046c     vgui_ServerBrowser.obj
 0002:0000a49c       ??_7CSBLabel@@6B@          1007049c     vgui_ServerBrowser.obj
 0002:0000a6c8       ??_C@_05LGELBCGM@Close?$AA@ 100706c8     vgui_ServerBrowser.obj
 0002:0000a6d0       ??_C@_04MOIHHPNJ@Stop?$AA@ 100706d0     vgui_ServerBrowser.obj
 0002:0000a6d8       ??_C@_07POIENIBA@Refresh?$AA@ 100706d8     vgui_ServerBrowser.obj
 0002:0000a6e0       ??_C@_07FJPHLACI@Connect?$AA@ 100706e0     vgui_ServerBrowser.obj
 0002:0000a6e8       __real@4081d00000000000    100706e8     vgui_ServerBrowser.obj
 0002:0000a6f0       __real@407f400000000000    100706f0     vgui_ServerBrowser.obj
 0002:0000a6f8       ??_C@_07GHNKDAHJ@Latency?$AA@ 100706f8     vgui_ServerBrowser.obj
 0002:0000a700       ??_C@_07EDIFFIJI@Current?$AA@ 10070700     vgui_ServerBrowser.obj
 0002:0000a708       ??_C@_03NBOPHIOC@Map?$AA@  10070708     vgui_ServerBrowser.obj
 0002:0000a70c       ??_C@_06LGMEBDBC@Server?$AA@ 1007070c     vgui_ServerBrowser.obj
 0002:0000a714       ??_C@_07EODJIPPN@Address?$AA@ 10070714     vgui_ServerBrowser.obj
 0002:0000a724       ??_7ServerBrowser@@6B@     10070724     vgui_ServerBrowser.obj
 0002:0000a924       ??_7ColorButton@@6B@       10070924     vgui_SpectatorPanel.obj
 0002:0000ab90       ??_7CSpectatorHandler_Command@@6B@ 10070b90     vgui_SpectatorPanel.obj
 0002:0000ab9c       ??_7SpectatorPanel@@6B@    10070b9c     vgui_SpectatorPanel.obj
 0002:0000ada0       __real@406e000000000000    10070da0     vgui_SpectatorPanel.obj
 0002:0000ada8       ??_C@_0BB@KAJBLLNM@Spectator?5Bottom?$AA@ 10070da8     vgui_SpectatorPanel.obj
 0002:0000adc0       __real@4063a00000000000    10070dc0     vgui_SpectatorPanel.obj
 0002:0000adc8       __real@4064800000000000    10070dc8     vgui_SpectatorPanel.obj
 0002:0000add0       ??_C@_01PPODPGHN@?$DO?$AA@ 10070dd0     vgui_SpectatorPanel.obj
 0002:0000add8       __real@4043800000000000    10070dd8     vgui_SpectatorPanel.obj
 0002:0000ade0       ??_C@_01MNNFJEPP@?$DM?$AA@ 10070de0     vgui_SpectatorPanel.obj
 0002:0000ade4       ??_C@_0N@FBNKJAMH@?$CDCAM_OPTIONS?$AA@ 10070de4     vgui_SpectatorPanel.obj
 0002:0000adf4       ??_C@_0P@CAHLMJEK@?$CDSPECT_OPTIONS?$AA@ 10070df4     vgui_SpectatorPanel.obj
 0002:0000ae08       __real@4018000000000000    10070e08     vgui_SpectatorPanel.obj
 0002:0000ae10       ??_C@_03NDEAONJP@?5?5?5?$AA@ 10070e10     vgui_SpectatorPanel.obj
 0002:0000ae18       __real@4058000000000000    10070e18     vgui_SpectatorPanel.obj
 0002:0000ae20       ??_C@_05IPNNCKNB@00?300?$AA@ 10070e20     vgui_SpectatorPanel.obj
 0002:0000ae28       ??_C@_06BDPMPKBB@banner?$AA@ 10070e28     vgui_SpectatorPanel.obj
 0002:0000ae30       ??_C@_05NAPFDJNG@timer?$AA@ 10070e30     vgui_SpectatorPanel.obj
 0002:0000ae38       ??_C@_0L@JPILACHD@Extra?5Info?$AA@ 10070e38     vgui_SpectatorPanel.obj
 0002:0000ae44       ??_C@_0P@INLBHAJN@Team?5Info?5Text?$AA@ 10070e44     vgui_SpectatorPanel.obj
 0002:0000ae54       ??_C@_0L@MLABHCOM@?$CDSpec_Duck?$AA@ 10070e54     vgui_SpectatorPanel.obj
 0002:0000ae60       ??_C@_09OONHNKNN@?$CDOBS_NONE?$AA@ 10070e60     vgui_SpectatorPanel.obj
 0002:0000ae6c       ??_C@_0P@NIMOOAHB@?$CDOBS_MAP_CHASE?$AA@ 10070e6c     vgui_SpectatorPanel.obj
 0002:0000ae7c       ??_C@_0O@CJKIDLDH@?$CDOBS_MAP_FREE?$AA@ 10070e7c     vgui_SpectatorPanel.obj
 0002:0000ae8c       ??_C@_0M@OPIIJDCJ@?$CDOBS_IN_EYE?$AA@ 10070e8c     vgui_SpectatorPanel.obj
 0002:0000ae98       ??_C@_0N@CPCDHPKA@?$CDOBS_ROAMING?$AA@ 10070e98     vgui_SpectatorPanel.obj
 0002:0000aea8       ??_C@_0BA@JPDMMLNH@?$CDOBS_CHASE_FREE?$AA@ 10070ea8     vgui_SpectatorPanel.obj
 0002:0000aeb8       ??_C@_0BC@FECMNOGO@?$CDOBS_CHASE_LOCKED?$AA@ 10070eb8     vgui_SpectatorPanel.obj
 0002:0000aecc       ??_C@_0CJ@LCKONIJL@Unknown?5SpectatorPanel?5ActionSin@ 10070ecc     vgui_SpectatorPanel.obj
 0002:0000aef8       ??_C@_08FLABEFKF@randompc?$AA@ 10070ef8     vgui_TeamFortressViewport.obj
 0002:0000af04       ??_C@_08NCGGGNGI@engineer?$AA@ 10070f04     vgui_TeamFortressViewport.obj
 0002:0000af10       ??_C@_03NDNIFHO@spy?$AA@   10070f10     vgui_TeamFortressViewport.obj
 0002:0000af14       ??_C@_04GDCIMMGN@pyro?$AA@ 10070f14     vgui_TeamFortressViewport.obj
 0002:0000af1c       ??_C@_05OLFOEIAK@hwguy?$AA@ 10070f1c     vgui_TeamFortressViewport.obj
 0002:0000af24       ??_C@_05BGBHBCHK@medic?$AA@ 10070f24     vgui_TeamFortressViewport.obj
 0002:0000af2c       ??_C@_07MDNNNJGN@demoman?$AA@ 10070f2c     vgui_TeamFortressViewport.obj
 0002:0000af34       ??_C@_07MDEDDOHD@soldier?$AA@ 10070f34     vgui_TeamFortressViewport.obj
 0002:0000af3c       ??_C@_06CBOFCDAC@sniper?$AA@ 10070f3c     vgui_TeamFortressViewport.obj
 0002:0000af44       ??_C@_05GHDFNNLC@scout?$AA@ 10070f44     vgui_TeamFortressViewport.obj
 0002:0000af4c       ??_C@_08LLHIJDNI@civilian?$AA@ 10070f4c     vgui_TeamFortressViewport.obj
 0002:0000af58       ??_C@_07JLFIFBMN@?$CDRandom?$AA@ 10070f58     vgui_TeamFortressViewport.obj
 0002:0000af60       ??_C@_09PBHOCLMA@?$CDEngineer?$AA@ 10070f60     vgui_TeamFortressViewport.obj
 0002:0000af6c       ??_C@_04MMAIFHJF@?$CDSpy?$AA@ 10070f6c     vgui_TeamFortressViewport.obj
 0002:0000af74       ??_C@_05FEDBMCEP@?$CDPyro?$AA@ 10070f74     vgui_TeamFortressViewport.obj
 0002:0000af7c       ??_C@_06FPPKJANK@?$CDHWGuy?$AA@ 10070f7c     vgui_TeamFortressViewport.obj
 0002:0000af84       ??_C@_06MDEAEKJA@?$CDMedic?$AA@ 10070f84     vgui_TeamFortressViewport.obj
 0002:0000af8c       ??_C@_08CPMMOJK@?$CDDemoman?$AA@ 10070f8c     vgui_TeamFortressViewport.obj
 0002:0000af98       ??_C@_08CGCCJIE@?$CDSoldier?$AA@ 10070f98     vgui_TeamFortressViewport.obj
 0002:0000afa4       ??_C@_07GBOPHPDM@?$CDSniper?$AA@ 10070fa4     vgui_TeamFortressViewport.obj
 0002:0000afac       ??_C@_06LCGCIFFI@?$CDScout?$AA@ 10070fac     vgui_TeamFortressViewport.obj
 0002:0000afb4       ??_C@_09JIGANFHA@?$CDCivilian?$AA@ 10070fb4     vgui_TeamFortressViewport.obj
 0002:0000afc0       ??_C@_08MENEKNPP@CIVILIAN?$AA@ 10070fc0     vgui_TeamFortressViewport.obj
 0002:0000afcc       ??_C@_08KNMKFDEP@ENGINEER?$AA@ 10070fcc     vgui_TeamFortressViewport.obj
 0002:0000afd8       ??_C@_03MGEIAC@SPY?$AA@    10070fd8     vgui_TeamFortressViewport.obj
 0002:0000afdc       ??_C@_04KPBCCOBF@PYRO?$AA@ 10070fdc     vgui_TeamFortressViewport.obj
 0002:0000afe4       ??_C@_05CAMIKPEE@HWGUY?$AA@ 10070fe4     vgui_TeamFortressViewport.obj
 0002:0000afec       ??_C@_05NNIBPFDE@MEDIC?$AA@ 10070fec     vgui_TeamFortressViewport.obj
 0002:0000aff4       ??_C@_07DOIAGFOJ@DEMOMAN?$AA@ 10070ff4     vgui_TeamFortressViewport.obj
 0002:0000affc       ??_C@_07DOBOICPH@SOLDIER?$AA@ 10070ffc     vgui_TeamFortressViewport.obj
 0002:0000b004       ??_C@_06CFMOPNNA@SNIPER?$AA@ 10071004     vgui_TeamFortressViewport.obj
 0002:0000b00c       ??_C@_05KMKDDKPM@SCOUT?$AA@ 1007100c     vgui_TeamFortressViewport.obj
 0002:0000b01c       ??_7Surface@vgui@@6B@      1007101c     vgui_TeamFortressViewport.obj
 0002:0000b0b4       ??_7MenuSeparator@vgui@@6B@ 100710b4     vgui_TeamFortressViewport.obj
 0002:0000b2e4       ??_7BuildGroup@vgui@@6B@   100712e4     vgui_TeamFortressViewport.obj
 0002:0000b324       ??_7SpectButton@@6B@       10071324     vgui_TeamFortressViewport.obj
 0002:0000b594       ??_7CCommandMenu@@6B@      10071594     vgui_TeamFortressViewport.obj
 0002:0000b794       ??_7CMenuHandler_PopupSubMenuInput@@6B@ 10071794     vgui_TeamFortressViewport.obj
 0002:0000b7c4       ??_7CMenuHandler_ToggleCvar@@6B@ 100717c4     vgui_TeamFortressViewport.obj
 0002:0000b7cc       ??_7TeamButton@@6B@        100717cc     vgui_TeamFortressViewport.obj
 0002:0000ba3c       ??_7FeignButton@@6B@       10071a3c     vgui_TeamFortressViewport.obj
 0002:0000bcac       ??_7SpectateButton@@6B@    10071cac     vgui_TeamFortressViewport.obj
 0002:0000bf1c       ??_7DisguiseButton@@6B@    10071f1c     vgui_TeamFortressViewport.obj
 0002:0000c18c       ??_7DetpackButton@@6B@     1007218c     vgui_TeamFortressViewport.obj
 0002:0000c3fc       ??_7BuildButton@@6B@       100723fc     vgui_TeamFortressViewport.obj
 0002:0000c66c       ??_7MapButton@@6B@         1007266c     vgui_TeamFortressViewport.obj
 0002:0000c8d4       ??_C@_0M@DKNJHPLK@maps?1?$CFs?4bsp?$AA@ 100728d4     vgui_TeamFortressViewport.obj
 0002:0000c8e4       ??_7TeamOnlyCommandButton@@6B@ 100728e4     vgui_TeamFortressViewport.obj
 0002:0000cb4c       ??_C@_09FLIIGCKH@unchecked?$AA@ 10072b4c     vgui_TeamFortressViewport.obj
 0002:0000cb58       ??_C@_07FJOBMBFC@checked?$AA@ 10072b58     vgui_TeamFortressViewport.obj
 0002:0000cb64       ??_7ToggleCommandButton@@6BInputSignal@vgui@@@ 10072b64     vgui_TeamFortressViewport.obj
 0002:0000cb94       ??_7ToggleCommandButton@@6BCommandButton@@@ 10072b94     vgui_TeamFortressViewport.obj
 0002:0000ce00       ??_7SpectToggleButton@@6BInputSignal@vgui@@@ 10072e00     vgui_TeamFortressViewport.obj
 0002:0000ce34       ??_7SpectToggleButton@@6BCommandButton@@@ 10072e34     vgui_TeamFortressViewport.obj
 0002:0000d09c       ??_C@_05OMEEDKDH@arrow?$AA@ 1007309c     vgui_TeamFortressViewport.obj
 0002:0000d0a8       ??_7CViewPortInputHandler@@6B@ 100730a8     vgui_TeamFortressViewport.obj
 0002:0000d0d4       ??_C@_0BH@HJNENHNI@ForceCloseCommandMenu?6?$AA@ 100730d4     vgui_TeamFortressViewport.obj
 0002:0000d0ec       ??_C@_05DMEBLLNM@build?$AA@ 100730ec     vgui_TeamFortressViewport.obj
 0002:0000d0f4       ??_C@_0L@KKPBPJFG@?$CBBUILDSTOP?$AA@ 100730f4     vgui_TeamFortressViewport.obj
 0002:0000d100       ??_C@_09BEPJLMDL@detsentry?$AA@ 10073100     vgui_TeamFortressViewport.obj
 0002:0000d10c       ??_C@_0BA@PFIKCEMN@?$CBDETONATESENTRY?$AA@ 1007310c     vgui_TeamFortressViewport.obj
 0002:0000d11c       ??_C@_0N@HCBEKMHJ@detdispenser?$AA@ 1007311c     vgui_TeamFortressViewport.obj
 0002:0000d12c       ??_C@_0BD@LODCEOBC@?$CBDETONATEDISPENSER?$AA@ 1007312c     vgui_TeamFortressViewport.obj
 0002:0000d140       ??_C@_0M@OGMJMJJE@dismantle?52?$AA@ 10073140     vgui_TeamFortressViewport.obj
 0002:0000d14c       ??_C@_0BB@FEIBOHDC@?$CBDISMANTLESENTRY?$AA@ 1007314c     vgui_TeamFortressViewport.obj
 0002:0000d160       ??_C@_0M@MNOEJKFH@dismantle?51?$AA@ 10073160     vgui_TeamFortressViewport.obj
 0002:0000d16c       ??_C@_0BE@HHKPCHFL@?$CBDISMANTLEDISPENSER?$AA@ 1007316c     vgui_TeamFortressViewport.obj
 0002:0000d180       ??_C@_0N@NLBBCFML@rotatesentry?$AA@ 10073180     vgui_TeamFortressViewport.obj
 0002:0000d190       ??_C@_0O@EIJHKBAN@?$CBROTATESENTRY?$AA@ 10073190     vgui_TeamFortressViewport.obj
 0002:0000d1a0       ??_C@_0BA@KCBAJEHA@rotatesentry180?$AA@ 100731a0     vgui_TeamFortressViewport.obj
 0002:0000d1b0       ??_C@_0BB@GMAGAFEL@?$CBROTATESENTRY180?$AA@ 100731b0     vgui_TeamFortressViewport.obj
 0002:0000d1c4       ??_C@_07IPCOJNAE@build?51?$AA@ 100731c4     vgui_TeamFortressViewport.obj
 0002:0000d1cc       ??_C@_0BA@IAAIJIFH@?$CBBUILDDISPENSER?$AA@ 100731cc     vgui_TeamFortressViewport.obj
 0002:0000d1dc       ??_C@_07KEADMOMH@build?52?$AA@ 100731dc     vgui_TeamFortressViewport.obj
 0002:0000d1e4       ??_C@_0N@FGEJGJIB@?$CBBUILDSENTRY?$AA@ 100731e4     vgui_TeamFortressViewport.obj
 0002:0000d1f4       ??_C@_06LCLDBAGH@?$CBBUILD?$AA@ 100731f4     vgui_TeamFortressViewport.obj
 0002:0000d1fc       ??_C@_07LBNKPKHN@detstop?$AA@ 100731fc     vgui_TeamFortressViewport.obj
 0002:0000d204       ??_C@_0N@MHFOJIBE@?$CBDETPACKSTOP?$AA@ 10073204     vgui_TeamFortressViewport.obj
 0002:0000d214       ??_C@_0M@KKMGACCH@detstart?550?$AA@ 10073214     vgui_TeamFortressViewport.obj
 0002:0000d220       ??_C@_0M@KPIJBEKC@detstart?520?$AA@ 10073220     vgui_TeamFortressViewport.obj
 0002:0000d22c       ??_C@_0L@OKJHEIMC@detstart?55?$AA@ 1007322c     vgui_TeamFortressViewport.obj
 0002:0000d238       ??_C@_0O@CHJBLBOI@?$CBDETPACKSTART?$AA@ 10073238     vgui_TeamFortressViewport.obj
 0002:0000d248       ??_C@_0M@BIEEIAKK@disguise?5?$CFd?$AA@ 10073248     vgui_TeamFortressViewport.obj
 0002:0000d254       ??_C@_08KEHMGJED@Disguise?$AA@ 10073254     vgui_TeamFortressViewport.obj
 0002:0000d260       ??_C@_09PMDNMBPB@?$CBDISGUISE?$AA@ 10073260     vgui_TeamFortressViewport.obj
 0002:0000d26c       ??_C@_0BC@DOMKKIJP@disguise_friendly?$AA@ 1007326c     vgui_TeamFortressViewport.obj
 0002:0000d280       ??_C@_0BC@LJEKLHHM@?$CBDISGUISEFRIENDLY?$AA@ 10073280     vgui_TeamFortressViewport.obj
 0002:0000d294       ??_C@_0P@HDBPOKJO@disguise_enemy?$AA@ 10073294     vgui_TeamFortressViewport.obj
 0002:0000d2a4       ??_C@_0P@CILIAFIK@?$CBDISGUISEENEMY?$AA@ 100732a4     vgui_TeamFortressViewport.obj
 0002:0000d2b4       ??_C@_0L@KMEGGMMB@?$CBFEIGNSTOP?$AA@ 100732b4     vgui_TeamFortressViewport.obj
 0002:0000d2c0       ??_C@_06MAKENNEI@sfeign?$AA@ 100732c0     vgui_TeamFortressViewport.obj
 0002:0000d2c8       ??_C@_0N@KNBJJDJI@?$CBFEIGNSILENT?$AA@ 100732c8     vgui_TeamFortressViewport.obj
 0002:0000d2d8       ??_C@_05DBIKGJCD@feign?$AA@ 100732d8     vgui_TeamFortressViewport.obj
 0002:0000d2e0       ??_C@_06LPHIMCJI@?$CBFEIGN?$AA@ 100732e0     vgui_TeamFortressViewport.obj
 0002:0000d2e8       ??_C@_04BLABGGLH@?$CBSPY?$AA@ 100732e8     vgui_TeamFortressViewport.obj
 0002:0000d2f0       ??_C@_0M@CLDHAONL@?$CBSERVERINFO?$AA@ 100732f0     vgui_TeamFortressViewport.obj
 0002:0000d2fc       ??_C@_0L@FHEGMDBN@?$CBCLASSDESC?$AA@ 100732fc     vgui_TeamFortressViewport.obj
 0002:0000d308       ??_C@_0N@DIPGKGN@?$CBMAPBRIEFING?$AA@ 10073308     vgui_TeamFortressViewport.obj
 0002:0000d318       ??_C@_0N@CPFNPPCK@?$CBCHANGECLASS?$AA@ 10073318     vgui_TeamFortressViewport.obj
 0002:0000d328       ??_C@_08OPNMBCGA@spectate?$AA@ 10073328     vgui_TeamFortressViewport.obj
 0002:0000d334       ??_C@_0P@CGNJKBOI@?$CDMenu_Spectate?$AA@ 10073334     vgui_TeamFortressViewport.obj
 0002:0000d344       ??_C@_0L@IEDCMFIA@jointeam?55?$AA@ 10073344     vgui_TeamFortressViewport.obj
 0002:0000d350       ??_C@_0BB@LCEIBJDA@?$CDTeam_AutoAssign?$AA@ 10073350     vgui_TeamFortressViewport.obj
 0002:0000d364       ??_C@_08EIAEBCFJ@teamname?$AA@ 10073364     vgui_TeamFortressViewport.obj
 0002:0000d370       ??_C@_0M@PAILLMDG@jointeam?5?$CFd?$AA@ 10073370     vgui_TeamFortressViewport.obj
 0002:0000d37c       ??_C@_0M@LLGIJGLF@?$CBCHANGETEAM?$AA@ 1007337c     vgui_TeamFortressViewport.obj
 0002:0000d388       ??_C@_06DJHOIPC@?$CFs?3?5?$CFs?$AA@ 10073388     vgui_TeamFortressViewport.obj
 0002:0000d390       ??_C@_09LNGJNNNE@?$CDSpec_Map?$AA@ 10073390     vgui_TeamFortressViewport.obj
 0002:0000d39c       ??_C@_06GBEGMGE@?$CFs?3?5?$CFd?$AA@ 1007339c     vgui_TeamFortressViewport.obj
 0002:0000d3a4       ??_C@_0O@PDODJJGK@?$CDSpec_Auto?5?$CFs?$AA@ 100733a4     vgui_TeamFortressViewport.obj
 0002:0000d3b4       ??_C@_07PEHIJHBJ@?5?9?5HLTV?$AA@ 100733b4     vgui_TeamFortressViewport.obj
 0002:0000d3c0       __real@405a000000000000    100733c0     vgui_TeamFortressViewport.obj
 0002:0000d3c8       ??_C@_0BB@HPLENLPP@?$CDSpec_Help_Title?$AA@ 100733c8     vgui_TeamFortressViewport.obj
 0002:0000d3dc       ??_C@_0BE@EPBCHMDG@classes?1long_?$CFs?4txt?$AA@ 100733dc     vgui_TeamFortressViewport.obj
 0002:0000d3f0       ??_C@_0BK@GANPMAN@classes?1long_civilian?4txt?$AA@ 100733f0     vgui_TeamFortressViewport.obj
 0002:0000d40c       ??_C@_0BA@JHNKCCLA@?$CDTitle_civilian?$AA@ 1007340c     vgui_TeamFortressViewport.obj
 0002:0000d41c       ??_C@_0P@OJEDPOED@?$CDHelp_civilian?$AA@ 1007341c     vgui_TeamFortressViewport.obj
 0002:0000d42c       ??_C@_0BA@POMENMAA@?$CDTitle_engineer?$AA@ 1007342c     vgui_TeamFortressViewport.obj
 0002:0000d43c       ??_C@_0P@IAFNAAPD@?$CDHelp_engineer?$AA@ 1007343c     vgui_TeamFortressViewport.obj
 0002:0000d44c       ??_C@_0L@JOMJGMJN@?$CDTitle_spy?$AA@ 1007344c     vgui_TeamFortressViewport.obj
 0002:0000d458       ??_C@_09GLKPPGEN@?$CDHelp_spy?$AA@ 10073458     vgui_TeamFortressViewport.obj
 0002:0000d464       ??_C@_0M@FKLIILEG@?$CDTitle_pyro?$AA@ 10073464     vgui_TeamFortressViewport.obj
 0002:0000d470       ??_C@_0L@NMJODPAI@?$CDHelp_pyro?$AA@ 10073470     vgui_TeamFortressViewport.obj
 0002:0000d47c       ??_C@_0N@EHNLCBAN@?$CDTitle_hwguy?$AA@ 1007347c     vgui_TeamFortressViewport.obj
 0002:0000d48c       ??_C@_0M@NGDJGLCO@?$CDHelp_hwguy?$AA@ 1007348c     vgui_TeamFortressViewport.obj
 0002:0000d498       ??_C@_0N@LKJCHLHN@?$CDTitle_medic?$AA@ 10073498     vgui_TeamFortressViewport.obj
 0002:0000d4a8       ??_C@_0M@CLHADBFO@?$CDHelp_medic?$AA@ 100734a8     vgui_TeamFortressViewport.obj
 0002:0000d4b4       ??_C@_0P@LIPCDKND@?$CDTitle_demoman?$AA@ 100734b4     vgui_TeamFortressViewport.obj
 0002:0000d4c4       ??_C@_0O@JAFCHENO@?$CDHelp_demoman?$AA@ 100734c4     vgui_TeamFortressViewport.obj
 0002:0000d4d4       ??_C@_0P@LIGMNNMN@?$CDTitle_soldier?$AA@ 100734d4     vgui_TeamFortressViewport.obj
 0002:0000d4e4       ??_C@_0O@JAMMJDMA@?$CDHelp_soldier?$AA@ 100734e4     vgui_TeamFortressViewport.obj
 0002:0000d4f4       ??_C@_0O@LPCNDDMI@?$CDTitle_sniper?$AA@ 100734f4     vgui_TeamFortressViewport.obj
 0002:0000d504       ??_C@_0N@BNNLKAPA@?$CDHelp_sniper?$AA@ 10073504     vgui_TeamFortressViewport.obj
 0002:0000d514       ??_C@_0N@MLLALELF@?$CDTitle_scout?$AA@ 10073514     vgui_TeamFortressViewport.obj
 0002:0000d524       ??_C@_0M@FKFCPOJG@?$CDHelp_scout?$AA@ 10073524     vgui_TeamFortressViewport.obj
 0002:0000d530       ??_C@_04LCMACLFG@?4txt?$AA@ 10073530     vgui_TeamFortressViewport.obj
 0002:0000d538       ??_C@_05HBJBFCNN@maps?1?$AA@ 10073538     vgui_TeamFortressViewport.obj
 0002:0000d540       ??_C@_09IBONLKEI@Half?9Life?$AA@ 10073540     vgui_TeamFortressViewport.obj
 0002:0000d54c       ??_C@_0CA@PPOOFFNI@Too?5many?5menus?5in?5?$CFs?5past?5?8?$CFs?8?6?$AA@ 1007354c     vgui_TeamFortressViewport.obj
 0002:0000d56c       ??_C@_06FDJJHOKF@TOGGLE?$AA@ 1007356c     vgui_TeamFortressViewport.obj
 0002:0000d574       ??_C@_04GMALBPFJ@TEAM?$AA@ 10073574     vgui_TeamFortressViewport.obj
 0002:0000d57c       ??_C@_03HMCGBKKA@MAP?$AA@  1007357c     vgui_TeamFortressViewport.obj
 0002:0000d580       ??_C@_06EOPOAAHK@CUSTOM?$AA@ 10073580     vgui_TeamFortressViewport.obj
 0002:0000d588       ??_C@_0BO@PDOMINIF@Error?5in?5?$CFs?5file?5after?5?8?$CFs?8?4?6?$AA@ 10073588     vgui_TeamFortressViewport.obj
 0002:0000d5a8       ??_C@_0L@PCFCHBOL@file?5start?$AA@ 100735a8     vgui_TeamFortressViewport.obj
 0002:0000d5b4       ??_C@_0BJ@KGPHGGNH@?$CDDetpackSet_For50Seconds?$AA@ 100735b4     vgui_TeamFortressViewport.obj
 0002:0000d5d0       ??_C@_0BJ@EECLHNKO@?$CDDetpackSet_For20Seconds?$AA@ 100735d0     vgui_TeamFortressViewport.obj
 0002:0000d5ec       ??_C@_0BI@LEOLMPCK@?$CDDetpackSet_For5Seconds?$AA@ 100735ec     vgui_TeamFortressViewport.obj
 0002:0000d604       ??_C@_0BD@NIAKIDGN@Unable?5to?5open?5?$CFs?6?$AA@ 10073604     vgui_TeamFortressViewport.obj
 0002:0000d618       ??_C@_08DKHCINOP@_special?$AA@ 10073618     vgui_TeamFortressViewport.obj
 0002:0000d624       ??_C@_0BB@PBMDFHLG@spectcammenu?4txt?$AA@ 10073624     vgui_TeamFortressViewport.obj
 0002:0000d638       ??_C@_0BC@MHMDDKOH@spectatormenu?4txt?$AA@ 10073638     vgui_TeamFortressViewport.obj
 0002:0000d64c       ??_C@_0BA@DAIGDHPC@commandmenu?4txt?$AA@ 1007364c     vgui_TeamFortressViewport.obj
 0002:0000d65c       ??_C@_0BB@CJIMKAIN@CommandMenu?5Text?$AA@ 1007365c     vgui_TeamFortressViewport.obj
 0002:0000d670       ??_C@_0BE@JNLNJHKA@Primary?5Button?5Text?$AA@ 10073670     vgui_TeamFortressViewport.obj
 0002:0000d68c       ??_7TeamFortressViewport@@6B@ 1007368c     vgui_TeamFortressViewport.obj
 0002:0000d888       ??_C@_0BL@PJPJDHFA@?$CFs?3?5?$CFd?5Players?5?$CI?$CFd?5points?$CJ?$AA@ 10073888     vgui_teammenu.obj
 0002:0000d8a4       ??_C@_0BK@FDPCMNGP@?$CFs?3?5?$CFd?5Player?5?$CI?$CFd?5points?$CJ?$AA@ 100738a4     vgui_teammenu.obj
 0002:0000d8c0       ??_C@_02KEGNLNML@?0?5?$AA@ 100738c0     vgui_teammenu.obj
 0002:0000d8c8       __real@406d400000000000    100738c8     vgui_teammenu.obj
 0002:0000d8d0       ??_C@_0BP@BANPFJMN@?$CDMap_Description_not_available?$AA@ 100738d0     vgui_teammenu.obj
 0002:0000d8f0       __real@4066400000000000    100738f0     vgui_teammenu.obj
 0002:0000d8f8       ??_C@_0BG@MFACDAFD@?$CDTitle_SelectYourTeam?$AA@ 100738f8     vgui_teammenu.obj
 0002:0000d914       ??_7CTeamMenuPanel@@6B@    10073914     vgui_teammenu.obj
 0002:0000db2c       ??_C@_0P@FAJLCLDN@v_ipitch_level?$AA@ 10073b2c     view.obj
 0002:0000db3c       ??_C@_03NKBOLEBK@0?41?$AA@ 10073b3c     view.obj
 0002:0000db40       ??_C@_0O@COCAMFPP@v_iroll_level?$AA@ 10073b40     view.obj
 0002:0000db50       ??_C@_0N@FKEEKILK@v_iyaw_level?$AA@ 10073b50     view.obj
 0002:0000db60       ??_C@_0P@LNAJMEAA@v_ipitch_cycle?$AA@ 10073b60     view.obj
 0002:0000db70       ??_C@_03LOHCHBBO@0?45?$AA@ 10073b70     view.obj
 0002:0000db74       ??_C@_0O@MDLCCKMC@v_iroll_cycle?$AA@ 10073b74     view.obj
 0002:0000db84       ??_C@_01FDFGLJHB@2?$AA@    10073b84     view.obj
 0002:0000db88       ??_C@_0N@LHNGEHIH@v_iyaw_cycle?$AA@ 10073b88     view.obj
 0002:0000db98       __real@c0e00000            10073b98     view.obj
 0002:0000dba0       __real@c01c000000000000    10073ba0     view.obj
 0002:0000dba8       __real@4036800000000000    10073ba8     view.obj
 0002:0000dbb0       __real@41b40000            10073bb0     view.obj
 0002:0000dbb8       __real@4029000000000000    10073bb8     view.obj
 0002:0000dbc0       __real@4031000000000000    10073bc0     view.obj
 0002:0000dbc8       __real@45800000            10073bc8     view.obj
 0002:0000dbd0       __real@c008000000000000    10073bd0     view.obj
 0002:0000dbd8       __real@4049a00000000000    10073bd8     view.obj
 0002:0000dbe0       __real@4043600000000000    10073be0     view.obj
 0002:0000dbe8       __real@c4c00000            10073be8     view.obj
 0002:0000dbec       ??_C@_0BG@HKBMANOC@models?1p_crossbow?4mdl?$AA@ 10073bec     view.obj
 0002:0000dc04       ??_C@_0BG@FIOGNJBA@models?1v_crossbow?4mdl?$AA@ 10073c04     view.obj
 0002:0000dc1c       ??_C@_0BF@CKKEOHHH@models?1p_crowbar?4mdl?$AA@ 10073c1c     view.obj
 0002:0000dc34       ??_C@_0BF@NCGGKMMB@models?1v_crowbar?4mdl?$AA@ 10073c34     view.obj
 0002:0000dc4c       ??_C@_0BC@GKFFGKMI@models?1p_egon?4mdl?$AA@ 10073c4c     view.obj
 0002:0000dc60       ??_C@_0BC@ICOAKAIL@models?1v_egon?4mdl?$AA@ 10073c60     view.obj
 0002:0000dc74       ??_C@_0BD@BMFIGFJL@models?1p_gauss?4mdl?$AA@ 10073c74     view.obj
 0002:0000dc88       ??_C@_0BD@PDGFMAHL@models?1v_gauss?4mdl?$AA@ 10073c88     view.obj
 0002:0000dc9c       ??_C@_0BF@PMIHKCIM@models?1p_grenade?4mdl?$AA@ 10073c9c     view.obj
 0002:0000dcb4       ??_C@_0BF@EEFOJDK@models?1v_grenade?4mdl?$AA@ 10073cb4     view.obj
 0002:0000dccc       ??_C@_0BC@FILEEOBP@models?1p_hgun?4mdl?$AA@ 10073ccc     view.obj
 0002:0000dce0       ??_C@_0BC@LAABIEFM@models?1v_hgun?4mdl?$AA@ 10073ce0     view.obj
 0002:0000dcf4       ??_C@_0BD@BODGIAC@models?1p_9mmAR?4mdl?$AA@ 10073cf4     view.obj
 0002:0000dd08       ??_C@_0BD@OONOMNOC@models?1v_9mmAR?4mdl?$AA@ 10073d08     view.obj
 0002:0000dd1c       ??_C@_0BB@HAMKIBDK@models?1p_357?4mdl?$AA@ 10073d1c     view.obj
 0002:0000dd30       ??_C@_0BB@HNNEPBHN@models?1v_357?4mdl?$AA@ 10073d30     view.obj
 0002:0000dd44       ??_C@_0BB@IPEABBGA@models?1p_rpg?4mdl?$AA@ 10073d44     view.obj
 0002:0000dd58       ??_C@_0BB@ICFOGBCH@models?1v_rpg?4mdl?$AA@ 10073d58     view.obj
 0002:0000dd6c       ??_C@_0BF@PMANNOFI@models?1p_shotgun?4mdl?$AA@ 10073d6c     view.obj
 0002:0000dd84       ??_C@_0BF@EMPJFOO@models?1v_shotgun?4mdl?$AA@ 10073d84     view.obj
 0002:0000dd9c       ??_C@_0BE@OOEABCJM@models?1p_squeak?4mdl?$AA@ 10073d9c     view.obj
 0002:0000ddb0       ??_C@_0BE@EOKFMNEB@models?1v_squeak?4mdl?$AA@ 10073db0     view.obj
 0002:0000ddc4       ??_C@_0BG@GBOLPBLB@models?1p_tripmine?4mdl?$AA@ 10073dc4     view.obj
 0002:0000dddc       ??_C@_0BG@EDBBCFED@models?1v_tripmine?4mdl?$AA@ 10073ddc     view.obj
 0002:0000ddf4       ??_C@_0BL@DCPBNACK@models?1p_satchel_radio?4mdl?$AA@ 10073df4     view.obj
 0002:0000de10       ??_C@_0BL@LGNCENPP@models?1v_satchel_radio?4mdl?$AA@ 10073e10     view.obj
 0002:0000de2c       ??_C@_0BF@GDJJJKBD@models?1p_satchel?4mdl?$AA@ 10073e2c     view.obj
 0002:0000de44       ??_C@_0BF@JLFLNBKF@models?1v_satchel?4mdl?$AA@ 10073e44     view.obj
 0002:0000de5c       ??_C@_0N@PGEHGMMM@cl_chasedist?$AA@ 10073e5c     view.obj
 0002:0000de6c       ??_C@_03FOPFGEPB@112?$AA@  10073e6c     view.obj
 0002:0000de70       ??_C@_0N@FKCHFPJN@cl_waterdist?$AA@ 10073e70     view.obj
 0002:0000de80       ??_C@_01FAMBOPH@4?$AA@     10073e80     view.obj
 0002:0000de84       ??_C@_08JMLFNIJC@cl_bobup?$AA@ 10073e84     view.obj
 0002:0000de90       ??_C@_06JINHFLHC@cl_bob?$AA@ 10073e90     view.obj
 0002:0000de98       ??_C@_04DKCHIKEL@0?401?$AA@ 10073e98     view.obj
 0002:0000dea0       ??_C@_0M@KEDGBCKK@cl_bobcycle?$AA@ 10073ea0     view.obj
 0002:0000deac       ??_C@_0O@NKNAOODD@v_centerspeed?$AA@ 10073eac     view.obj
 0002:0000debc       ??_C@_03OCGDPLBD@500?$AA@  10073ebc     view.obj
 0002:0000dec0       ??_C@_0N@DDEDDFCJ@v_centermove?$AA@ 10073ec0     view.obj
 0002:0000ded0       ??_C@_08IONLMHAP@scr_ofsz?$AA@ 10073ed0     view.obj
 0002:0000dedc       ??_C@_08KFPGJEMM@scr_ofsy?$AA@ 10073edc     view.obj
 0002:0000dee8       ??_C@_08LMONKFIN@scr_ofsx?$AA@ 10073ee8     view.obj
 0002:0000def4       ??_C@_0L@FHIBDANG@centerview?$AA@ 10073ef4     view.obj
 0002:0000df00       __real@3f91df46a0000000    10073f00     view.obj
 0002:0000df08       ??_C@_0BN@FPAAELOK@PRINTOUT?5SON?$CB?5?$CF?42f?5?$CF?42f?5?$CF?42f?$AA@ 10073f08     view.obj
 0002:0000df28       __real@405b800000000000    10073f28     view.obj
 0002:0000df30       __real@3fa0000000000000    10073f30     view.obj
 0002:0000df38       __real@3fecccccc0000000    10073f38     view.obj
 0002:0000df44       ??_7CCrossbow@@6B@         10073f44     crossbow.obj
 0002:0000e1e8       ??_C@_0BG@OBBNACPI@models?1w_crossbow?4mdl?$AA@ 100741e8     crossbow.obj
 0002:0000e200       ??_C@_09LCECOBIM@?$CBHEV_XBOW?$AA@ 10074200     crossbow.obj
 0002:0000e20c       __real@40833333            1007420c     crossbow.obj
 0002:0000e210       ??_C@_0BE@LBIIBKKE@events?1crossbow2?4sc?$AA@ 10074210     crossbow.obj
 0002:0000e224       ??_C@_0BE@PGCIGAHE@events?1crossbow1?4sc?$AA@ 10074224     crossbow.obj
 0002:0000e238       ??_C@_0O@BEIBOGJ@crossbow_bolt?$AA@ 10074238     crossbow.obj
 0002:0000e248       ??_C@_0BJ@JLOJNCHH@weapons?1xbow_reload1?4wav?$AA@ 10074248     crossbow.obj
 0002:0000e264       ??_C@_0BH@OFCAHODE@weapons?1xbow_fire1?4wav?$AA@ 10074264     crossbow.obj
 0002:0000e27c       ??_C@_05DGHJLCJD@bolts?$AA@ 1007427c     crossbow.obj
 0002:0000e284       ??_C@_03GMGBHMEH@bow?$AA@  10074284     crossbow.obj
 0002:0000e288       __real@3f088889            10074288     crossbow.obj
 0002:0000e290       __real@3fe8000000000000    10074290     crossbow.obj
 0002:0000e298       __real@3fe1111111111111    10074298     crossbow.obj
 0002:0000e2a0       __real@3ffd99999999999a    100742a0     crossbow.obj
 0002:0000e2a8       __real@40900000            100742a8     crossbow.obj
 0002:0000e2b0       __real@4005555555555555    100742b0     crossbow.obj
 0002:0000e2b8       __real@3d0ef2c6            100742b8     crossbow.obj
 0002:0000e2c4       ??_7CCrossbowAmmo@@6B@     100742c4     crossbow.obj
 0002:0000e460       ??_C@_0BL@OLELNEJC@models?1w_crossbow_clip?4mdl?$AA@ 10074460     crossbow.obj
 0002:0000e47c       ??_C@_0L@DPAEHHIG@?$CBHEV_BOLTS?$AA@ 1007447c     crossbow.obj
 0002:0000e488       __real@4089999a            10074488     crossbow.obj
 0002:0000e48c       ??_C@_0BF@EPGJENLH@models?1w_crowbar?4mdl?$AA@ 1007448c     crowbar.obj
 0002:0000e4a4       ??_C@_0BC@DAIEPCHI@events?1crowbar?4sc?$AA@ 100744a4     crowbar.obj
 0002:0000e4b8       ??_C@_0BH@CNLHGOLI@weapons?1cbar_miss1?4wav?$AA@ 100744b8     crowbar.obj
 0002:0000e4d0       ??_C@_0BJ@CBKDCLCA@weapons?1cbar_hitbod3?4wav?$AA@ 100744d0     crowbar.obj
 0002:0000e4ec       ??_C@_0BJ@OKPPPIIF@weapons?1cbar_hitbod2?4wav?$AA@ 100744ec     crowbar.obj
 0002:0000e508       ??_C@_0BJ@GMGLIKCL@weapons?1cbar_hitbod1?4wav?$AA@ 10074508     crowbar.obj
 0002:0000e524       ??_C@_0BG@OEOFINB@weapons?1cbar_hit2?4wav?$AA@ 10074524     crowbar.obj
 0002:0000e53c       ??_C@_0BG@IINKCKHP@weapons?1cbar_hit1?4wav?$AA@ 1007453c     crowbar.obj
 0002:0000e554       ??_C@_07MICNECHH@crowbar?$AA@ 10074554     crowbar.obj
 0002:0000e55c       __real@3f0aaaab            1007455c     crowbar.obj
 0002:0000e560       __real@3fdd1745d1745d17    10074560     crowbar.obj
 0002:0000e568       __real@3fe2e8ba2e8ba2e9    10074568     crowbar.obj
 0002:0000e570       __real@3fe45d1745d1745d    10074570     crowbar.obj
 0002:0000e578       __real@3fe9555555555555    10074578     crowbar.obj
 0002:0000e580       __real@400589d89d89d89e    10074580     crowbar.obj
 0002:0000e588       __real@4015555555555555    10074588     crowbar.obj
 0002:0000e594       ??_7CCrowbar@@6B@          10074594     crowbar.obj
 0002:0000e838       ??_C@_09IGOMOLJF@?$CBHEV_EGON?$AA@ 10074838     egon.obj
 0002:0000e844       ??_C@_0BC@EDGOHPEL@models?1w_egon?4mdl?$AA@ 10074844     egon.obj
 0002:0000e858       ??_C@_0BE@CLDNFGCE@events?1egon_stop?4sc?$AA@ 10074858     egon.obj
 0002:0000e86c       ??_C@_0BE@OCHJNNC@events?1egon_fire?4sc?$AA@ 1007486c     egon.obj
 0002:0000e880       ??_C@_0BE@MOJFMDGH@sprites?1XSpark1?4spr?$AA@ 10074880     egon.obj
 0002:0000e894       ??_C@_0BD@HKPCEFMJ@sprites?1xbeam1?4spr?$AA@ 10074894     egon.obj
 0002:0000e8a8       ??_C@_0BG@FDJOBCGH@weapons?1357_cock1?4wav?$AA@ 100748a8     egon.obj
 0002:0000e8c0       ??_C@_0BJ@NFFGKILH@weapons?1egon_windup2?4wav?$AA@ 100748c0     egon.obj
 0002:0000e8dc       ??_C@_0BG@LMHGNJMI@weapons?1egon_run3?4wav?$AA@ 100748dc     egon.obj
 0002:0000e8f4       ??_C@_0BG@GNOKKFEK@weapons?1egon_off1?4wav?$AA@ 100748f4     egon.obj
 0002:0000e90c       ??_C@_07CEHHGMGL@uranium?$AA@ 1007490c     egon.obj
 0002:0000e914       __real@c0800000            10074914     egon.obj
 0002:0000e91c       ??_7CEgon@@6B@             1007491c     egon.obj
 0002:0000ebc0       __real@3f35c28f            10074bc0     egon.obj
 0002:0000ebc4       __real@3fc43958            10074bc4     egon.obj
 0002:0000ebc8       __real@3f1ced91            10074bc8     egon.obj
 0002:0000ebd0       __real@3fffe4b17e4b17e4    10074bd0     egon.obj
 0002:0000ebd8       __real@c0400000            10074bd8     egon.obj
 0002:0000ebe0       __real@40a0000000000000    10074be0     egon.obj
 0002:0000ebec       ??_7CEgonAmmo@@6B@         10074bec     egon.obj
 0002:0000ed88       ??_C@_0BH@JDOFNLCI@models?1w_chainammo?4mdl?$AA@ 10074d88     egon.obj
 0002:0000eda0       ??_C@_0P@KLJCPINJ@?$CBHEV_EGONPOWER?$AA@ 10074da0     egon.obj
 0002:0000edb0       ??_C@_0BG@CMKPNMAO@IM?5GONNA?5no?5?$CF?42f?5?$CF?42f?$AA@ 10074db0     egon.obj
 0002:0000edc8       ??_C@_0BI@GGEBMJFF@IM?5HOLDING?5BOTH?$DP?$DP?$DP?5?$CF?42f?$AA@ 10074dc8     egon.obj
 0002:0000ede0       ??_C@_0BI@ICHLCGHM@weapons?1bullet_hit2?4wav?$AA@ 10074de0     ev_hldm.obj
 0002:0000edf8       ??_C@_0BI@EOPFENC@weapons?1bullet_hit1?4wav?$AA@ 10074df8     ev_hldm.obj
 0002:0000ee10       ??_C@_0BC@JABDNOFG@debris?1glass3?4wav?$AA@ 10074e10     ev_hldm.obj
 0002:0000ee24       ??_C@_0BC@FLEPANPD@debris?1glass2?4wav?$AA@ 10074e24     ev_hldm.obj
 0002:0000ee38       ??_C@_0BC@NNNLHPFN@debris?1glass1?4wav?$AA@ 10074e38     ev_hldm.obj
 0002:0000ee4c       ??_C@_0BB@IAHAFMHK@debris?1wood3?4wav?$AA@ 10074e4c     ev_hldm.obj
 0002:0000ee60       ??_C@_0BB@ELCMIPNP@debris?1wood2?4wav?$AA@ 10074e60     ev_hldm.obj
 0002:0000ee74       ??_C@_0BB@MNLIPNHB@debris?1wood1?4wav?$AA@ 10074e74     ev_hldm.obj
 0002:0000ee88       ??_C@_0BO@EJOOCMMB@EV?5PLAY?5TEXTURE?5SOUND?3?5?$CFd?0?5?$CFc?$AA@ 10074e88     ev_hldm.obj
 0002:0000eea8       ??_C@_07CHEGGJGD@?$HLshot?$CFi?$AA@ 10074ea8     ev_hldm.obj
 0002:0000eeb0       ??_C@_08KBGMNKJH@?$HLbproof1?$AA@ 10074eb0     ev_hldm.obj
 0002:0000eebc       ??_C@_08BIMMDEGO@?$HLbreak?$CFi?$AA@ 10074ebc     ev_hldm.obj
 0002:0000eec8       ??_C@_08HELCJCPN@r_decals?$AA@ 10074ec8     ev_hldm.obj
 0002:0000eed4       ??_C@_0BG@MDAACEKK@weapons?1glauncher?4wav?$AA@ 10074ed4     ev_hldm.obj
 0002:0000eeec       ??_C@_0BH@GCKJEGEO@weapons?1glauncher2?4wav?$AA@ 10074eec     ev_hldm.obj
 0002:0000ef04       ??_C@_0BK@JCOECDPO@ambience?1pulsemachine?4wav?$AA@ 10074f04     ev_hldm.obj
 0002:0000ef20       ??_C@_0BE@KDFGEPMC@events?1gaussspin?4sc?$AA@ 10074f20     ev_hldm.obj
 0002:0000ef34       __real@40533333            10074f34     ev_hldm.obj
 0002:0000ef38       __real@3f7afafb            10074f38     ev_hldm.obj
 0002:0000ef3c       __real@420c0000            10074f3c     ev_hldm.obj
 0002:0000ef40       __real@43080000            10074f40     ev_hldm.obj
 0002:0000ef44       __real@42600000            10074f44     ev_hldm.obj
 0002:0000ef48       __real@3f9c28f6            10074f48     ev_hldm.obj
 0002:0000ef4c       ??_C@_0N@HBCCGJJG@WHY?5YOU?5FAIL?$AA@ 10074f4c     ev_hldm.obj
 0002:0000ef5c       __real@4059999a            10074f5c     ev_hldm.obj
 0002:0000ef60       __real@3e851eb8            10074f60     ev_hldm.obj
 0002:0000ef64       __real@c2200000            10074f64     ev_hldm.obj
 0002:0000ef68       __real@4070e00000000000    10074f68     ev_hldm.obj
 0002:0000ef70       __real@c1a00000            10074f70     ev_hldm.obj
 0002:0000ef78       __real@40efc02000000000    10074f78     ev_hldm.obj
 0002:0000ef80       __real@401921fb60000000    10074f80     ev_hldm.obj
 0002:0000ef88       __real@40c90fdb            10074f88     ev_hldm.obj
 0002:0000ef8c       ??_C@_0BC@ONFMGGIL@sprites?1penis?4spr?$AA@ 10074f8c     ev_hldm.obj
 0002:0000efa0       ??_C@_0BK@NNHDPFJK@sprites?1hotglow_green?4spr?$AA@ 10074fa0     ev_hldm.obj
 0002:0000efbc       ??_C@_0BE@MGECBLDD@sprites?1hotglow?4spr?$AA@ 10074fbc     ev_hldm.obj
 0002:0000efd0       __real@3f9eb851eb851eb8    10074fd0     ev_hldm.obj
 0002:0000efd8       __real@c3800000            10074fd8     ev_hldm.obj
 0002:0000efdc       __real@43800000            10074fdc     ev_hldm.obj
 0002:0000efe0       __real@40100000            10074fe0     ev_hldm.obj
 0002:0000efe4       __real@40633333            10074fe4     ev_hldm.obj
 0002:0000efe8       __real@41a00000            10074fe8     ev_hldm.obj
 0002:0000efec       __real@43020000            10074fec     ev_hldm.obj
 0002:0000eff0       ??_C@_0BE@CLKMLCED@models?1shrapnel?4mdl?$AA@ 10074ff0     ev_hldm.obj
 0002:0000f004       __real@3f733333            10075004     ev_hldm.obj
 0002:0000f008       ??_C@_0BI@IJKHDNAN@weapons?1rocketfire1?4wav?$AA@ 10075008     ev_hldm.obj
 0002:0000f020       __real@3f7ae148            10075020     ev_hldm.obj
 0002:0000f024       ??_C@_0BE@MBCKNAFB@agrunt?1ag_fire1?4wav?$AA@ 10075024     ev_hldm.obj
 0002:0000f038       ??_C@_0BE@EHLOKCPP@agrunt?1ag_fire2?4wav?$AA@ 10075038     ev_hldm.obj
 0002:0000f04c       ??_C@_0BE@IMOCHBFK@agrunt?1ag_fire3?4wav?$AA@ 1007504c     ev_hldm.obj
 0002:0000f060       ??_C@_0BC@MLFAKGIA@plats?1ttrain7?4wav?$AA@ 10075060     ev_hldm.obj
 0002:0000f074       ??_C@_0BC@MHFCF@plats?1ttrain6?4wav?$AA@ 10075074     ev_hldm.obj
 0002:0000f088       ??_C@_0BC@ENMENECO@plats?1ttrain4?4wav?$AA@ 10075088     ev_hldm.obj
 0002:0000f09c       ??_C@_0BC@FAMBOEJG@plats?1ttrain3?4wav?$AA@ 1007509c     ev_hldm.obj
 0002:0000f0b0       ??_C@_0BC@JLJNDHDD@plats?1ttrain2?4wav?$AA@ 100750b0     ev_hldm.obj
 0002:0000f0c4       ??_C@_0BC@BNAJEFJN@plats?1ttrain1?4wav?$AA@ 100750c4     ev_hldm.obj
 0002:0000f0d8       __real@3fc3333333333333    100750d8     ev_hldm.obj
 0002:0000f0e0       ??_C@_0BF@GCBOLJMB@sprites?1explode1?4spr?$AA@ 100750e0     ev_hldm.obj
 0002:0000f0f8       ??_C@_0DD@HDNOBELG@ERROR?3?5Can?8t?5register?5mirror?0?5ma@ 100750f8     ev_hldm.obj
 0002:0000f12c       __real@42200000            1007512c     ev_hldm.obj
 0002:0000f130       __real@3f48c8c9            10075130     ev_hldm.obj
 0002:0000f134       ??_C@_0BD@PAACHEDB@weapons?1gauss2?4wav?$AA@ 10075134     ev_hldm.obj
 0002:0000f148       __real@3f647ae147ae147b    10075148     ev_hldm.obj
 0002:0000f150       ??_C@_0BC@DDAJIPKB@sprites?1smoke?4spr?$AA@ 10075150     ev_hldm.obj
 0002:0000f164       ??_C@_0BJ@LNJGAJBE@models?1crossbow_bolt?4mdl?$AA@ 10075164     ev_hldm.obj
 0002:0000f180       ??_C@_0BG@DJDGFCKC@weapons?1xbow_hit1?4wav?$AA@ 10075180     ev_hldm.obj
 0002:0000f198       ??_C@_0BJ@KHGAHBFE@weapons?1xbow_hitbod1?4wav?$AA@ 10075198     ev_hldm.obj
 0002:0000f1b4       ??_C@_0BJ@CBPEADPK@weapons?1xbow_hitbod2?4wav?$AA@ 100751b4     ev_hldm.obj
 0002:0000f1d0       __real@47c34f80            100751d0     ev_hldm.obj
 0002:0000f1d4       __real@40600000            100751d4     ev_hldm.obj
 0002:0000f1d8       __real@425c0000            100751d8     ev_hldm.obj
 0002:0000f1dc       __real@42fa0000            100751dc     ev_hldm.obj
 0002:0000f1e0       __real@45000000            100751e0     ev_hldm.obj
 0002:0000f1e8       __real@c032000000000000    100751e8     ev_hldm.obj
 0002:0000f1f0       __real@bf000000            100751f0     ev_hldm.obj
 0002:0000f1f4       __real@3f0ccccd            100751f4     ev_hldm.obj
 0002:0000f1f8       __real@3f6b851f            100751f8     ev_hldm.obj
 0002:0000f1fc       __real@3e31d14e            100751fc     ev_hldm.obj
 0002:0000f200       __real@3d32aae3            10075200     ev_hldm.obj
 0002:0000f204       __real@3db280f1            10075204     ev_hldm.obj
 0002:0000f208       ??_C@_0BF@LKOOJEPL@weapons?1dbarrel1?4wav?$AA@ 10075208     ev_hldm.obj
 0002:0000f220       __real@42000000            10075220     ev_hldm.obj
 0002:0000f224       ??_C@_0BI@IGNLAKKI@models?1shotgunshell?4mdl?$AA@ 10075224     ev_hldm.obj
 0002:0000f23c       ??_C@_0BF@HDJKDEHJ@weapons?1sbarrel1?4wav?$AA@ 1007523c     ev_hldm.obj
 0002:0000f254       ??_C@_0BB@NBAHOKLP@weapons?1hks1?4wav?$AA@ 10075254     ev_hldm.obj
 0002:0000f268       ??_C@_0BB@FHJDJIBB@weapons?1hks2?4wav?$AA@ 10075268     ev_hldm.obj
 0002:0000f27c       ??_C@_0BG@NGGIAHCO@weapons?1357_shot1?4wav?$AA@ 1007527c     ev_hldm.obj
 0002:0000f294       ??_C@_0BG@FAPMHFIA@weapons?1357_shot2?4wav?$AA@ 10075294     ev_hldm.obj
 0002:0000f2ac       ??_C@_0L@PIKHFGME@?$CBHEV_GAUSS?$AA@ 100752ac     gauss.obj
 0002:0000f2b8       ??_C@_0BD@GIMAIMBE@models?1w_gauss?4mdl?$AA@ 100752b8     gauss.obj
 0002:0000f2cc       ??_C@_0BA@IHBGGLDP@events?1gauss?4sc?$AA@ 100752cc     gauss.obj
 0002:0000f2dc       ??_C@_0BF@NPHFGMKJ@weapons?1electro6?4wav?$AA@ 100752dc     gauss.obj
 0002:0000f2f4       ??_C@_0BF@FJOBBOAH@weapons?1electro5?4wav?$AA@ 100752f4     gauss.obj
 0002:0000f30c       ??_C@_0BF@JCLNMNKC@weapons?1electro4?4wav?$AA@ 1007530c     gauss.obj
 0002:0000f328       ??_C@_0EG@JICIGHOE@WHATS?5YO?5GAAAAME?5ia?3?$CFd?5starthro?3@ 10075328     gauss.obj
 0002:0000f370       ??_C@_0BA@MLDPHLJB@sound?5state?5?$CFd?6?$AA@ 10075370     gauss.obj
 0002:0000f384       ??_7CGauss@@6B@            10075384     gauss.obj
 0002:0000f628       __real@3ff5555555555555    10075628     gauss.obj
 0002:0000f634       ??_7CGaussAmmo@@6B@        10075634     gauss.obj
 0002:0000f7d0       ??_C@_0BH@JMMLBOEP@models?1w_gaussammo?4mdl?$AA@ 100757d0     gauss.obj
 0002:0000f7e8       __real@41700000            100757e8     gauss.obj
 0002:0000f7ec       ??_C@_0DB@HONKNGMH@OH?5SHIT?5I?5DID?5THE?5SHIT?5DO?5YOU?5SE@ 100757ec     gauss.obj
 0002:0000f820       ??_C@_0DB@PBJCILGF@I?5REACHED?5HERE?$DP?$DP?$DP?$CB?$CB?$CB?$CB?5comp?3?5star@ 10075820     gauss.obj
 0002:0000f85c       ??_7CHandGrenade@@6B@      1007585c     handgrenade.obj
 0002:0000fb00       ??_C@_0N@OAIDMIJP@?$CBHEV_GRENADE?$AA@ 10075b00     handgrenade.obj
 0002:0000fb10       ??_C@_0BF@JJEKAIEM@models?1w_grenade?4mdl?$AA@ 10075b10     handgrenade.obj
 0002:0000fb28       ??_C@_0N@OPHHBAA@Hand?5Grenade?$AA@ 10075b28     handgrenade.obj
 0002:0000fb38       __real@4090900000000000    10075b38     handgrenade.obj
 0002:0000fb40       __real@3ff1c71c71c71c72    10075b40     handgrenade.obj
 0002:0000fb48       __real@3fec71c71c71c71c    10075b48     handgrenade.obj
 0002:0000fb50       ??_C@_0CO@MJDKDOLP@HAND?5GRENADE?5VELOCITY?5?$CL?5THROW?5AN@ 10075b50     handgrenade.obj
 0002:0000fb80       __real@4061800000000000    10075b80     handgrenade.obj
 0002:0000fb88       __real@3fe44ec4ec4ec4ec    10075b88     handgrenade.obj
 0002:0000fb94       ??_7CBaseEntity@@6B@       10075b94     hl_baseentity.obj
 0002:0000fd34       ??_7CBaseAnimating@@6B@    10075d34     hl_baseentity.obj
 0002:0000ff04       ??_7CBaseMonster@@6B@      10075f04     hl_baseentity.obj
 0002:000102d4       __real@44440000            100762d4     hl_baseentity.obj
 0002:000102dc       ??_7CBasePlayer@@6B@       100762dc     hl_baseentity.obj
 0002:000106c8       __real@3f8ccccd            100766c8     hl_baseentity.obj
 0002:000106cc       ??_C@_0BI@OLHGGHBN@events?1friendlyvomit?4sc?$AA@ 100766cc     hl_events.obj
 0002:000106e4       ??_C@_0BG@COOAEHGA@events?1freakylight?4sc?$AA@ 100766e4     hl_events.obj
 0002:000106fc       ??_C@_0BF@JMPPJKHB@events?1gunshotnew?4sc?$AA@ 100766fc     hl_events.obj
 0002:00010714       ??_C@_0BF@GAHEEBNJ@events?1quakeexpfx?4sc?$AA@ 10076714     hl_events.obj
 0002:0001072c       ??_C@_0BH@HLDGBKKB@events?1customballsp?4sc?$AA@ 1007672c     hl_events.obj
 0002:00010744       ??_C@_0BG@FGPOOIAL@events?1customballs?4sc?$AA@ 10076744     hl_events.obj
 0002:0001075c       ??_C@_0BC@OEIHDNIB@events?1trailra?4sc?$AA@ 1007675c     hl_events.obj
 0002:00010770       ??_C@_0BA@DDADLKDA@events?1trail?4sc?$AA@ 10076770     hl_events.obj
 0002:00010780       ??_C@_0BB@FEMPKHGL@events?1mirror?4sc?$AA@ 10076780     hl_events.obj
 0002:00010794       ??_C@_0BE@JLFFAFPK@events?1snarkfire?4sc?$AA@ 10076794     hl_events.obj
 0002:000107a8       ??_C@_0BD@LMAGABKP@events?1tripfire?4sc?$AA@ 100767a8     hl_events.obj
 0002:000107bc       ??_C@_0BF@OBNDLJIE@events?1firehornet?4sc?$AA@ 100767bc     hl_events.obj
 0002:000107d4       ??_C@_0O@JLOPJJPF@events?1rpg?4sc?$AA@ 100767d4     hl_events.obj
 0002:000107e4       ??_C@_0BA@EJMDOJFA@events?1train?4sc?$AA@ 100767e4     hl_events.obj
 0002:000107f4       ??_C@_0BB@IKIOFPMG@events?1python?4sc?$AA@ 100767f4     hl_events.obj
 0002:00010808       ??_C@_0P@OHBAFFJJ@events?1mp52?4sc?$AA@ 10076808     hl_events.obj
 0002:00010818       ??_C@_0O@EIKKOJHJ@events?1mp5?4sc?$AA@ 10076818     hl_events.obj
 0002:00010828       ??_C@_0BD@EGMGHCDL@events?1shotgun2?4sc?$AA@ 10076828     hl_events.obj
 0002:0001083c       ??_C@_0BD@BGGAIOL@events?1shotgun1?4sc?$AA@ 1007683c     hl_events.obj
 0002:00010850       ??_C@_05KOMAMDGD@cl?3?5?5?$AA@ 10076850     hl_weapons.obj
 0002:00010858       ??_C@_0BC@PHMGMDPK@SendWeaponAnim?5?$CFd?$AA@ 10076858     hl_weapons.obj
 0002:0001086c       ??_C@_0BJ@DAOJNBJE@SendWeaponAnimReverse?5?$CFd?$AA@ 1007686c     hl_weapons.obj
 0002:00010888       ??_C@_0BI@MBLEACLC@SendWeaponAnimBypass?5?$CFd?$AA@ 10076888     hl_weapons.obj
 0002:000108a0       ??_C@_0BP@MLOLDDEJ@SendWeaponAnimBypassReverse?5?$CFd?$AA@ 100768a0     hl_weapons.obj
 0002:000108c0       ??_C@_0BM@LDDIOKPF@SendWeaponAnimClientOnly?5?$CFd?$AA@ 100768c0     hl_weapons.obj
 0002:000108dc       ??_C@_0CD@FHANENF@SendWeaponAnimClientOnlyReverse?5@ 100768dc     hl_weapons.obj
 0002:00010900       ??_C@_0BO@JBBGEGLO@ItemPreFrame?5CLIENT?5called?$DP?$DP?$DP?$AA@ 10076900     hl_weapons.obj
 0002:00010920       ??_C@_0BB@EBDDCAK@My?5new?5npa?3?5?$CF?42f?$AA@ 10076920     hl_weapons.obj
 0002:00010934       ??_C@_0BJ@MNCBEPB@Postframe?5PrimaryAttack?$CB?$AA@ 10076934     hl_weapons.obj
 0002:00010954       ??_7CBasePlayerWeapon@@6B@ 10076954     hl_weapons.obj
 0002:00010bf8       __real@ba83126f            10076bf8     hl_weapons.obj
 0002:00010c00       __real@bf50624dd2f1a9fc    10076c00     hl_weapons.obj
 0002:00010c08       ??_C@_0DN@BLDMFNLG@Client?3?5Received?5anim?5from?5serve@ 10076c08     hl_weapons.obj
 0002:00010c48       ??_C@_0BA@KMAAECAA@GET?5YA?5BALLS?5UP?$AA@ 10076c48     hl_weapons.obj
 0002:00010c58       ??_C@_0CD@POBKODEP@FIGHTERS?5LAUNCHED?52?4?5newthrown?3?5@ 10076c58     hl_weapons.obj
 0002:00010c7c       ??_C@_0CB@NMJGKKJL@FIGHTERS?5LAUNCHED?4?5newidle?3?5?$CF?42f@ 10076c7c     hl_weapons.obj
 0002:00010ca0       ??_C@_0CC@HAJIOBMK@?$CK?$CK?$CK?$CK?$CKVIEWMODEL?5SYNCH?5FIX?5APPLIED@ 10076ca0     hl_weapons.obj
 0002:00010ccc       ??_7CMP5@@6B@              10076ccc     hl_weapons.obj
 0002:00010f74       ??_7CRpg@@6B@              10076f74     hl_weapons.obj
 0002:0001121c       ??_7CHgun@@6B@             1007721c     hl_weapons.obj
 0002:000114c0       ??_C@_0BC@HBIPFLJM@models?1w_hgun?4mdl?$AA@ 100774c0     hornetgun.obj
 0002:000114d4       ??_C@_06HOMMBJCK@hornet?$AA@ 100774d4     hornetgun.obj
 0002:000114dc       ??_C@_0M@IGJMKEKG@?$CBHEV_HORNET?$AA@ 100774dc     hornetgun.obj
 0002:000114e8       ??_C@_07CGKBENKM@Hornets?$AA@ 100774e8     hornetgun.obj
 0002:000114f0       ??_C@_04JOEHAHOH@hive?$AA@ 100774f0     hornetgun.obj
 0002:000114f8       __real@3f9eb851e0000000    100774f8     hornetgun.obj
 0002:00011500       __real@3fdd555555555555    10077500     hornetgun.obj
 0002:00011508       __real@4001800000000000    10077508     hornetgun.obj
 0002:00011510       __real@3fec000000000000    10077510     hornetgun.obj
 0002:00011518       ??_C@_0N@FFPFAOJL@?$CBHEV_ASSAULT?$AA@ 10077518     mp5.obj
 0002:00011528       __real@40dccccd            10077528     mp5.obj
 0002:0001152c       ??_C@_0BD@HFHLIBIN@models?1w_9mmAR?4mdl?$AA@ 1007752c     mp5.obj
 0002:00011540       ??_C@_0N@BIGGDBN@weapon_9mmAR?$AA@ 10077540     mp5.obj
 0002:00011550       ??_C@_0BB@JMMPELLE@weapons?1hks3?4wav?$AA@ 10077550     mp5.obj
 0002:00011564       ??_C@_0BH@BKDEFDG@items?1cliprelease1?4wav?$AA@ 10077564     mp5.obj
 0002:0001157c       ??_C@_0BG@KAENKJBD@items?1clipinsert1?4wav?$AA@ 1007757c     mp5.obj
 0002:00011594       ??_C@_0BH@NEPPIENN@models?1w_9mmARclip?4mdl?$AA@ 10077594     mp5.obj
 0002:000115ac       ??_C@_0BD@HNJLMAMD@models?1grenade?4mdl?$AA@ 100775ac     mp5.obj
 0002:000115c0       ??_C@_0L@FJEALEPG@ARgrenades?$AA@ 100775c0     mp5.obj
 0002:000115cc       ??_C@_03OBDHKFNL@mp5?$AA@  100775cc     mp5.obj
 0002:000115d0       __real@3d566278            100775d0     mp5.obj
 0002:000115d4       __real@3cd67770            100775d4     mp5.obj
 0002:000115d8       __real@3db27eb6            100775d8     mp5.obj
 0002:000115dc       __real@3e19999a            100775dc     mp5.obj
 0002:000115e0       __real@3ff2222222222222    100775e0     mp5.obj
 0002:000115e8       __real@40166666            100775e8     mp5.obj
 0002:000115f0       __real@4009249249249249    100775f0     mp5.obj
 0002:000115fc       ??_7CMP5AmmoClip@@6B@      100775fc     mp5.obj
 0002:0001179c       ??_7CMP5Chainammo@@6B@     1007779c     mp5.obj
 0002:0001193c       ??_7CMP5AmmoGrenade@@6B@   1007793c     mp5.obj
 0002:00011ad8       ??_C@_0BH@KENGENOH@models?1w_ARgrenade?4mdl?$AA@ 10077ad8     mp5.obj
 0002:00011af0       ??_C@_0O@NGONKPMP@?$CBHEV_AGRENADE?$AA@ 10077af0     mp5.obj
 0002:00011b04       ??_7CPython@@6B@           10077b04     python.obj
 0002:00011da8       ??_C@_0BF@LHKHEIDI@sprites?1laserdot?4spr?$AA@ 10077da8     python.obj
 0002:00011dc0       ??_C@_03IOICPAOD@357?$AA@  10077dc0     python.obj
 0002:00011dc4       ??_C@_0O@IMHLMOEC@?$CBHEV_44PISTOL?$AA@ 10077dc4     python.obj
 0002:00011dd4       ??_C@_0BB@JCBGJKED@models?1w_357?4mdl?$AA@ 10077dd4     python.obj
 0002:00011de8       ??_C@_0L@DGJNBIBM@weapon_357?$AA@ 10077de8     python.obj
 0002:00011df4       ??_C@_0BI@DOMDMLDK@weapons?1357_reload1?4wav?$AA@ 10077df4     python.obj
 0002:00011e0c       ??_C@_0BI@IPPCMDMI@models?1w_357ammobox?4mdl?$AA@ 10077e0c     python.obj
 0002:00011e24       __real@403e4530            10077e24     python.obj
 0002:00011e28       __real@4016aaaaaaaaaaab    10077e28     python.obj
 0002:00011e30       __real@4007777777777777    10077e30     python.obj
 0002:00011e38       __real@4002aaaaaaaaaaab    10077e38     python.obj
 0002:00011e44       ??_7CLaserSpotPython@@6B@  10077e44     python.obj
 0002:00011fdc       ??_C@_06OIODPPHE@python?$AA@ 10077fdc     python.obj
 0002:00011fe8       __real@3ff0888888888889    10077fe8     python.obj
 0002:00011ff0       __real@3c0f0846            10077ff0     python.obj
 0002:00011ffc       ??_7CPythonAmmo@@6B@       10077ffc     python.obj
 0002:00012198       ??_C@_0M@FOGBDLGF@?$CBHEV_44AMMO?$AA@ 10078198     python.obj
 0002:000121a4       ??_C@_0L@PKAMAFCB@laser_spot?$AA@ 100781a4     python.obj
 0002:000121b0       __real@40022222            100781b0     rpg.obj
 0002:000121b4       ??_C@_08LCCDHNJM@?$CBHEV_RPG?$AA@ 100781b4     rpg.obj
 0002:000121c0       ??_C@_0BB@GNJMAKBJ@models?1w_rpg?4mdl?$AA@ 100781c0     rpg.obj
 0002:000121d4       ??_C@_0L@MFNEJJJF@rpg_rocket?$AA@ 100781d4     rpg.obj
 0002:000121e0       ??_C@_07DCMGFMFH@rockets?$AA@ 100781e0     rpg.obj
 0002:000121e8       ??_C@_03GBMANNME@rpg?$AA@  100781e8     rpg.obj
 0002:000121f0       __real@3feaaaaaaaaaaaab    100781f0     rpg.obj
 0002:000121fc       ??_7CRpgAmmo@@6B@          100781fc     rpg.obj
 0002:00012398       ??_C@_0BF@ONHNEHHH@models?1w_rpgammo?4mdl?$AA@ 10078398     rpg.obj
 0002:000123b0       ??_C@_0N@DDDHLMJO@?$CBHEV_RPGAMMO?$AA@ 100783b0     rpg.obj
 0002:000123c4       ??_7CSatchel@@6B@          100783c4     satchel.obj
 0002:00012668       __real@3fe99999a0000000    10078668     satchel.obj
 0002:00012670       ??_C@_0BG@PFBLLDCD@weapons?1g_bounce3?4wav?$AA@ 10078670     satchel.obj
 0002:00012688       ??_C@_0BG@DOEHGAIG@weapons?1g_bounce2?4wav?$AA@ 10078688     satchel.obj
 0002:000126a0       ??_C@_0BG@LINDBCCI@weapons?1g_bounce1?4wav?$AA@ 100786a0     satchel.obj
 0002:000126b8       ??_C@_0N@NDFGPKGG@?$CBHEV_SATCHEL?$AA@ 100786b8     satchel.obj
 0002:000126c8       ??_C@_0BF@GFEDAND@models?1w_satchel?4mdl?$AA@ 100786c8     satchel.obj
 0002:000126e0       ??_C@_0BA@BEOAANPO@monster_satchel?$AA@ 100786e0     satchel.obj
 0002:000126f0       ??_C@_0P@LMFBIKDH@Satchel?5Charge?$AA@ 100786f0     satchel.obj
 0002:00012700       ??_C@_04JMIAKPKD@trip?$AA@ 10078700     satchel.obj
 0002:00012708       __real@3f222222            10078708     satchel.obj
 0002:00012710       __real@3fe4444444444444    10078710     satchel.obj
 0002:00012718       __real@4014333333333333    10078718     satchel.obj
 0002:00012720       __real@4006333333333333    10078720     satchel.obj
 0002:00012728       __real@400599999999999a    10078728     satchel.obj
 0002:00012730       __real@4000444444444444    10078730     satchel.obj
 0002:00012738       __real@3fee666660000000    10078738     satchel.obj
 0002:00012744       ??_7CSatchelCharge@@6B@    10078744     satchel.obj
 0002:00012b1c       ??_7CShotgun@@6B@          10078b1c     shotgun.obj
 0002:00012dc0       ??_C@_0BF@JJMAHEJI@models?1w_shotgun?4mdl?$AA@ 10078dc0     shotgun.obj
 0002:00012dd8       ??_C@_0BD@HNCIEKIG@weapons?1scock1?4wav?$AA@ 10078dd8     shotgun.obj
 0002:00012dec       ??_C@_0N@ILGMNHNL@?$CBHEV_SHOTGUN?$AA@ 10078dec     shotgun.obj
 0002:00012dfc       ??_C@_08BPIGABHK@buckshot?$AA@ 10078dfc     shotgun.obj
 0002:00012e08       ??_C@_07PKBOGMMP@shotgun?$AA@ 10078e08     shotgun.obj
 0002:00012e10       ??_C@_0BG@HBJIPAAL@I?5SAW?5THE?5WHOLE?5THING?$AA@ 10078e10     shotgun.obj
 0002:00012e28       __real@3feb13b13b13b13b    10078e28     shotgun.obj
 0002:00012e30       ??_C@_0L@BHCAKOPL@ILL?5hahaha?$AA@ 10078e30     shotgun.obj
 0002:00012e40       __real@400eeeeeeeeeeeef    10078e40     shotgun.obj
 0002:00012e48       __real@4001c71c71c71c72    10078e48     shotgun.obj
 0002:00012e50       __real@3fee666666666666    10078e50     shotgun.obj
 0002:00012e58       __real@4013555555555555    10078e58     shotgun.obj
 0002:00012e64       ??_7CShotgunAmmo@@6B@      10078e64     shotgun.obj
 0002:00013000       ??_C@_0BF@MHABFIPK@models?1w_shotbox?4mdl?$AA@ 10079000     shotgun.obj
 0002:00013018       ??_C@_0O@JAKJIDBO@?$CBHEV_BUCKSHOT?$AA@ 10079018     shotgun.obj
 0002:00013028       ??_C@_0CD@LGAOLHGF@OK?0?5next?5attack?5relative?5time?3?$CF?4@ 10079028     shotgun.obj
 0002:0001304c       ??_C@_0BO@KJBCMGGN@SHOTGUN?3?5PRIMARY?5FIRE?5AT?5?$CF?42f?$AA@ 1007904c     shotgun.obj
 0002:0001306c       ??_C@_0BL@ODLDOIOF@I?5GOT?5BLAWKED?$CB?$CB?$CB?5time?3?$CF?42f?$AA@ 1007906c     shotgun.obj
 0002:00013088       __real@3ff9d89d89d89d8a    10079088     shotgun.obj
 0002:00013090       ??_C@_0CA@GMODHGLO@SHOTGUN?3?5SECONDARY?5FIRE?5AT?5?$CF?42f?$AA@ 10079090     shotgun.obj
 0002:000130b4       ??_7CSqueak@@6B@           100790b4     squeakgrenade.obj
 0002:00013358       ??_C@_0M@HCOCFKPG@?$CBHEV_SQUEEK?$AA@ 10079358     squeakgrenade.obj
 0002:00013364       ??_C@_0BK@PKMGMHCG@monster_snarkpickupwalker?$AA@ 10079364     squeakgrenade.obj
 0002:00013380       ??_C@_0BF@PPMGPFPJ@models?1w_sqknest?4mdl?$AA@ 10079380     squeakgrenade.obj
 0002:00013398       ??_C@_0O@LBKPDLAI@monster_snark?$AA@ 10079398     squeakgrenade.obj
 0002:000133a8       ??_C@_0BF@OGELJCFM@squeek?1sqk_hunt3?4wav?$AA@ 100793a8     squeakgrenade.obj
 0002:000133c0       ??_C@_0BF@CNBHEBPJ@squeek?1sqk_hunt2?4wav?$AA@ 100793c0     squeakgrenade.obj
 0002:000133d8       ??_C@_06GHKEIFJP@Snarks?$AA@ 100793d8     squeakgrenade.obj
 0002:000133e0       ??_C@_06INLLEPKG@squeak?$AA@ 100793e0     squeakgrenade.obj
 0002:000133e8       __real@4011800000000000    100793e8     squeakgrenade.obj
 0002:000133f0       __real@3ffbbbbbbbbbbbbc    100793f0     squeakgrenade.obj
 0002:000133f8       __real@3fe6666660000000    100793f8     squeakgrenade.obj
 0002:00013400       __real@3fe2aaaaaaaaaaab    10079400     squeakgrenade.obj
 0002:0001340c       ??_7CTripmine@@6B@         1007940c     tripmine.obj
 0002:000136b0       __real@3f0a3d71            100796b0     tripmine.obj
 0002:000136b4       __real@3ebd70a4            100796b4     tripmine.obj
 0002:000136b8       ??_C@_0O@LNKABLEL@?$CBHEV_TRIPMINE?$AA@ 100796b8     tripmine.obj
 0002:000136c8       ??_C@_0BB@NGDHJCGI@monster_tripmine?$AA@ 100796c8     tripmine.obj
 0002:000136dc       ??_C@_09OKDBGJNM@Trip?5Mine?$AA@ 100796dc     tripmine.obj
 0002:000136e8       __real@3fd7777777777777    100796e8     tripmine.obj
 0002:000136f0       __real@400aaaaaaaaaaaab    100796f0     tripmine.obj
 0002:000136fc       ??_7FooDefaultScrollBarIntChangeSignal@?A0x19f3ca1d@@6B@ 100796fc     vgui_scrollbar2.obj
 0002:00013704       ??_7FooDefaultButtonSignal@?A0x19f3ca1d@@6B@ 10079704     vgui_scrollbar2.obj
 0002:0001370c       ??_7ScrollBarButton@@6B@   1007970c     vgui_scrollbar2.obj
 0002:0001396c       ??_C@_0BJ@PDKJKACF@gfx?1vgui?1320_arrowrt?4tga?$AA@ 1007996c     vgui_scrollbar2.obj
 0002:00013988       ??_C@_0BJ@MEEIEHLG@gfx?1vgui?1320_arrowlt?4tga?$AA@ 10079988     vgui_scrollbar2.obj
 0002:000139a4       ??_C@_0BH@IADKFNCN@gfx?1vgui?1arrowdown?4tga?$AA@ 100799a4     vgui_scrollbar2.obj
 0002:000139bc       ??_C@_0BF@JNMIAEIN@gfx?1vgui?1arrowup?4tga?$AA@ 100799bc     vgui_scrollbar2.obj
 0002:000139d8       ??_7FooDefaultSliderSignal@?A0xba825ea7@@6B@ 100799d8     vgui_slider2.obj
 0002:00013a04       ??_C@_0N@IGAEJEAO@voice_ban?4dt?$AA@ 10079a04     voice_banmgr.obj
 0002:00013a14       ??_C@_02GMLFBBN@wb?$AA@    10079a14     voice_banmgr.obj
 0002:00013a18       ??_C@_02JDPG@rb?$AA@       10079a18     voice_banmgr.obj
 0002:00013a1c       ??_C@_0DK@MBNLMJIM@Ban?5?$CFd?3?5?$CF2x?$CF2x?$CF2x?$CF2x?$CF2x?$CF2x?$CF2x?$CF2x@ 10079a1c     voice_status.obj
 0002:00013a58       ??_C@_0CA@DNPGIGAF@?9?9?9?9?9?9?9?9?9?9?9?9?9?9?9?9?9?9?9?9?9?9?9?9?9?9?9?9?9?9?6?$AA@ 10079a58     voice_status.obj
 0002:00013a78       ??_C@_0CA@KKJEGLKK@?9?9?9?9?9?9?9?5BANNED?5PLAYERS?5?9?9?9?9?9?9?9?6?$AA@ 10079a78     voice_status.obj
 0002:00013a98       ??_C@_0BC@LDDGBJKC@voice_clientdebug?$AA@ 10079a98     voice_status.obj
 0002:00013ab0       ??_7CVoiceStatus@@6BCDefaultInputSignal@vgui@@@ 10079ab0     voice_status.obj
 0002:00013ae0       ??_7CVoiceStatus@@6BCHudBase@@@ 10079ae0     voice_status.obj
 0002:00013b00       ??_C@_0BG@KNOEPLBA@sprites?1voiceicon?4spr?$AA@ 10079b00     voice_status.obj
 0002:00013b18       ??_C@_0BH@FOALOBCJ@scripts?1voicemodel?4txt?$AA@ 10079b18     voice_status.obj
 0002:00013b30       ??_C@_0BO@CCEHIDEF@gfx?1vgui?1640_voiceblocked?4tga?$AA@ 10079b30     voice_status.obj
 0002:00013b50       ??_C@_0BM@GOBADGIG@gfx?1vgui?1icntlk_squelch?4tga?$AA@ 10079b50     voice_status.obj
 0002:00013b6c       ??_C@_0BK@PINPAAKF@gfx?1vgui?1640_speaker4?4tga?$AA@ 10079b6c     voice_status.obj
 0002:00013b88       ??_C@_0BK@OFNKDABN@gfx?1vgui?1640_speaker3?4tga?$AA@ 10079b88     voice_status.obj
 0002:00013ba4       ??_C@_0BK@COIGODLI@gfx?1vgui?1640_speaker2?4tga?$AA@ 10079ba4     voice_status.obj
 0002:00013bc0       ??_C@_0BK@KIBCJBBG@gfx?1vgui?1640_speaker1?4tga?$AA@ 10079bc0     voice_status.obj
 0002:00013bdc       ??_C@_0BG@HJAJOCLJ@gfx?1vgui?1speaker4?4tga?$AA@ 10079bdc     voice_status.obj
 0002:00013bf4       ??_C@_0BH@MAMHJNOA@gfx?1vgui?1icntlk_sv?4tga?$AA@ 10079bf4     voice_status.obj
 0002:00013c0c       ??_C@_0BH@FDGCKGIA@gfx?1vgui?1icntlk_pl?4tga?$AA@ 10079c0c     voice_status.obj
 0002:00013c24       ??_C@_05KKNFJNLK@?$CFs?5?5?5?$AA@ 10079c24     voice_status.obj
 0002:00013c2c       ??_C@_0BC@MDPFDLDI@voice_modenable?51?$AA@ 10079c2c     voice_status.obj
 0002:00013c40       ??_C@_0DI@GFLCHOPF@CVoiceStatus?3?3UpdateSpeakerStatu@ 10079c40     voice_status.obj
 0002:00013c78       ??_C@_0CM@CGPNFHBP@CVoiceStatus?3?3UpdateServerState?3@ 10079c78     voice_status.obj
 0002:00013ca4       ??_C@_03KHOJPICI@?5?$CFx?$AA@ 10079ca4     voice_status.obj
 0002:00013ca8       ??_C@_04GMALMFDL@vban?$AA@ 10079ca8     voice_status.obj
 0002:00013cb0       ??_C@_0CP@OGGINCOB@CVoiceStatus?3?3UpdateServerState?3@ 10079cb0     voice_status.obj
 0002:00013ce0       ??_C@_0O@OMHMDILE@VModEnable?5?$CFd?$AA@ 10079ce0     voice_status.obj
 0002:00013cf0       ??_C@_0BA@DHCILCGF@voice_modenable?$AA@ 10079cf0     voice_status.obj
 0002:00013d00       ??_C@_0DD@NJIBJCAE@CVoiceStatus?3?3UpdateServerState?3@ 10079d00     voice_status.obj
 0002:00013d34       ??_C@_0CH@BHLPPPPI@?5?5?5?5?9?5m_ServerBannedPlayers?$FL?$CFd?$FN?5@ 10079d34     voice_status.obj
 0002:00013d5c       ??_C@_0CC@MIMDBPGE@?5?5?5?5?9?5m_AudiblePlayers?$FL?$CFd?$FN?5?$DN?5?$CFlu@ 10079d5c     voice_status.obj
 0002:00013d80       ??_C@_0CC@CIKFIILH@CVoiceStatus?3?3HandleVoiceMaskMsg@ 10079d80     voice_status.obj
 0002:00013da4       ??_C@_0CB@HBKPNNND@CVoiceStatus?3?3HandleReqStateMsg?6@ 10079da4     voice_status.obj
 0002:00013dc8       ??_C@_0EC@HBDPNNJ@CVoiceStatus?3?3SetPlayerBlockedSt@ 10079dc8     voice_status.obj
 0002:00013e0c       ??_C@_0CM@BIFPHHPP@CVoiceStatus?3?3SetPlayerBlockedSt@ 10079e0c     voice_status.obj
 0002:00013e38       ??_C@_0CM@BKBJMJKG@CVoiceStatus?3?3SetPlayerBlockedSt@ 10079e38     voice_status.obj
 0002:00013e64       ??_C@_08NJOGAELP@ReqState?$AA@ 10079e64     voice_status.obj
 0002:00013e70       ??_C@_09PFCBDEAJ@VoiceMask?$AA@ 10079e70     voice_status.obj
 0002:00013e7c       ??_C@_0BB@DGLAAAAH@voice_showbanned?$AA@ 10079e7c     voice_status.obj
 0002:00013e90       __FPinit                   10079e90     LIBCMT:_fpinit_.obj
 0002:00013e98       ??_7type_info@@6B@         10079e98     LIBCMT:typinfo.obj
 0002:00013f60       ??_C@_0P@MIGLKIOC@CorExitProcess?$AA@ 10079f60     LIBCMT:crt0dat.obj
 0002:00013f70       ??_C@_1BI@BGOHAHKC@?$AAm?$AAs?$AAc?$AAo?$AAr?$AAe?$AAe?$AA?4?$AAd?$AAl?$AAl?$AA?$AA@ 10079f70     LIBCMT:crt0dat.obj
 0002:00013f8c       ??_7bad_alloc@std@@6B@     10079f8c     LIBCMT:new.obj
 0002:00013f94       ??_C@_0P@GHFPNOJB@bad?5allocation?$AA@ 10079f94     LIBCMT:new.obj
 0002:00013fb0       __OP_FMODjmptab            10079fb0     LIBCMT:_87fmod_.obj
 0002:00014000       __pDefaultRawDllMain       1007a000     LIBCMT:dllcrt0.obj
 0002:00014000       __pRawDllMain              1007a000     LIBCMT:dllcrt0.obj
 0002:00014004       ??_C@_05KLBDPFGC@e?$CL000?$AA@ 1007a004     LIBCMT:cvt.obj
 0002:000148b0       __indefinite               1007a8b0     LIBCMT:_87disp_.obj
 0002:000148ba       __piby2                    1007a8ba     LIBCMT:_87disp_.obj
 0002:000148e8       __DEFAULT_CW_in_mem        1007a8e8     LIBCMT:_common_.obj
 0002:000148ea       __pi_by_2_to_61            1007a8ea     LIBCMT:_common_.obj
 0002:00014924       __pDestructExceptionObject 1007a924     LIBCMT:frame.obj
 0002:0001492c       ??_7bad_exception@std@@6B@ 1007a92c     LIBCMT:frame.obj
 0002:00014934       ??_C@_0O@DPKOEFFH@bad?5exception?$AA@ 1007a934     LIBCMT:frame.obj
 0002:00014944       ??_C@_1BK@DBDEIDLH@?$AAK?$AAE?$AAR?$AAN?$AAE?$AAL?$AA3?$AA2?$AA?4?$AAD?$AAL?$AAL?$AA?$AA@ 1007a944     LIBCMT:tidtable.obj
 0002:00014960       ??_C@_07PEJMOBNF@FlsFree?$AA@ 1007a960     LIBCMT:tidtable.obj
 0002:00014968       ??_C@_0M@JCPCPOEF@FlsSetValue?$AA@ 1007a968     LIBCMT:tidtable.obj
 0002:00014974       ??_C@_0M@GDNOONDI@FlsGetValue?$AA@ 1007a974     LIBCMT:tidtable.obj
 0002:00014980       ??_C@_08KNHFBNJ@FlsAlloc?$AA@ 1007a980     LIBCMT:tidtable.obj
 0002:00014994       ??_C@_1O@CEDCILHN@?$AA?$CI?$AAn?$AAu?$AAl?$AAl?$AA?$CJ?$AA?$AA@ 1007a994     LIBCMT:output.obj
 0002:000149a4       ??_C@_06OJHGLDPL@?$CInull?$CJ?$AA@ 1007a9a4     LIBCMT:output.obj
 0002:000149b0       ___lookuptable             1007a9b0     LIBCMT:output.obj
 0002:00014a78       ??_C@_03IIINPABG@tan?$AA@  1007aa78     LIBCMT:_libm_error_.obj
 0002:00014a7c       ??_C@_03LALBNOCG@cos?$AA@  1007aa7c     LIBCMT:_libm_error_.obj
 0002:00014a80       ??_C@_03BLEJJJBH@sin?$AA@  1007aa80     LIBCMT:_libm_error_.obj
 0002:00014a84       ??_C@_04EHEDPDJG@modf?$AA@ 1007aa84     LIBCMT:_libm_error_.obj
 0002:00014a8c       ??_C@_05PBJFFIGL@floor?$AA@ 1007aa8c     LIBCMT:_libm_error_.obj
 0002:00014a94       ??_C@_04GFPJNGEK@ceil?$AA@ 1007aa94     LIBCMT:_libm_error_.obj
 0002:00014a9c       ??_C@_04MLLJIGOK@atan?$AA@ 1007aa9c     LIBCMT:_libm_error_.obj
 0002:00014aa4       ??_C@_05EOHGHCHD@exp10?$AA@ 1007aaa4     LIBCMT:_libm_error_.obj
 0002:00014aac       ??_C@_04PDIFKINK@acos?$AA@ 1007aaac     LIBCMT:_libm_error_.obj
 0002:00014ab4       ??_C@_04FIHNOPOL@asin?$AA@ 1007aab4     LIBCMT:_libm_error_.obj
 0002:00014abc       ??_C@_03MGHMBJCF@log?$AA@  1007aabc     LIBCMT:_libm_error_.obj
 0002:00014ac0       ??_C@_05HGHHAHAP@log10?$AA@ 1007aac0     LIBCMT:_libm_error_.obj
 0002:00014ac8       ??_C@_03KHJOGHMM@exp?$AA@  1007aac8     LIBCMT:_libm_error_.obj
 0002:00014acc       ??_C@_03JGHBODFD@pow?$AA@  1007aacc     LIBCMT:_libm_error_.obj
 0002:00014ad0       ??_C@_1BC@GDGBMEMK@?$AAH?$AAH?$AA?3?$AAm?$AAm?$AA?3?$AAs?$AAs?$AA?$AA@ 1007aad0     LIBCMT:nlsdata2.obj
 0002:00014ae4       ??_C@_1CI@KNAKOEBC@?$AAd?$AAd?$AAd?$AAd?$AA?0?$AA?5?$AAM?$AAM?$AAM?$AAM?$AA?5?$AAd?$AAd?$AA?0?$AA?5?$AAy?$AAy?$AAy?$AAy?$AA?$AA@ 1007aae4     LIBCMT:nlsdata2.obj
 0002:00014b0c       ??_C@_1BC@IEBCMHCM@?$AAM?$AAM?$AA?1?$AAd?$AAd?$AA?1?$AAy?$AAy?$AA?$AA@ 1007ab0c     LIBCMT:nlsdata2.obj
 0002:00014b20       ??_C@_15CLMNNGEL@?$AAP?$AAM?$AA?$AA@ 1007ab20     LIBCMT:nlsdata2.obj
 0002:00014b28       ??_C@_15ODEHAHHF@?$AAA?$AAM?$AA?$AA@ 1007ab28     LIBCMT:nlsdata2.obj
 0002:00014b30       ??_C@_1BC@FEMKIFH@?$AAD?$AAe?$AAc?$AAe?$AAm?$AAb?$AAe?$AAr?$AA?$AA@ 1007ab30     LIBCMT:nlsdata2.obj
 0002:00014b44       ??_C@_1BC@BGLIFPF@?$AAN?$AAo?$AAv?$AAe?$AAm?$AAb?$AAe?$AAr?$AA?$AA@ 1007ab44     LIBCMT:nlsdata2.obj
 0002:00014b58       ??_C@_1BA@EPANDLNG@?$AAO?$AAc?$AAt?$AAo?$AAb?$AAe?$AAr?$AA?$AA@ 1007ab58     LIBCMT:nlsdata2.obj
 0002:00014b68       ??_C@_1BE@DKAAMBJL@?$AAS?$AAe?$AAp?$AAt?$AAe?$AAm?$AAb?$AAe?$AAr?$AA?$AA@ 1007ab68     LIBCMT:nlsdata2.obj
 0002:00014b7c       ??_C@_1O@PAHLKOAC@?$AAA?$AAu?$AAg?$AAu?$AAs?$AAt?$AA?$AA@ 1007ab7c     LIBCMT:nlsdata2.obj
 0002:00014b8c       ??_C@_19BIFMLPCD@?$AAJ?$AAu?$AAl?$AAy?$AA?$AA@ 1007ab8c     LIBCMT:nlsdata2.obj
 0002:00014b98       ??_C@_19EPFLPGAP@?$AAJ?$AAu?$AAn?$AAe?$AA?$AA@ 1007ab98     LIBCMT:nlsdata2.obj
 0002:00014ba4       ??_C@_1M@GJNLMHFD@?$AAA?$AAp?$AAr?$AAi?$AAl?$AA?$AA@ 1007aba4     LIBCMT:nlsdata2.obj
 0002:00014bb0       ??_C@_1M@IKEENEDF@?$AAM?$AAa?$AAr?$AAc?$AAh?$AA?$AA@ 1007abb0     LIBCMT:nlsdata2.obj
 0002:00014bbc       ??_C@_1BC@JGDDFFAM@?$AAF?$AAe?$AAb?$AAr?$AAu?$AAa?$AAr?$AAy?$AA?$AA@ 1007abbc     LIBCMT:nlsdata2.obj
 0002:00014bd0       ??_C@_1BA@EFMEIEBA@?$AAJ?$AAa?$AAn?$AAu?$AAa?$AAr?$AAy?$AA?$AA@ 1007abd0     LIBCMT:nlsdata2.obj
 0002:00014be0       ??_C@_17EGKACKIF@?$AAD?$AAe?$AAc?$AA?$AA@ 1007abe0     LIBCMT:nlsdata2.obj
 0002:00014be8       ??_C@_17BBDMLCIG@?$AAN?$AAo?$AAv?$AA?$AA@ 1007abe8     LIBCMT:nlsdata2.obj
 0002:00014bf0       ??_C@_17FNLKOI@?$AAO?$AAc?$AAt?$AA?$AA@ 1007abf0     LIBCMT:nlsdata2.obj
 0002:00014bf8       ??_C@_17HCHCOKMG@?$AAS?$AAe?$AAp?$AA?$AA@ 1007abf8     LIBCMT:nlsdata2.obj
 0002:00014c00       ??_C@_17ICPELBCN@?$AAA?$AAu?$AAg?$AA?$AA@ 1007ac00     LIBCMT:nlsdata2.obj
 0002:00014c08       ??_C@_17IJPCKHK@?$AAJ?$AAu?$AAl?$AA?$AA@ 1007ac08     LIBCMT:nlsdata2.obj
 0002:00014c10       ??_C@_17KCJGOCPB@?$AAJ?$AAu?$AAn?$AA?$AA@ 1007ac10     LIBCMT:nlsdata2.obj
 0002:00014c18       ??_C@_17PNNKMEED@?$AAM?$AAa?$AAy?$AA?$AA@ 1007ac18     LIBCMT:nlsdata2.obj
 0002:00014c20       ??_C@_17LFPOIHDD@?$AAA?$AAp?$AAr?$AA?$AA@ 1007ac20     LIBCMT:nlsdata2.obj
 0002:00014c28       ??_C@_17CKNLEDEC@?$AAM?$AAa?$AAr?$AA?$AA@ 1007ac28     LIBCMT:nlsdata2.obj
 0002:00014c30       ??_C@_17LMDJEKJN@?$AAF?$AAe?$AAb?$AA?$AA@ 1007ac30     LIBCMT:nlsdata2.obj
 0002:00014c38       ??_C@_17DKNBKCHM@?$AAJ?$AAa?$AAn?$AA?$AA@ 1007ac38     LIBCMT:nlsdata2.obj
 0002:00014c40       ??_C@_1BC@ENMNNPAJ@?$AAS?$AAa?$AAt?$AAu?$AAr?$AAd?$AAa?$AAy?$AA?$AA@ 1007ac40     LIBCMT:nlsdata2.obj
 0002:00014c54       ??_C@_1O@PDICJHAG@?$AAF?$AAr?$AAi?$AAd?$AAa?$AAy?$AA?$AA@ 1007ac54     LIBCMT:nlsdata2.obj
 0002:00014c64       ??_C@_1BC@HHMNLIHE@?$AAT?$AAh?$AAu?$AAr?$AAs?$AAd?$AAa?$AAy?$AA?$AA@ 1007ac64     LIBCMT:nlsdata2.obj
 0002:00014c78       ??_C@_1BE@EBOGMDOH@?$AAW?$AAe?$AAd?$AAn?$AAe?$AAs?$AAd?$AAa?$AAy?$AA?$AA@ 1007ac78     LIBCMT:nlsdata2.obj
 0002:00014c8c       ??_C@_1BA@ENFBFFEK@?$AAT?$AAu?$AAe?$AAs?$AAd?$AAa?$AAy?$AA?$AA@ 1007ac8c     LIBCMT:nlsdata2.obj
 0002:00014c9c       ??_C@_1O@MMNBFLIA@?$AAM?$AAo?$AAn?$AAd?$AAa?$AAy?$AA?$AA@ 1007ac9c     LIBCMT:nlsdata2.obj
 0002:00014cac       ??_C@_1O@IHNHDHPB@?$AAS?$AAu?$AAn?$AAd?$AAa?$AAy?$AA?$AA@ 1007acac     LIBCMT:nlsdata2.obj
 0002:00014cbc       ??_C@_17GGIBDPIH@?$AAS?$AAa?$AAt?$AA?$AA@ 1007acbc     LIBCMT:nlsdata2.obj
 0002:00014cc4       ??_C@_17HFOLPPLP@?$AAF?$AAr?$AAi?$AA?$AA@ 1007acc4     LIBCMT:nlsdata2.obj
 0002:00014ccc       ??_C@_17PDPHAADD@?$AAT?$AAh?$AAu?$AA?$AA@ 1007accc     LIBCMT:nlsdata2.obj
 0002:00014cd4       ??_C@_17CJEDCEPE@?$AAW?$AAe?$AAd?$AA?$AA@ 1007acd4     LIBCMT:nlsdata2.obj
 0002:00014cdc       ??_C@_17BMKGEGOJ@?$AAT?$AAu?$AAe?$AA?$AA@ 1007acdc     LIBCMT:nlsdata2.obj
 0002:00014ce4       ??_C@_17KBOMKBF@?$AAM?$AAo?$AAn?$AA?$AA@ 1007ace4     LIBCMT:nlsdata2.obj
 0002:00014cec       ??_C@_17MBGCMIPB@?$AAS?$AAu?$AAn?$AA?$AA@ 1007acec     LIBCMT:nlsdata2.obj
 0002:00014cf4       ??_C@_08JCCMCCIL@HH?3mm?3ss?$AA@ 1007acf4     LIBCMT:nlsdata2.obj
 0002:00014d00       ??_C@_0BE@CKGJFCPC@dddd?0?5MMMM?5dd?0?5yyyy?$AA@ 1007ad00     LIBCMT:nlsdata2.obj
 0002:00014d14       ??_C@_08BPBNCDIB@MM?1dd?1yy?$AA@ 1007ad14     LIBCMT:nlsdata2.obj
 0002:00014d20       ??_C@_02CJNFDJBF@PM?$AA@   1007ad20     LIBCMT:nlsdata2.obj
 0002:00014d24       ??_C@_02DEDBPAFC@AM?$AA@   1007ad24     LIBCMT:nlsdata2.obj
 0002:00014d28       ??_C@_08EDHMEBNP@December?$AA@ 1007ad28     LIBCMT:nlsdata2.obj
 0002:00014d34       ??_C@_08HCHEGEOA@November?$AA@ 1007ad34     LIBCMT:nlsdata2.obj
 0002:00014d40       ??_C@_07JJNFCEND@October?$AA@ 1007ad40     LIBCMT:nlsdata2.obj
 0002:00014d48       ??_C@_09BHHEALKD@September?$AA@ 1007ad48     LIBCMT:nlsdata2.obj
 0002:00014d54       ??_C@_06LBBHFDDG@August?$AA@ 1007ad54     LIBCMT:nlsdata2.obj
 0002:00014d5c       ??_C@_04MIEPOIFP@July?$AA@ 1007ad5c     LIBCMT:nlsdata2.obj
 0002:00014d64       ??_C@_04CNLMGBGM@June?$AA@ 1007ad64     LIBCMT:nlsdata2.obj
 0002:00014d6c       ??_C@_05DMJDNLEJ@April?$AA@ 1007ad6c     LIBCMT:nlsdata2.obj
 0002:00014d74       ??_C@_05HPCKOFNC@March?$AA@ 1007ad74     LIBCMT:nlsdata2.obj
 0002:00014d7c       ??_C@_08GNJGEPFN@February?$AA@ 1007ad7c     LIBCMT:nlsdata2.obj
 0002:00014d88       ??_C@_07CGJPFGJA@January?$AA@ 1007ad88     LIBCMT:nlsdata2.obj
 0002:00014d90       ??_C@_03MKABNOCG@Dec?$AA@  1007ad90     LIBCMT:nlsdata2.obj
 0002:00014d94       ??_C@_03JPJOFNIA@Nov?$AA@  1007ad94     LIBCMT:nlsdata2.obj
 0002:00014d98       ??_C@_03BMAOKBAD@Oct?$AA@  1007ad98     LIBCMT:nlsdata2.obj
 0002:00014d9c       ??_C@_03GGCAPAJC@Sep?$AA@  1007ad9c     LIBCMT:nlsdata2.obj
 0002:00014da0       ??_C@_03IFJFEIGA@Aug?$AA@  1007ada0     LIBCMT:nlsdata2.obj
 0002:00014da4       ??_C@_03LBGABGKK@Jul?$AA@  1007ada4     LIBCMT:nlsdata2.obj
 0002:00014da8       ??_C@_03IDFGHECI@Jun?$AA@  1007ada8     LIBCMT:nlsdata2.obj
 0002:00014dac       ??_C@_03CNMDKL@May?$AA@    1007adac     LIBCMT:nlsdata2.obj
 0002:00014db0       ??_C@_03LEOLGMJP@Apr?$AA@  1007adb0     LIBCMT:nlsdata2.obj
 0002:00014db4       ??_C@_03ODNJBKGA@Mar?$AA@  1007adb4     LIBCMT:nlsdata2.obj
 0002:00014db8       ??_C@_03HJBDCHOM@Feb?$AA@  1007adb8     LIBCMT:nlsdata2.obj
 0002:00014dbc       ??_C@_03JIHJHPIE@Jan?$AA@  1007adbc     LIBCMT:nlsdata2.obj
 0002:00014dc0       ??_C@_08INBOOONO@Saturday?$AA@ 1007adc0     LIBCMT:nlsdata2.obj
 0002:00014dcc       ??_C@_06JECMNKMI@Friday?$AA@ 1007adcc     LIBCMT:nlsdata2.obj
 0002:00014dd4       ??_C@_08HACCIKIA@Thursday?$AA@ 1007add4     LIBCMT:nlsdata2.obj
 0002:00014de0       ??_C@_09DLIGFAKA@Wednesday?$AA@ 1007ade0     LIBCMT:nlsdata2.obj
 0002:00014dec       ??_C@_07BAAGCFCM@Tuesday?$AA@ 1007adec     LIBCMT:nlsdata2.obj
 0002:00014df4       ??_C@_06JLEDEDGH@Monday?$AA@ 1007adf4     LIBCMT:nlsdata2.obj
 0002:00014dfc       ??_C@_06OOPIFAJ@Sunday?$AA@ 1007adfc     LIBCMT:nlsdata2.obj
 0002:00014e04       ??_C@_03FEFJNEK@Sat?$AA@   1007ae04     LIBCMT:nlsdata2.obj
 0002:00014e08       ??_C@_03IDIOELNC@Fri?$AA@  1007ae08     LIBCMT:nlsdata2.obj
 0002:00014e0c       ??_C@_03IOFIKPDN@Thu?$AA@  1007ae0c     LIBCMT:nlsdata2.obj
 0002:00014e10       ??_C@_03MHOMLAJA@Wed?$AA@  1007ae10     LIBCMT:nlsdata2.obj
 0002:00014e14       ??_C@_03NAGEINEP@Tue?$AA@  1007ae14     LIBCMT:nlsdata2.obj
 0002:00014e18       ??_C@_03PDAGKDH@Mon?$AA@   1007ae18     LIBCMT:nlsdata2.obj
 0002:00014e1c       ??_C@_03KOEHGMDN@Sun?$AA@  1007ae1c     LIBCMT:nlsdata2.obj
 0002:00014e40       ??_C@_1BO@BKOMIGKJ@?$AAr?$AAu?$AAn?$AAt?$AAi?$AAm?$AAe?$AA?5?$AAe?$AAr?$AAr?$AAo?$AAr?$AA?5?$AA?$AA@ 1007ae40     LIBCMT:crt0msg.obj
 0002:00014e60       ??_C@_15JNBOKNOG@?$AA?$AN?$AA?6?$AA?$AA@ 1007ae60     LIBCMT:crt0msg.obj
 0002:00014e68       ??_C@_1BM@JBBEPPHI@?$AAT?$AAL?$AAO?$AAS?$AAS?$AA?5?$AAe?$AAr?$AAr?$AAo?$AAr?$AA?$AN?$AA?6?$AA?$AA@ 1007ae68     LIBCMT:crt0msg.obj
 0002:00014e84       ??_C@_1BK@KMOMNAAI@?$AAS?$AAI?$AAN?$AAG?$AA?5?$AAe?$AAr?$AAr?$AAo?$AAr?$AA?$AN?$AA?6?$AA?$AA@ 1007ae84     LIBCMT:crt0msg.obj
 0002:00014ea0       ??_C@_1BO@BFCDCGC@?$AAD?$AAO?$AAM?$AAA?$AAI?$AAN?$AA?5?$AAe?$AAr?$AAr?$AAo?$AAr?$AA?$AN?$AA?6?$AA?$AA@ 1007aea0     LIBCMT:crt0msg.obj
 0002:00014ec0       ??_C@_1BOO@KGEDBGAJ@?$AAR?$AA6?$AA0?$AA3?$AA3?$AA?$AN?$AA?6?$AA?9?$AA?5?$AAA?$AAt?$AAt?$AAe?$AAm?$AAp?$AAt?$AA?5?$AAt?$AAo?$AA?5?$AAu?$AAs?$AAe?$AA?5?$AAM?$AAS?$AAI?$AAL?$AA?5?$AAc?$AAo?$AAd@ 1007aec0     LIBCMT:crt0msg.obj
 0002:000150b0       ??_C@_1GG@GOPILAJP@?$AAR?$AA6?$AA0?$AA3?$AA2?$AA?$AN?$AA?6?$AA?9?$AA?5?$AAn?$AAo?$AAt?$AA?5?$AAe?$AAn?$AAo?$AAu?$AAg?$AAh?$AA?5?$AAs?$AAp?$AAa?$AAc?$AAe?$AA?5?$AAf?$AAo?$AAr?$AA?5?$AAl?$AAo@ 1007b0b0     LIBCMT:crt0msg.obj
 0002:00015118       ??_C@_1MG@ENCOOIDF@?$AAR?$AA6?$AA0?$AA3?$AA1?$AA?$AN?$AA?6?$AA?9?$AA?5?$AAA?$AAt?$AAt?$AAe?$AAm?$AAp?$AAt?$AA?5?$AAt?$AAo?$AA?5?$AAi?$AAn?$AAi?$AAt?$AAi?$AAa?$AAl?$AAi?$AAz?$AAe?$AA?5?$AAt@ 1007b118     LIBCMT:crt0msg.obj
 0002:000151e0       ??_C@_1DO@BMFCDCD@?$AAR?$AA6?$AA0?$AA3?$AA0?$AA?$AN?$AA?6?$AA?9?$AA?5?$AAC?$AAR?$AAT?$AA?5?$AAn?$AAo?$AAt?$AA?5?$AAi?$AAn?$AAi?$AAt?$AAi?$AAa?$AAl?$AAi?$AAz?$AAe?$AAd?$AA?$AN?$AA?6?$AA?$AA@ 1007b1e0     LIBCMT:crt0msg.obj
 0002:00015220       ??_C@_1EK@HHFLMAOL@?$AAR?$AA6?$AA0?$AA2?$AA8?$AA?$AN?$AA?6?$AA?9?$AA?5?$AAu?$AAn?$AAa?$AAb?$AAl?$AAe?$AA?5?$AAt?$AAo?$AA?5?$AAi?$AAn?$AAi?$AAt?$AAi?$AAa?$AAl?$AAi?$AAz?$AAe?$AA?5?$AAh?$AAe@ 1007b220     LIBCMT:crt0msg.obj
 0002:00015270       ??_C@_1GK@MFGOKLAG@?$AAR?$AA6?$AA0?$AA2?$AA7?$AA?$AN?$AA?6?$AA?9?$AA?5?$AAn?$AAo?$AAt?$AA?5?$AAe?$AAn?$AAo?$AAu?$AAg?$AAh?$AA?5?$AAs?$AAp?$AAa?$AAc?$AAe?$AA?5?$AAf?$AAo?$AAr?$AA?5?$AAl?$AAo@ 1007b270     LIBCMT:crt0msg.obj
 0002:000152e0       ??_C@_1GK@MCAAGJMO@?$AAR?$AA6?$AA0?$AA2?$AA6?$AA?$AN?$AA?6?$AA?9?$AA?5?$AAn?$AAo?$AAt?$AA?5?$AAe?$AAn?$AAo?$AAu?$AAg?$AAh?$AA?5?$AAs?$AAp?$AAa?$AAc?$AAe?$AA?5?$AAf?$AAo?$AAr?$AA?5?$AAs?$AAt@ 1007b2e0     LIBCMT:crt0msg.obj
 0002:00015350       ??_C@_1EM@MAADIHMB@?$AAR?$AA6?$AA0?$AA2?$AA5?$AA?$AN?$AA?6?$AA?9?$AA?5?$AAp?$AAu?$AAr?$AAe?$AA?5?$AAv?$AAi?$AAr?$AAt?$AAu?$AAa?$AAl?$AA?5?$AAf?$AAu?$AAn?$AAc?$AAt?$AAi?$AAo?$AAn?$AA?5?$AAc@ 1007b350     LIBCMT:crt0msg.obj
 0002:000153a0       ??_C@_1GK@FHCKBEFA@?$AAR?$AA6?$AA0?$AA2?$AA4?$AA?$AN?$AA?6?$AA?9?$AA?5?$AAn?$AAo?$AAt?$AA?5?$AAe?$AAn?$AAo?$AAu?$AAg?$AAh?$AA?5?$AAs?$AAp?$AAa?$AAc?$AAe?$AA?5?$AAf?$AAo?$AAr?$AA?5?$AA_?$AAo@ 1007b3a0     LIBCMT:crt0msg.obj
 0002:00015410       ??_C@_1FC@ECHBIFBC@?$AAR?$AA6?$AA0?$AA1?$AA9?$AA?$AN?$AA?6?$AA?9?$AA?5?$AAu?$AAn?$AAa?$AAb?$AAl?$AAe?$AA?5?$AAt?$AAo?$AA?5?$AAo?$AAp?$AAe?$AAn?$AA?5?$AAc?$AAo?$AAn?$AAs?$AAo?$AAl?$AAe?$AA?5@ 1007b410     LIBCMT:crt0msg.obj
 0002:00015468       ??_C@_1EC@JIBHAOPH@?$AAR?$AA6?$AA0?$AA1?$AA8?$AA?$AN?$AA?6?$AA?9?$AA?5?$AAu?$AAn?$AAe?$AAx?$AAp?$AAe?$AAc?$AAt?$AAe?$AAd?$AA?5?$AAh?$AAe?$AAa?$AAp?$AA?5?$AAe?$AAr?$AAr?$AAo?$AAr?$AA?$AN?$AA?6@ 1007b468     LIBCMT:crt0msg.obj
 0002:000154b0       ??_C@_1FK@BEOGODMC@?$AAR?$AA6?$AA0?$AA1?$AA7?$AA?$AN?$AA?6?$AA?9?$AA?5?$AAu?$AAn?$AAe?$AAx?$AAp?$AAe?$AAc?$AAt?$AAe?$AAd?$AA?5?$AAm?$AAu?$AAl?$AAt?$AAi?$AAt?$AAh?$AAr?$AAe?$AAa?$AAd?$AA?5@ 1007b4b0     LIBCMT:crt0msg.obj
 0002:00015510       ??_C@_1FI@LOGNIKDM@?$AAR?$AA6?$AA0?$AA1?$AA6?$AA?$AN?$AA?6?$AA?9?$AA?5?$AAn?$AAo?$AAt?$AA?5?$AAe?$AAn?$AAo?$AAu?$AAg?$AAh?$AA?5?$AAs?$AAp?$AAa?$AAc?$AAe?$AA?5?$AAf?$AAo?$AAr?$AA?5?$AAt?$AAh@ 1007b510     LIBCMT:crt0msg.obj
 0002:00015568       ??_C@_1EG@BEHAGFJD@?$AAR?$AA6?$AA0?$AA1?$AA0?$AA?$AN?$AA?6?$AA?9?$AA?5?$AAa?$AAb?$AAo?$AAr?$AAt?$AA?$CI?$AA?$CJ?$AA?5?$AAh?$AAa?$AAs?$AA?5?$AAb?$AAe?$AAe?$AAn?$AA?5?$AAc?$AAa?$AAl?$AAl?$AAe?$AAd@ 1007b568     LIBCMT:crt0msg.obj
 0002:000155b0       ??_C@_1FI@HONFMGBI@?$AAR?$AA6?$AA0?$AA0?$AA9?$AA?$AN?$AA?6?$AA?9?$AA?5?$AAn?$AAo?$AAt?$AA?5?$AAe?$AAn?$AAo?$AAu?$AAg?$AAh?$AA?5?$AAs?$AAp?$AAa?$AAc?$AAe?$AA?5?$AAf?$AAo?$AAr?$AA?5?$AAe?$AAn@ 1007b5b0     LIBCMT:crt0msg.obj
 0002:00015608       ??_C@_1FE@LLNEDJMD@?$AAR?$AA6?$AA0?$AA0?$AA8?$AA?$AN?$AA?6?$AA?9?$AA?5?$AAn?$AAo?$AAt?$AA?5?$AAe?$AAn?$AAo?$AAu?$AAg?$AAh?$AA?5?$AAs?$AAp?$AAa?$AAc?$AAe?$AA?5?$AAf?$AAo?$AAr?$AA?5?$AAa?$AAr@ 1007b608     LIBCMT:crt0msg.obj
 0002:00015660       ??_C@_1FK@PGACCAFB@?$AAR?$AA6?$AA0?$AA0?$AA2?$AA?$AN?$AA?6?$AA?9?$AA?5?$AAf?$AAl?$AAo?$AAa?$AAt?$AAi?$AAn?$AAg?$AA?5?$AAp?$AAo?$AAi?$AAn?$AAt?$AA?5?$AAs?$AAu?$AAp?$AAp?$AAo?$AAr?$AAt?$AA?5@ 1007b660     LIBCMT:crt0msg.obj
 0002:00015770       ??_C@_1EK@MBDPDCGA@?$AAM?$AAi?$AAc?$AAr?$AAo?$AAs?$AAo?$AAf?$AAt?$AA?5?$AAV?$AAi?$AAs?$AAu?$AAa?$AAl?$AA?5?$AAC?$AA?$CL?$AA?$CL?$AA?5?$AAR?$AAu?$AAn?$AAt?$AAi?$AAm?$AAe?$AA?5?$AAL?$AAi?$AAb@ 1007b770     LIBCMT:crt0msg.obj
 0002:000157bc       ??_C@_15IABLJNFO@?$AA?6?$AA?6?$AA?$AA@ 1007b7bc     LIBCMT:crt0msg.obj
 0002:000157c4       ??_C@_17LGKOMLJ@?$AA?4?$AA?4?$AA?4?$AA?$AA@ 1007b7c4     LIBCMT:crt0msg.obj
 0002:000157cc       ??_C@_1CO@EAEJAADC@?$AA?$DM?$AAp?$AAr?$AAo?$AAg?$AAr?$AAa?$AAm?$AA?5?$AAn?$AAa?$AAm?$AAe?$AA?5?$AAu?$AAn?$AAk?$AAn?$AAo?$AAw?$AAn?$AA?$DO?$AA?$AA@ 1007b7cc     LIBCMT:crt0msg.obj
 0002:000157fc       ??_C@_1DE@JNGNBFGO@?$AAR?$AAu?$AAn?$AAt?$AAi?$AAm?$AAe?$AA?5?$AAE?$AAr?$AAr?$AAo?$AAr?$AA?$CB?$AA?6?$AA?6?$AAP?$AAr?$AAo?$AAg?$AAr?$AAa?$AAm?$AA?3?$AA?5?$AA?$AA@ 1007b7fc     LIBCMT:crt0msg.obj
 0002:00015834       ??_7exception@std@@6B@     1007b834     LIBCMT:stdexcpt.obj
 0002:0001583c       ??_C@_0BC@EOODALEL@Unknown?5exception?$AA@ 1007b83c     LIBCMT:stdexcpt.obj
 0002:00016100       ___dnames                  1007c100     LIBCMT:timeset.obj
 0002:00016118       ___mnames                  1007c118     LIBCMT:timeset.obj
 0002:00019b00       __infinity                 1007fb00     LIBCMT:_87tran_.obj
 0002:00019b0a       __minfinity                1007fb0a     LIBCMT:_87tran_.obj
 0002:00019b14       __logemax                  1007fb14     LIBCMT:_87tran_.obj
 0002:00019b3a       __OP_EXPjmptab             1007fb3a     LIBCMT:_87tran_.obj
 0002:00019b60       __OP_ATAN2jmptab           1007fb60     LIBCMT:_87triga_.obj
 0002:0001b400       __XcptActTab               10081400     LIBCMT:winxfltr.obj
 0002:0001b490       __First_FPE_Indx           10081490     LIBCMT:winxfltr.obj
 0002:0001b494       __Num_FPE                  10081494     LIBCMT:winxfltr.obj
 0002:0001b498       __XcptActTabSize           10081498     LIBCMT:winxfltr.obj
 0002:0001b49c       __XcptActTabCount          1008149c     LIBCMT:winxfltr.obj
 0002:0001b4a0       ??_C@_0BK@CFCOFLF@?5Complete?5Object?5Locator?8?$AA@ 100814a0     LIBCMT:undname.obj
 0002:0001b4bc       ??_C@_0BN@MECKDCOJ@?5Class?5Hierarchy?5Descriptor?8?$AA@ 100814bc     LIBCMT:undname.obj
 0002:0001b4dc       ??_C@_0BD@LGICGFMM@?5Base?5Class?5Array?8?$AA@ 100814dc     LIBCMT:undname.obj
 0002:0001b4f0       ??_C@_0BM@LDKODKLH@?5Base?5Class?5Descriptor?5at?5?$CI?$AA@ 100814f0     LIBCMT:undname.obj
 0002:0001b50c       ??_C@_0BC@DAFEJGAK@?5Type?5Descriptor?8?$AA@ 1008150c     LIBCMT:undname.obj
 0002:0001b520       ??_C@_0BM@PMGGMLDN@?$GAlocal?5static?5thread?5guard?8?$AA@ 10081520     LIBCMT:undname.obj
 0002:0001b53c       ??_C@_0CL@FGIJHLCE@?$GAmanaged?5vector?5copy?5constructor@ 1008153c     LIBCMT:undname.obj
 0002:0001b568       ??_C@_0CJ@GJELGAMM@?$GAvector?5vbase?5copy?5constructor?5i@ 10081568     LIBCMT:undname.obj
 0002:0001b594       ??_C@_0CD@CGAJBKEJ@?$GAvector?5copy?5constructor?5iterato@ 10081594     LIBCMT:undname.obj
 0002:0001b5b8       ??_C@_0CB@PDBIFEP@?$GAdynamic?5atexit?5destructor?5for?5?8@ 100815b8     LIBCMT:undname.obj
 0002:0001b5dc       ??_C@_0BL@CLIPGLGB@?$GAdynamic?5initializer?5for?5?8?$AA@ 100815dc     LIBCMT:undname.obj
 0002:0001b5f8       ??_C@_0CM@FCBBDIGB@?$GAeh?5vector?5vbase?5copy?5constructo@ 100815f8     LIBCMT:undname.obj
 0002:0001b624       ??_C@_0CG@HLDDJMAG@?$GAeh?5vector?5copy?5constructor?5iter@ 10081624     LIBCMT:undname.obj
 0002:0001b64c       ??_C@_0CF@IMGKMJNO@?$GAmanaged?5vector?5destructor?5itera@ 1008164c     LIBCMT:undname.obj
 0002:0001b674       ??_C@_0CG@CFDHKGGD@?$GAmanaged?5vector?5constructor?5iter@ 10081674     LIBCMT:undname.obj
 0002:0001b69c       ??_C@_0BN@CKNJLHMB@?$GAplacement?5delete?$FL?$FN?5closure?8?$AA@ 1008169c     LIBCMT:undname.obj
 0002:0001b6bc       ??_C@_0BL@CNOONJFP@?$GAplacement?5delete?5closure?8?$AA@ 100816bc     LIBCMT:undname.obj
 0002:0001b6d8       ??_C@_0P@HJKNJFNN@?$GAomni?5callsig?8?$AA@ 100816d8     LIBCMT:undname.obj
 0002:0001b6e8       ??_C@_09LBNFPBCA@?5delete?$FL?$FN?$AA@ 100816e8     LIBCMT:undname.obj
 0002:0001b6f4       ??_C@_06FHBGPFGH@?5new?$FL?$FN?$AA@ 100816f4     LIBCMT:undname.obj
 0002:0001b6fc       ??_C@_0CE@IIHCMGGL@?$GAlocal?5vftable?5constructor?5closu@ 100816fc     LIBCMT:undname.obj
 0002:0001b720       ??_C@_0BA@KKLDJDLB@?$GAlocal?5vftable?8?$AA@ 10081720     LIBCMT:undname.obj
 0002:0001b730       ??_C@_05KHLCHHI@?$GARTTI?$AA@ 10081730     LIBCMT:undname.obj
 0002:0001b738       ??_C@_03KLGMFNMG@?$GAEH?$AA@ 10081738     LIBCMT:undname.obj
 0002:0001b73c       ??_C@_0BA@KBCDOMBN@?$GAudt?5returning?8?$AA@ 1008173c     LIBCMT:undname.obj
 0002:0001b74c       ??_C@_0BL@LLKPOHJI@?$GAcopy?5constructor?5closure?8?$AA@ 1008174c     LIBCMT:undname.obj
 0002:0001b768       ??_C@_0CH@OOJPLCPH@?$GAeh?5vector?5vbase?5constructor?5ite@ 10081768     LIBCMT:undname.obj
 0002:0001b790       ??_C@_0CA@GCEOPDGL@?$GAeh?5vector?5destructor?5iterator?8?$AA@ 10081790     LIBCMT:undname.obj
 0002:0001b7b0       ??_C@_0CB@JONCMFFK@?$GAeh?5vector?5constructor?5iterator?8@ 100817b0     LIBCMT:undname.obj
 0002:0001b7d4       ??_C@_0BL@NILFHHPC@?$GAvirtual?5displacement?5map?8?$AA@ 100817d4     LIBCMT:undname.obj
 0002:0001b7f0       ??_C@_0CE@IKBNEHA@?$GAvector?5vbase?5constructor?5iterat@ 100817f0     LIBCMT:undname.obj
 0002:0001b814       ??_C@_0BN@LFPFMEDL@?$GAvector?5destructor?5iterator?8?$AA@ 10081814     LIBCMT:undname.obj
 0002:0001b834       ??_C@_0BO@PFGOCPJJ@?$GAvector?5constructor?5iterator?8?$AA@ 10081834     LIBCMT:undname.obj
 0002:0001b854       ??_C@_0BN@IMDCHIKM@?$GAscalar?5deleting?5destructor?8?$AA@ 10081854     LIBCMT:undname.obj
 0002:0001b874       ??_C@_0BO@OBMKPJIG@?$GAdefault?5constructor?5closure?8?$AA@ 10081874     LIBCMT:undname.obj
 0002:0001b894       ??_C@_0BN@DEGPLNFK@?$GAvector?5deleting?5destructor?8?$AA@ 10081894     LIBCMT:undname.obj
 0002:0001b8b4       ??_C@_0BD@JDLKDPAB@?$GAvbase?5destructor?8?$AA@ 100818b4     LIBCMT:undname.obj
 0002:0001b8c8       ??_C@_08OBABFOLI@?$GAstring?8?$AA@ 100818c8     LIBCMT:undname.obj
 0002:0001b8d4       ??_C@_0BF@KDPPACIK@?$GAlocal?5static?5guard?8?$AA@ 100818d4     LIBCMT:undname.obj
 0002:0001b8ec       ??_C@_08LLFFHHDJ@?$GAtypeof?8?$AA@ 100818ec     LIBCMT:undname.obj
 0002:0001b8f8       ??_C@_07FEEIOKP@?$GAvcall?8?$AA@ 100818f8     LIBCMT:undname.obj
 0002:0001b900       ??_C@_09BLBHBJP@?$GAvbtable?8?$AA@ 10081900     LIBCMT:undname.obj
 0002:0001b90c       ??_C@_09IFPLHPGF@?$GAvftable?8?$AA@ 1008190c     LIBCMT:undname.obj
 0002:0001b918       ??_C@_02MHEGNOJ@?$FO?$DN?$AA@ 10081918     LIBCMT:undname.obj
 0002:0001b91c       ??_C@_02DHLNPPGH@?$HM?$DN?$AA@ 1008191c     LIBCMT:undname.obj
 0002:0001b920       ??_C@_02FGJGFEAB@?$CG?$DN?$AA@ 10081920     LIBCMT:undname.obj
 0002:0001b924       ??_C@_03CDNPDDLA@?$DM?$DM?$DN?$AA@ 10081924     LIBCMT:undname.obj
 0002:0001b928       ??_C@_03IKFCCPFF@?$DO?$DO?$DN?$AA@ 10081928     LIBCMT:undname.obj
 0002:0001b92c       ??_C@_02FENAOKFI@?$CF?$DN?$AA@ 1008192c     LIBCMT:undname.obj
 0002:0001b930       ??_C@_02FJEHGPIO@?1?$DN?$AA@ 10081930     LIBCMT:undname.obj
 0002:0001b934       ??_C@_02FKMDLLOA@?9?$DN?$AA@ 10081934     LIBCMT:undname.obj
 0002:0001b938       ??_C@_02FOEOMHFC@?$CL?$DN?$AA@ 10081938     LIBCMT:undname.obj
 0002:0001b93c       ??_C@_02FPIMKNGF@?$CK?$DN?$AA@ 1008193c     LIBCMT:undname.obj
 0002:0001b940       ??_C@_02NONPIBCD@?$HM?$HM?$AA@ 10081940     LIBCMT:undname.obj
 0002:0001b944       ??_C@_02PPKAJPJL@?$CG?$CG?$AA@ 10081944     LIBCMT:undname.obj
 0002:0001b948       ??_C@_01DNKMNLPK@?$HM?$AA@ 10081948     LIBCMT:undname.obj
 0002:0001b94c       ??_C@_01JKBOJNNK@?$FO?$AA@ 1008194c     LIBCMT:undname.obj
 0002:0001b950       ??_C@_01PJKLJHI@?$HO?$AA@  10081950     LIBCMT:undname.obj
 0002:0001b954       ??_C@_02HCKGKOFO@?$CI?$CJ?$AA@ 10081954     LIBCMT:undname.obj
 0002:0001b958       ??_C@_01IHBHIGKO@?0?$AA@   10081958     LIBCMT:undname.obj
 0002:0001b95c       ??_C@_02EEKDKGMJ@?$DO?$DN?$AA@ 1008195c     LIBCMT:undname.obj
 0002:0001b960       ??_C@_02EHCHHCKH@?$DM?$DN?$AA@ 10081960     LIBCMT:undname.obj
 0002:0001b964       ??_C@_01FGNFDNOH@?$CF?$AA@ 10081964     LIBCMT:undname.obj
 0002:0001b968       ??_C@_01KMDKNFGN@?1?$AA@   10081968     LIBCMT:undname.obj
 0002:0001b96c       ??_C@_03MNHNFDLC@?9?$DO?$CK?$AA@ 1008196c     LIBCMT:undname.obj
 0002:0001b970       ??_C@_01HNPIGOCE@?$CG?$AA@ 10081970     LIBCMT:undname.obj
 0002:0001b974       ??_C@_01MIFGBAGJ@?$CL?$AA@ 10081974     LIBCMT:undname.obj
 0002:0001b978       ??_C@_01JOAMLHOP@?9?$AA@   10081978     LIBCMT:undname.obj
 0002:0001b97c       ??_C@_02BAABKJLB@?9?9?$AA@ 1008197c     LIBCMT:undname.obj
 0002:0001b980       ??_C@_02ECNGHCIF@?$CL?$CL?$AA@ 10081980     LIBCMT:undname.obj
 0002:0001b984       ??_C@_01NBENCBCI@?$CK?$AA@ 10081984     LIBCMT:undname.obj
 0002:0001b988       ??_C@_02HBOOOICD@?9?$DO?$AA@ 10081988     LIBCMT:undname.obj
 0002:0001b98c       ??_C@_08LHJFAFGD@operator?$AA@ 1008198c     LIBCMT:undname.obj
 0002:0001b998       ??_C@_02GPECMEKF@?$FL?$FN?$AA@ 10081998     LIBCMT:undname.obj
 0002:0001b99c       ??_C@_02FDNJECIE@?$CB?$DN?$AA@ 1008199c     LIBCMT:undname.obj
 0002:0001b9a0       ??_C@_02EGOFBIJA@?$DN?$DN?$AA@ 100819a0     LIBCMT:undname.obj
 0002:0001b9a4       ??_C@_01DCLJPIOD@?$CB?$AA@ 100819a4     LIBCMT:undname.obj
 0002:0001b9a8       ??_C@_02FODMEDOG@?$DM?$DM?$AA@ 100819a8     LIBCMT:undname.obj
 0002:0001b9ac       ??_C@_02GPIOPFAK@?$DO?$DO?$AA@ 100819ac     LIBCMT:undname.obj
 0002:0001b9b0       ??_C@_07FPCDHGMM@?5delete?$AA@ 100819b0     LIBCMT:undname.obj
 0002:0001b9b8       ??_C@_04NIHEBCM@?5new?$AA@ 100819b8     LIBCMT:undname.obj
 0002:0001b9c0       ??_C@_0M@GFIIJFMG@__unaligned?$AA@ 100819c0     LIBCMT:undname.obj
 0002:0001b9cc       ??_C@_0L@PILCLIHE@__restrict?$AA@ 100819cc     LIBCMT:undname.obj
 0002:0001b9d8       ??_C@_07JOMMBBKO@__ptr64?$AA@ 100819d8     LIBCMT:undname.obj
 0002:0001b9e0       ??_C@_06GHPCKEAG@__eabi?$AA@ 100819e0     LIBCMT:undname.obj
 0002:0001b9e8       ??_C@_09HIJEGCPM@__clrcall?$AA@ 100819e8     LIBCMT:undname.obj
 0002:0001b9f4       ??_C@_0L@JMKHOMEK@__fastcall?$AA@ 100819f4     LIBCMT:undname.obj
 0002:0001ba00       ??_C@_0L@NPHFGOKO@__thiscall?$AA@ 10081a00     LIBCMT:undname.obj
 0002:0001ba0c       ??_C@_09IFJBGAPI@__stdcall?$AA@ 10081a0c     LIBCMT:undname.obj
 0002:0001ba18       ??_C@_08GHMPAG@__pascal?$AA@ 10081a18     LIBCMT:undname.obj
 0002:0001ba24       ??_C@_07KOLFKCDI@__cdecl?$AA@ 10081a24     LIBCMT:undname.obj
 0002:0001ba2c       ??_C@_08EHJDFFNH@__based?$CI?$AA@ 10081a2c     LIBCMT:undname.obj
 0002:0001bbc0       ___lookuptable_s           10081bc0     LIBCMT:outputs.obj
 0002:0001bc1c       ??_C@_0L@KDOEJCKC@_nextafter?$AA@ 10081c1c     LIBCMT:_fpexcept_.obj
 0002:0001bc28       ??_C@_05JGDBENOH@_logb?$AA@ 10081c28     LIBCMT:_fpexcept_.obj
 0002:0001bc30       ??_C@_03ONILCKOB@_yn?$AA@  10081c30     LIBCMT:_fpexcept_.obj
 0002:0001bc34       ??_C@_03NAKIGLHK@_y1?$AA@  10081c34     LIBCMT:_fpexcept_.obj
 0002:0001bc38       ??_C@_03MJLDFKDL@_y0?$AA@  10081c38     LIBCMT:_fpexcept_.obj
 0002:0001bc3c       ??_C@_05GKKHEGJL@frexp?$AA@ 10081c3c     LIBCMT:_fpexcept_.obj
 0002:0001bc44       ??_C@_04KEPJIHGP@fmod?$AA@ 10081c44     LIBCMT:_fpexcept_.obj
 0002:0001bc4c       ??_C@_06MEIMCGCF@_hypot?$AA@ 10081c4c     LIBCMT:_fpexcept_.obj
 0002:0001bc54       ??_C@_05KBKMEMPO@_cabs?$AA@ 10081c54     LIBCMT:_fpexcept_.obj
 0002:0001bc5c       ??_C@_05CEJMAHNP@ldexp?$AA@ 10081c5c     LIBCMT:_fpexcept_.obj
 0002:0001bc64       ??_C@_04ODHECPBC@fabs?$AA@ 10081c64     LIBCMT:_fpexcept_.obj
 0002:0001bc6c       ??_C@_04EIAKFFMI@sqrt?$AA@ 10081c6c     LIBCMT:_fpexcept_.obj
 0002:0001bc74       ??_C@_05KNGEOGJB@atan2?$AA@ 10081c74     LIBCMT:_fpexcept_.obj
 0002:0001bc7c       ??_C@_04FJHINJAO@tanh?$AA@ 10081c7c     LIBCMT:_fpexcept_.obj
 0002:0001bc84       ??_C@_04HPJJNFIM@cosh?$AA@ 10081c84     LIBCMT:_fpexcept_.obj
 0002:0001bc8c       ??_C@_04COOMCNPB@sinh?$AA@ 10081c8c     LIBCMT:_fpexcept_.obj
 0002:0001bc98       ___newctype                10081c98     LIBCMT:ctype.obj
 0002:0001bf98       __wctype                   10081f98     LIBCMT:ctype.obj
 0002:0001c1a0       ___newclmap                100821a0     LIBCMT:ctype.obj
 0002:0001c320       ___newcumap                10082320     LIBCMT:ctype.obj
 0002:0001c4a0       ??_C@_0BI@DFKBFLJE@GetProcessWindowStation?$AA@ 100824a0     LIBCMT:crtmboxw.obj
 0002:0001c4b8       ??_C@_0BK@DEKFELLI@GetUserObjectInformationW?$AA@ 100824b8     LIBCMT:crtmboxw.obj
 0002:0001c4d4       ??_C@_0BD@HHGDFDBJ@GetLastActivePopup?$AA@ 100824d4     LIBCMT:crtmboxw.obj
 0002:0001c4e8       ??_C@_0BA@HNOPNCHB@GetActiveWindow?$AA@ 100824e8     LIBCMT:crtmboxw.obj
 0002:0001c4f8       ??_C@_0M@DLDCCGNP@MessageBoxW?$AA@ 100824f8     LIBCMT:crtmboxw.obj
 0002:0001c504       ??_C@_1BG@GOEBHBDC@?$AAU?$AAS?$AAE?$AAR?$AA3?$AA2?$AA?4?$AAD?$AAL?$AAL?$AA?$AA@ 10082504     LIBCMT:crtmboxw.obj
 0002:0001c51c       ??_C@_06IMKFLFPG@1?$CDQNAN?$AA@ 1008251c     LIBCMT:_x10fout_.obj
 0002:0001c524       ??_C@_05DNEBIAHO@1?$CDINF?$AA@ 10082524     LIBCMT:_x10fout_.obj
 0002:0001c52c       ??_C@_05PHHOCPM@1?$CDIND?$AA@ 1008252c     LIBCMT:_x10fout_.obj
 0002:0001c534       ??_C@_06PGGFOGJG@1?$CDSNAN?$AA@ 10082534     LIBCMT:_x10fout_.obj
 0002:0001c53c       ??_C@_1BA@BALFACEM@?$AAC?$AAO?$AAN?$AAO?$AAU?$AAT?$AA$?$AA?$AA@ 1008253c     LIBCMT:initcon.obj
 0002:0001c550       __load_config_used         10082550     LIBCMT:loadcfg.obj
 0002:0001c598       ??_R4CChumToadWeapon@@6B@  10082598     chumtoadweapon.obj
 0002:0001c5ac       ??_R3CChumToadWeapon@@8    100825ac     chumtoadweapon.obj
 0002:0001c5bc       ??_R2CChumToadWeapon@@8    100825bc     chumtoadweapon.obj
 0002:0001c5d8       ??_R1A@?0A@EA@CChumToadWeapon@@8 100825d8     chumtoadweapon.obj
 0002:0001c5f4       ??_R1A@?0A@EA@CBasePlayerWeapon@@8 100825f4     chumtoadweapon.obj
 0002:0001c610       ??_R3CBasePlayerWeapon@@8  10082610     chumtoadweapon.obj
 0002:0001c620       ??_R2CBasePlayerWeapon@@8  10082620     chumtoadweapon.obj
 0002:0001c638       ??_R1A@?0A@EA@CBasePlayerItem@@8 10082638     chumtoadweapon.obj
 0002:0001c654       ??_R3CBasePlayerItem@@8    10082654     chumtoadweapon.obj
 0002:0001c664       ??_R2CBasePlayerItem@@8    10082664     chumtoadweapon.obj
 0002:0001c678       ??_R1A@?0A@EA@CBaseAnimating@@8 10082678     chumtoadweapon.obj
 0002:0001c694       ??_R3CBaseAnimating@@8     10082694     chumtoadweapon.obj
 0002:0001c6a4       ??_R2CBaseAnimating@@8     100826a4     chumtoadweapon.obj
 0002:0001c6b4       ??_R1A@?0A@EA@CBaseDelay@@8 100826b4     chumtoadweapon.obj
 0002:0001c6d0       ??_R3CBaseDelay@@8         100826d0     chumtoadweapon.obj
 0002:0001c6e0       ??_R2CBaseDelay@@8         100826e0     chumtoadweapon.obj
 0002:0001c6ec       ??_R1A@?0A@EA@CBaseEntity@@8 100826ec     chumtoadweapon.obj
 0002:0001c708       ??_R3CBaseEntity@@8        10082708     chumtoadweapon.obj
 0002:0001c718       ??_R2CBaseEntity@@8        10082718     chumtoadweapon.obj
 0002:0001c720       ??_R4CGlock@@6B@           10082720     glock.obj
 0002:0001c734       ??_R3CGlock@@8             10082734     glock.obj
 0002:0001c744       ??_R2CGlock@@8             10082744     glock.obj
 0002:0001c760       ??_R1A@?0A@EA@CGlock@@8    10082760     glock.obj
 0002:0001c77c       ??_R3CBasePlayerAmmo@@8    1008277c     glock.obj
 0002:0001c78c       ??_R2CBasePlayerAmmo@@8    1008278c     glock.obj
 0002:0001c798       ??_R1A@?0A@EA@CBasePlayerAmmo@@8 10082798     glock.obj
 0002:0001c7b4       ??_R4CGlockAmmo@@6B@       100827b4     glock.obj
 0002:0001c7c8       ??_R3CGlockAmmo@@8         100827c8     glock.obj
 0002:0001c7d8       ??_R2CGlockAmmo@@8         100827d8     glock.obj
 0002:0001c7e8       ??_R1A@?0A@EA@CGlockAmmo@@8 100827e8     glock.obj
 0002:0001c804       ??_R4CHudBase@@6B@         10082804     ammo.obj
 0002:0001c818       ??_R3CHudBase@@8           10082818     ammo.obj
 0002:0001c828       ??_R2CHudBase@@8           10082828     ammo.obj
 0002:0001c830       ??_R1A@?0A@EA@CHudBase@@8  10082830     ammo.obj
 0002:0001c84c       ??_R4Scheme@vgui@@6B@      1008284c     ammo.obj
 0002:0001c860       ??_R3Scheme@vgui@@8        10082860     ammo.obj
 0002:0001c870       ??_R2Scheme@vgui@@8        10082870     ammo.obj
 0002:0001c878       ??_R1A@?0A@EA@Scheme@vgui@@8 10082878     ammo.obj
 0002:0001c894       ??_R4Color@vgui@@6B@       10082894     ammo.obj
 0002:0001c8a8       ??_R3Color@vgui@@8         100828a8     ammo.obj
 0002:0001c8b8       ??_R2Color@vgui@@8         100828b8     ammo.obj
 0002:0001c8c0       ??_R1A@?0A@EA@Color@vgui@@8 100828c0     ammo.obj
 0002:0001c8dc       ??_R4Panel@vgui@@6B@       100828dc     ammo.obj
 0002:0001c8f0       ??_R3Panel@vgui@@8         100828f0     ammo.obj
 0002:0001c900       ??_R2Panel@vgui@@8         10082900     ammo.obj
 0002:0001c908       ??_R1A@?0A@EA@Panel@vgui@@8 10082908     ammo.obj
 0002:0001c924       ??_R4Label@vgui@@6B@       10082924     ammo.obj
 0002:0001c938       ??_R3Label@vgui@@8         10082938     ammo.obj
 0002:0001c948       ??_R2Label@vgui@@8         10082948     ammo.obj
 0002:0001c954       ??_R1A@?0A@EA@Label@vgui@@8 10082954     ammo.obj
 0002:0001c970       ??_R4Image@vgui@@6B@       10082970     ammo.obj
 0002:0001c984       ??_R3Image@vgui@@8         10082984     ammo.obj
 0002:0001c994       ??_R2Image@vgui@@8         10082994     ammo.obj
 0002:0001c99c       ??_R1A@?0A@EA@Image@vgui@@8 1008299c     ammo.obj
 0002:0001c9b8       ??_R4Border@vgui@@6B@      100829b8     ammo.obj
 0002:0001c9cc       ??_R3Border@vgui@@8        100829cc     ammo.obj
 0002:0001c9dc       ??_R2Border@vgui@@8        100829dc     ammo.obj
 0002:0001c9e8       ??_R1A@?0A@EA@Border@vgui@@8 100829e8     ammo.obj
 0002:0001ca04       ??_R4LineBorder@vgui@@6B@  10082a04     ammo.obj
 0002:0001ca18       ??_R3LineBorder@vgui@@8    10082a18     ammo.obj
 0002:0001ca28       ??_R2LineBorder@vgui@@8    10082a28     ammo.obj
 0002:0001ca38       ??_R1A@?0A@EA@LineBorder@vgui@@8 10082a38     ammo.obj
 0002:0001ca54       ??_R4ImagePanel@vgui@@6B@  10082a54     ammo.obj
 0002:0001ca68       ??_R3ImagePanel@vgui@@8    10082a68     ammo.obj
 0002:0001ca78       ??_R2ImagePanel@vgui@@8    10082a78     ammo.obj
 0002:0001ca84       ??_R1A@?0A@EA@ImagePanel@vgui@@8 10082a84     ammo.obj
 0002:0001caa0       ??_R4Bitmap@vgui@@6B@      10082aa0     ammo.obj
 0002:0001cab4       ??_R3Bitmap@vgui@@8        10082ab4     ammo.obj
 0002:0001cac4       ??_R2Bitmap@vgui@@8        10082ac4     ammo.obj
 0002:0001cad0       ??_R1A@?0A@EA@Bitmap@vgui@@8 10082ad0     ammo.obj
 0002:0001caec       ??_R4BitmapTGA@vgui@@6B@   10082aec     ammo.obj
 0002:0001cb00       ??_R3BitmapTGA@vgui@@8     10082b00     ammo.obj
 0002:0001cb10       ??_R2BitmapTGA@vgui@@8     10082b10     ammo.obj
 0002:0001cb20       ??_R1A@?0A@EA@BitmapTGA@vgui@@8 10082b20     ammo.obj
 0002:0001cb3c       ??_R4InputSignal@vgui@@6B@ 10082b3c     ammo.obj
 0002:0001cb50       ??_R3InputSignal@vgui@@8   10082b50     ammo.obj
 0002:0001cb60       ??_R2InputSignal@vgui@@8   10082b60     ammo.obj
 0002:0001cb68       ??_R1A@?0A@EA@InputSignal@vgui@@8 10082b68     ammo.obj
 0002:0001cb84       ??_R4Button@vgui@@6B@      10082b84     ammo.obj
 0002:0001cb98       ??_R3Button@vgui@@8        10082b98     ammo.obj
 0002:0001cba8       ??_R2Button@vgui@@8        10082ba8     ammo.obj
 0002:0001cbb8       ??_R1A@?0A@EA@Button@vgui@@8 10082bb8     ammo.obj
 0002:0001cbd4       ??_R4Frame@vgui@@6B@       10082bd4     ammo.obj
 0002:0001cbe8       ??_R3Frame@vgui@@8         10082be8     ammo.obj
 0002:0001cbf8       ??_R2Frame@vgui@@8         10082bf8     ammo.obj
 0002:0001cc04       ??_R1A@?0A@EA@Frame@vgui@@8 10082c04     ammo.obj
 0002:0001cc20       ??_R4TextPanel@vgui@@6B@   10082c20     ammo.obj
 0002:0001cc34       ??_R3TextPanel@vgui@@8     10082c34     ammo.obj
 0002:0001cc44       ??_R2TextPanel@vgui@@8     10082c44     ammo.obj
 0002:0001cc50       ??_R1A@?0A@EA@TextPanel@vgui@@8 10082c50     ammo.obj
 0002:0001cc6c       ??_R4ActionSignal@vgui@@6B@ 10082c6c     ammo.obj
 0002:0001cc80       ??_R3ActionSignal@vgui@@8  10082c80     ammo.obj
 0002:0001cc90       ??_R2ActionSignal@vgui@@8  10082c90     ammo.obj
 0002:0001cc98       ??_R1A@?0A@EA@ActionSignal@vgui@@8 10082c98     ammo.obj
 0002:0001ccb4       ??_R4InputStream@vgui@@6B@ 10082cb4     ammo.obj
 0002:0001ccc8       ??_R3InputStream@vgui@@8   10082cc8     ammo.obj
 0002:0001ccd8       ??_R2InputStream@vgui@@8   10082cd8     ammo.obj
 0002:0001cce0       ??_R1A@?0A@EA@InputStream@vgui@@8 10082ce0     ammo.obj
 0002:0001ccfc       ??_R4FileInputStream@vgui@@6B@ 10082cfc     ammo.obj
 0002:0001cd10       ??_R3FileInputStream@vgui@@8 10082d10     ammo.obj
 0002:0001cd20       ??_R2FileInputStream@vgui@@8 10082d20     ammo.obj
 0002:0001cd2c       ??_R1A@?0A@EA@FileInputStream@vgui@@8 10082d2c     ammo.obj
 0002:0001cd48       ??_R4DesktopIcon@vgui@@6B@ 10082d48     ammo.obj
 0002:0001cd5c       ??_R3DesktopIcon@vgui@@8   10082d5c     ammo.obj
 0002:0001cd6c       ??_R2DesktopIcon@vgui@@8   10082d6c     ammo.obj
 0002:0001cd78       ??_R1A@?0A@EA@DesktopIcon@vgui@@8 10082d78     ammo.obj
 0002:0001cd94       ??_R4Cursor@vgui@@6B@      10082d94     ammo.obj
 0002:0001cda8       ??_R3Cursor@vgui@@8        10082da8     ammo.obj
 0002:0001cdb8       ??_R2Cursor@vgui@@8        10082db8     ammo.obj
 0002:0001cdc0       ??_R1A@?0A@EA@Cursor@vgui@@8 10082dc0     ammo.obj
 0002:0001cddc       ??_R4App@vgui@@6B@         10082ddc     ammo.obj
 0002:0001cdf0       ??_R3App@vgui@@8           10082df0     ammo.obj
 0002:0001ce00       ??_R2App@vgui@@8           10082e00     ammo.obj
 0002:0001ce08       ??_R1A@?0A@EA@App@vgui@@8  10082e08     ammo.obj
 0002:0001ce24       ??_R4MiniApp@vgui@@6B@     10082e24     ammo.obj
 0002:0001ce38       ??_R3MiniApp@vgui@@8       10082e38     ammo.obj
 0002:0001ce48       ??_R2MiniApp@vgui@@8       10082e48     ammo.obj
 0002:0001ce50       ??_R1A@?0A@EA@MiniApp@vgui@@8 10082e50     ammo.obj
 0002:0001ce6c       ??_R4ScrollPanel@vgui@@6B@ 10082e6c     ammo.obj
 0002:0001ce80       ??_R3ScrollPanel@vgui@@8   10082e80     ammo.obj
 0002:0001ce90       ??_R2ScrollPanel@vgui@@8   10082e90     ammo.obj
 0002:0001ce9c       ??_R1A@?0A@EA@ScrollPanel@vgui@@8 10082e9c     ammo.obj
 0002:0001ceb8       ??_R4ScrollBar@vgui@@6B@   10082eb8     ammo.obj
 0002:0001cecc       ??_R3ScrollBar@vgui@@8     10082ecc     ammo.obj
 0002:0001cedc       ??_R2ScrollBar@vgui@@8     10082edc     ammo.obj
 0002:0001cee8       ??_R1A@?0A@EA@ScrollBar@vgui@@8 10082ee8     ammo.obj
 0002:0001cf04       ??_R4Slider@vgui@@6B@      10082f04     ammo.obj
 0002:0001cf18       ??_R3Slider@vgui@@8        10082f18     ammo.obj
 0002:0001cf28       ??_R2Slider@vgui@@8        10082f28     ammo.obj
 0002:0001cf34       ??_R1A@?0A@EA@Slider@vgui@@8 10082f34     ammo.obj
 0002:0001cf50       ??_R4Font@vgui@@6B@        10082f50     ammo.obj
 0002:0001cf64       ??_R3Font@vgui@@8          10082f64     ammo.obj
 0002:0001cf74       ??_R2Font@vgui@@8          10082f74     ammo.obj
 0002:0001cf7c       ??_R1A@?0A@EA@Font@vgui@@8 10082f7c     ammo.obj
 0002:0001cf98       ??_R4CHudAmmo@@6B@         10082f98     ammo.obj
 0002:0001cfac       ??_R3CHudAmmo@@8           10082fac     ammo.obj
 0002:0001cfbc       ??_R2CHudAmmo@@8           10082fbc     ammo.obj
 0002:0001cfc8       ??_R1A@?0A@EA@CHudAmmo@@8  10082fc8     ammo.obj
 0002:0001cfe4       ??_R4CCustomMessage@@6B@   10082fe4     custom_message.obj
 0002:0001cff8       ??_R3CCustomMessage@@8     10082ff8     custom_message.obj
 0002:0001d008       ??_R2CCustomMessage@@8     10083008     custom_message.obj
 0002:0001d014       ??_R1A@?0A@EA@CCustomMessage@@8 10083014     custom_message.obj
 0002:0001d030       ??_R4CGameStudioModelRenderer@@6B@ 10083030     GameStudioModelRenderer.obj
 0002:0001d044       ??_R3CGameStudioModelRenderer@@8 10083044     GameStudioModelRenderer.obj
 0002:0001d054       ??_R2CGameStudioModelRenderer@@8 10083054     GameStudioModelRenderer.obj
 0002:0001d060       ??_R1A@?0A@EA@CGameStudioModelRenderer@@8 10083060     GameStudioModelRenderer.obj
 0002:0001d07c       ??_R1A@?0A@EA@CStudioModelRenderer@@8 1008307c     GameStudioModelRenderer.obj
 0002:0001d098       ??_R3CStudioModelRenderer@@8 10083098     GameStudioModelRenderer.obj
 0002:0001d0a8       ??_R2CStudioModelRenderer@@8 100830a8     GameStudioModelRenderer.obj
 0002:0001d0b0       ??_R4CHudHealth@@6B@       100830b0     health.obj
 0002:0001d0c4       ??_R3CHudHealth@@8         100830c4     health.obj
 0002:0001d0d4       ??_R2CHudHealth@@8         100830d4     health.obj
 0002:0001d0e0       ??_R1A@?0A@EA@CHudHealth@@8 100830e0     health.obj
 0002:0001d0fc       ??_R4IVoiceStatusHelper@@6B@ 100830fc     hud.obj
 0002:0001d110       ??_R3IVoiceStatusHelper@@8 10083110     hud.obj
 0002:0001d120       ??_R2IVoiceStatusHelper@@8 10083120     hud.obj
 0002:0001d128       ??_R1A@?0A@EA@IVoiceStatusHelper@@8 10083128     hud.obj
 0002:0001d144       ??_R4TablePanel@vgui@@6B@  10083144     hud.obj
 0002:0001d158       ??_R3TablePanel@vgui@@8    10083158     hud.obj
 0002:0001d168       ??_R2TablePanel@vgui@@8    10083168     hud.obj
 0002:0001d174       ??_R1A@?0A@EA@TablePanel@vgui@@8 10083174     hud.obj
 0002:0001d190       ??_R4HeaderPanel@vgui@@6B@ 10083190     hud.obj
 0002:0001d1a4       ??_R3HeaderPanel@vgui@@8   100831a4     hud.obj
 0002:0001d1b4       ??_R2HeaderPanel@vgui@@8   100831b4     hud.obj
 0002:0001d1c0       ??_R1A@?0A@EA@HeaderPanel@vgui@@8 100831c0     hud.obj
 0002:0001d1dc       ??_R4TextGrid@vgui@@6B@    100831dc     hud.obj
 0002:0001d1f0       ??_R3TextGrid@vgui@@8      100831f0     hud.obj
 0002:0001d200       ??_R2TextGrid@vgui@@8      10083200     hud.obj
 0002:0001d20c       ??_R1A@?0A@EA@TextGrid@vgui@@8 1008320c     hud.obj
 0002:0001d228       ??_R4TextImage@vgui@@6B@   10083228     hud.obj
 0002:0001d23c       ??_R3TextImage@vgui@@8     1008323c     hud.obj
 0002:0001d24c       ??_R2TextImage@vgui@@8     1008324c     hud.obj
 0002:0001d258       ??_R1A@?0A@EA@TextImage@vgui@@8 10083258     hud.obj
 0002:0001d274       ??_R4IntChangeSignal@vgui@@6B@ 10083274     hud.obj
 0002:0001d288       ??_R3IntChangeSignal@vgui@@8 10083288     hud.obj
 0002:0001d298       ??_R2IntChangeSignal@vgui@@8 10083298     hud.obj
 0002:0001d2a0       ??_R1A@?0A@EA@IntChangeSignal@vgui@@8 100832a0     hud.obj
 0002:0001d2bc       ??_R4Slider2@vgui@@6B@     100832bc     hud.obj
 0002:0001d2d0       ??_R3Slider2@vgui@@8       100832d0     hud.obj
 0002:0001d2e0       ??_R2Slider2@vgui@@8       100832e0     hud.obj
 0002:0001d2ec       ??_R1A@?0A@EA@Slider2@vgui@@8 100832ec     hud.obj
 0002:0001d308       ??_R4ScrollBar2@vgui@@6B@  10083308     hud.obj
 0002:0001d31c       ??_R3ScrollBar2@vgui@@8    1008331c     hud.obj
 0002:0001d32c       ??_R2ScrollBar2@vgui@@8    1008332c     hud.obj
 0002:0001d338       ??_R1A@?0A@EA@ScrollBar2@vgui@@8 10083338     hud.obj
 0002:0001d354       ??_R4CHLVoiceStatusHelper@@6B@ 10083354     hud.obj
 0002:0001d368       ??_R3CHLVoiceStatusHelper@@8 10083368     hud.obj
 0002:0001d378       ??_R2CHLVoiceStatusHelper@@8 10083378     hud.obj
 0002:0001d384       ??_R1A@?0A@EA@CHLVoiceStatusHelper@@8 10083384     hud.obj
 0002:0001d3a0       ??_R4CHudSpectator@@6B@    100833a0     hud.obj
 0002:0001d3b4       ??_R3CHudSpectator@@8      100833b4     hud.obj
 0002:0001d3c4       ??_R2CHudSpectator@@8      100833c4     hud.obj
 0002:0001d3d0       ??_R1A@?0A@EA@CHudSpectator@@8 100833d0     hud.obj
 0002:0001d3ec       ??_R4CHudGeiger@@6B@       100833ec     hud.obj
 0002:0001d400       ??_R3CHudGeiger@@8         10083400     hud.obj
 0002:0001d410       ??_R2CHudGeiger@@8         10083410     hud.obj
 0002:0001d41c       ??_R1A@?0A@EA@CHudGeiger@@8 1008341c     hud.obj
 0002:0001d438       ??_R4CHudBattery@@6B@      10083438     hud.obj
 0002:0001d44c       ??_R3CHudBattery@@8        1008344c     hud.obj
 0002:0001d45c       ??_R2CHudBattery@@8        1008345c     hud.obj
 0002:0001d468       ??_R1A@?0A@EA@CHudBattery@@8 10083468     hud.obj
 0002:0001d484       ??_R4CHudTrain@@6B@        10083484     hud.obj
 0002:0001d498       ??_R3CHudTrain@@8          10083498     hud.obj
 0002:0001d4a8       ??_R2CHudTrain@@8          100834a8     hud.obj
 0002:0001d4b4       ??_R1A@?0A@EA@CHudTrain@@8 100834b4     hud.obj
 0002:0001d4d0       ??_R4CHudFlashlight@@6B@   100834d0     hud.obj
 0002:0001d4e4       ??_R3CHudFlashlight@@8     100834e4     hud.obj
 0002:0001d4f4       ??_R2CHudFlashlight@@8     100834f4     hud.obj
 0002:0001d500       ??_R1A@?0A@EA@CHudFlashlight@@8 10083500     hud.obj
 0002:0001d51c       ??_R4CHudMessage@@6B@      1008351c     hud.obj
 0002:0001d530       ??_R3CHudMessage@@8        10083530     hud.obj
 0002:0001d540       ??_R2CHudMessage@@8        10083540     hud.obj
 0002:0001d54c       ??_R1A@?0A@EA@CHudMessage@@8 1008354c     hud.obj
 0002:0001d568       ??_R4CHudStatusBar@@6B@    10083568     hud.obj
 0002:0001d57c       ??_R3CHudStatusBar@@8      1008357c     hud.obj
 0002:0001d58c       ??_R2CHudStatusBar@@8      1008358c     hud.obj
 0002:0001d598       ??_R1A@?0A@EA@CHudStatusBar@@8 10083598     hud.obj
 0002:0001d5b4       ??_R4CHudDeathNotice@@6B@  100835b4     hud.obj
 0002:0001d5c8       ??_R3CHudDeathNotice@@8    100835c8     hud.obj
 0002:0001d5d8       ??_R2CHudDeathNotice@@8    100835d8     hud.obj
 0002:0001d5e4       ??_R1A@?0A@EA@CHudDeathNotice@@8 100835e4     hud.obj
 0002:0001d600       ??_R4CHudSayText@@6B@      10083600     hud.obj
 0002:0001d614       ??_R3CHudSayText@@8        10083614     hud.obj
 0002:0001d624       ??_R2CHudSayText@@8        10083624     hud.obj
 0002:0001d630       ??_R1A@?0A@EA@CHudSayText@@8 10083630     hud.obj
 0002:0001d64c       ??_R4CHudMenu@@6B@         1008364c     hud.obj
 0002:0001d660       ??_R3CHudMenu@@8           10083660     hud.obj
 0002:0001d670       ??_R2CHudMenu@@8           10083670     hud.obj
 0002:0001d67c       ??_R1A@?0A@EA@CHudMenu@@8  1008367c     hud.obj
 0002:0001d698       ??_R4CHudAmmoSecondary@@6B@ 10083698     hud.obj
 0002:0001d6ac       ??_R3CHudAmmoSecondary@@8  100836ac     hud.obj
 0002:0001d6bc       ??_R2CHudAmmoSecondary@@8  100836bc     hud.obj
 0002:0001d6c8       ??_R1A@?0A@EA@CHudAmmoSecondary@@8 100836c8     hud.obj
 0002:0001d6e4       ??_R4CHudTextMessage@@6B@  100836e4     hud.obj
 0002:0001d6f8       ??_R3CHudTextMessage@@8    100836f8     hud.obj
 0002:0001d708       ??_R2CHudTextMessage@@8    10083708     hud.obj
 0002:0001d714       ??_R1A@?0A@EA@CHudTextMessage@@8 10083714     hud.obj
 0002:0001d730       ??_R4CHudStatusIcons@@6B@  10083730     hud.obj
 0002:0001d744       ??_R3CHudStatusIcons@@8    10083744     hud.obj
 0002:0001d754       ??_R2CHudStatusIcons@@8    10083754     hud.obj
 0002:0001d760       ??_R1A@?0A@EA@CHudStatusIcons@@8 10083760     hud.obj
 0002:0001d77c       ??_R4CStudioModelRenderer@@6B@ 1008377c     StudioModelRenderer.obj
 0002:0001d790       ??_R4CDefaultInputSignal@vgui@@6B@ 10083790     vgui_checkbutton2.obj
 0002:0001d7a4       ??_R3CDefaultInputSignal@vgui@@8 100837a4     vgui_checkbutton2.obj
 0002:0001d7b4       ??_R2CDefaultInputSignal@vgui@@8 100837b4     vgui_checkbutton2.obj
 0002:0001d7c0       ??_R1A@?0A@EA@CDefaultInputSignal@vgui@@8 100837c0     vgui_checkbutton2.obj
 0002:0001d7dc       ??_R1LM@?0A@EA@CDefaultInputSignal@vgui@@8 100837dc     vgui_checkbutton2.obj
 0002:0001d7f8       ??_R1LM@?0A@EA@InputSignal@vgui@@8 100837f8     vgui_checkbutton2.obj
 0002:0001d814       ??_R4CMenuHandler_StringCommand@@6B@ 10083814     vgui_ClassMenu.obj
 0002:0001d828       ??_R3CMenuHandler_StringCommand@@8 10083828     vgui_ClassMenu.obj
 0002:0001d838       ??_R2CMenuHandler_StringCommand@@8 10083838     vgui_ClassMenu.obj
 0002:0001d844       ??_R1A@?0A@EA@CMenuHandler_StringCommand@@8 10083844     vgui_ClassMenu.obj
 0002:0001d860       ??_R4CMenuHandler_StringCommandClassSelect@@6B@ 10083860     vgui_ClassMenu.obj
 0002:0001d874       ??_R3CMenuHandler_StringCommandClassSelect@@8 10083874     vgui_ClassMenu.obj
 0002:0001d884       ??_R2CMenuHandler_StringCommandClassSelect@@8 10083884     vgui_ClassMenu.obj
 0002:0001d894       ??_R1A@?0A@EA@CMenuHandler_StringCommandClassSelect@@8 10083894     vgui_ClassMenu.obj
 0002:0001d8b0       ??_R4CMenuHandler_TextWindow@@6B@ 100838b0     vgui_ClassMenu.obj
 0002:0001d8c4       ??_R3CMenuHandler_TextWindow@@8 100838c4     vgui_ClassMenu.obj
 0002:0001d8d4       ??_R2CMenuHandler_TextWindow@@8 100838d4     vgui_ClassMenu.obj
 0002:0001d8e0       ??_R1A@?0A@EA@CMenuHandler_TextWindow@@8 100838e0     vgui_ClassMenu.obj
 0002:0001d8fc       ??_R4CHandler_MenuButtonOver@@6B@ 100838fc     vgui_ClassMenu.obj
 0002:0001d910       ??_R3CHandler_MenuButtonOver@@8 10083910     vgui_ClassMenu.obj
 0002:0001d920       ??_R2CHandler_MenuButtonOver@@8 10083920     vgui_ClassMenu.obj
 0002:0001d92c       ??_R1A@?0A@EA@CHandler_MenuButtonOver@@8 1008392c     vgui_ClassMenu.obj
 0002:0001d948       ??_R4ClassButton@@6B@      10083948     vgui_ClassMenu.obj
 0002:0001d95c       ??_R3ClassButton@@8        1008395c     vgui_ClassMenu.obj
 0002:0001d96c       ??_R2ClassButton@@8        1008396c     vgui_ClassMenu.obj
 0002:0001d984       ??_R1A@?0A@EA@ClassButton@@8 10083984     vgui_ClassMenu.obj
 0002:0001d9a0       ??_R1A@?0A@EA@CommandButton@@8 100839a0     vgui_ClassMenu.obj
 0002:0001d9bc       ??_R3CommandButton@@8      100839bc     vgui_ClassMenu.obj
 0002:0001d9cc       ??_R2CommandButton@@8      100839cc     vgui_ClassMenu.obj
 0002:0001d9e0       ??_R4CTransparentPanel@@6B@ 100839e0     vgui_ClassMenu.obj
 0002:0001d9f4       ??_R3CTransparentPanel@@8  100839f4     vgui_ClassMenu.obj
 0002:0001da04       ??_R2CTransparentPanel@@8  10083a04     vgui_ClassMenu.obj
 0002:0001da10       ??_R1A@?0A@EA@CTransparentPanel@@8 10083a10     vgui_ClassMenu.obj
 0002:0001da2c       ??_R3CMenuPanel@@8         10083a2c     vgui_ClassMenu.obj
 0002:0001da3c       ??_R2CMenuPanel@@8         10083a3c     vgui_ClassMenu.obj
 0002:0001da4c       ??_R1A@?0A@EA@CMenuPanel@@8 10083a4c     vgui_ClassMenu.obj
 0002:0001da68       ??_R4CClassMenuPanel@@6B@  10083a68     vgui_ClassMenu.obj
 0002:0001da7c       ??_R3CClassMenuPanel@@8    10083a7c     vgui_ClassMenu.obj
 0002:0001da8c       ??_R2CClassMenuPanel@@8    10083a8c     vgui_ClassMenu.obj
 0002:0001daa0       ??_R1A@?0A@EA@CClassMenuPanel@@8 10083aa0     vgui_ClassMenu.obj
 0002:0001dabc       ??_R4TextEntry@vgui@@6BPanel@1@@ 10083abc     vgui_ConsolePanel.obj
 0002:0001dad0       ??_R3TextEntry@vgui@@8     10083ad0     vgui_ConsolePanel.obj
 0002:0001dae0       ??_R2TextEntry@vgui@@8     10083ae0     vgui_ConsolePanel.obj
 0002:0001daf0       ??_R1A@?0A@EA@TextEntry@vgui@@8 10083af0     vgui_ConsolePanel.obj
 0002:0001db0c       ??_R4TextEntry@vgui@@6BInputSignal@1@@ 10083b0c     vgui_ConsolePanel.obj
 0002:0001db20       ??_R4EtchedBorder@vgui@@6B@ 10083b20     vgui_ConsolePanel.obj
 0002:0001db34       ??_R3EtchedBorder@vgui@@8  10083b34     vgui_ConsolePanel.obj
 0002:0001db44       ??_R2EtchedBorder@vgui@@8  10083b44     vgui_ConsolePanel.obj
 0002:0001db54       ??_R1A@?0A@EA@EtchedBorder@vgui@@8 10083b54     vgui_ConsolePanel.obj
 0002:0001db70       ??_R4LoweredBorder@vgui@@6B@ 10083b70     vgui_ConsolePanel.obj
 0002:0001db84       ??_R3LoweredBorder@vgui@@8 10083b84     vgui_ConsolePanel.obj
 0002:0001db94       ??_R2LoweredBorder@vgui@@8 10083b94     vgui_ConsolePanel.obj
 0002:0001dba4       ??_R1A@?0A@EA@LoweredBorder@vgui@@8 10083ba4     vgui_ConsolePanel.obj
 0002:0001dbc0       ??_R4DataInputStream@vgui@@6B01@@ 10083bc0     vgui_ControlConfigPanel.obj
 0002:0001dbd4       ??_R3DataInputStream@vgui@@8 10083bd4     vgui_ControlConfigPanel.obj
 0002:0001dbe4       ??_R2DataInputStream@vgui@@8 10083be4     vgui_ControlConfigPanel.obj
 0002:0001dbf0       ??_R1A@?0A@EA@DataInputStream@vgui@@8 10083bf0     vgui_ControlConfigPanel.obj
 0002:0001dc0c       ??_R1A@33FA@InputStream@vgui@@8 10083c0c     vgui_ControlConfigPanel.obj
 0002:0001dc28       ??_R4DataInputStream@vgui@@6BInputStream@1@@ 10083c28     vgui_ControlConfigPanel.obj
 0002:0001dc3c       ??_R3CHandler_ButtonHighlight@@8 10083c3c     vgui_CustomObjects.obj
 0002:0001dc4c       ??_R2CHandler_ButtonHighlight@@8 10083c4c     vgui_CustomObjects.obj
 0002:0001dc58       ??_R1A@?0A@EA@CHandler_ButtonHighlight@@8 10083c58     vgui_CustomObjects.obj
 0002:0001dc74       ??_R4CHandler_CommandButtonHighlight@@6B@ 10083c74     vgui_CustomObjects.obj
 0002:0001dc88       ??_R3CHandler_CommandButtonHighlight@@8 10083c88     vgui_CustomObjects.obj
 0002:0001dc98       ??_R2CHandler_CommandButtonHighlight@@8 10083c98     vgui_CustomObjects.obj
 0002:0001dca8       ??_R1A@?0A@EA@CHandler_CommandButtonHighlight@@8 10083ca8     vgui_CustomObjects.obj
 0002:0001dcc4       ??_R4CTFSlider@@6B@        10083cc4     vgui_CustomObjects.obj
 0002:0001dcd8       ??_R3CTFSlider@@8          10083cd8     vgui_CustomObjects.obj
 0002:0001dce8       ??_R2CTFSlider@@8          10083ce8     vgui_CustomObjects.obj
 0002:0001dcf8       ??_R1A@?0A@EA@CTFSlider@@8 10083cf8     vgui_CustomObjects.obj
 0002:0001dd14       ??_R4CImageLabel@@6B@      10083d14     vgui_CustomObjects.obj
 0002:0001dd28       ??_R3CImageLabel@@8        10083d28     vgui_CustomObjects.obj
 0002:0001dd38       ??_R2CImageLabel@@8        10083d38     vgui_CustomObjects.obj
 0002:0001dd48       ??_R1A@?0A@EA@CImageLabel@@8 10083d48     vgui_CustomObjects.obj
 0002:0001dd64       ??_R4CommandButton@@6B@    10083d64     vgui_CustomObjects.obj
 0002:0001dd78       ??_R4CTFScrollButton@@6B@  10083d78     vgui_CustomObjects.obj
 0002:0001dd8c       ??_R3CTFScrollButton@@8    10083d8c     vgui_CustomObjects.obj
 0002:0001dd9c       ??_R2CTFScrollButton@@8    10083d9c     vgui_CustomObjects.obj
 0002:0001ddb4       ??_R1A@?0A@EA@CTFScrollButton@@8 10083db4     vgui_CustomObjects.obj
 0002:0001ddd0       ??_R4CTFScrollPanel@@6B@   10083dd0     vgui_CustomObjects.obj
 0002:0001dde4       ??_R3CTFScrollPanel@@8     10083de4     vgui_CustomObjects.obj
 0002:0001ddf4       ??_R2CTFScrollPanel@@8     10083df4     vgui_CustomObjects.obj
 0002:0001de04       ??_R1A@?0A@EA@CTFScrollPanel@@8 10083e04     vgui_CustomObjects.obj
 0002:0001de20       ??_R4CGrid@vgui@@6B@       10083e20     vgui_grid.obj
 0002:0001de34       ??_R3CGrid@vgui@@8         10083e34     vgui_grid.obj
 0002:0001de44       ??_R2CGrid@vgui@@8         10083e44     vgui_grid.obj
 0002:0001de50       ??_R1A@?0A@EA@CGrid@vgui@@8 10083e50     vgui_grid.obj
 0002:0001de6c       ??_R4Layout@vgui@@6B@      10083e6c     vgui_int.obj
 0002:0001de80       ??_R3Layout@vgui@@8        10083e80     vgui_int.obj
 0002:0001de90       ??_R2Layout@vgui@@8        10083e90     vgui_int.obj
 0002:0001de98       ??_R1A@?0A@EA@Layout@vgui@@8 10083e98     vgui_int.obj
 0002:0001deb4       ??_R4BorderLayout@vgui@@6B@ 10083eb4     vgui_int.obj
 0002:0001dec8       ??_R3BorderLayout@vgui@@8  10083ec8     vgui_int.obj
 0002:0001ded8       ??_R2BorderLayout@vgui@@8  10083ed8     vgui_int.obj
 0002:0001dee4       ??_R1A@?0A@EA@BorderLayout@vgui@@8 10083ee4     vgui_int.obj
 0002:0001df00       ??_R4SurfaceBase@vgui@@6B@ 10083f00     vgui_int.obj
 0002:0001df14       ??_R3SurfaceBase@vgui@@8   10083f14     vgui_int.obj
 0002:0001df24       ??_R2SurfaceBase@vgui@@8   10083f24     vgui_int.obj
 0002:0001df2c       ??_R1A@?0A@EA@SurfaceBase@vgui@@8 10083f2c     vgui_int.obj
 0002:0001df48       ??_R4ListBoxSignal@CListBox@vgui@@6B@ 10083f48     vgui_listbox.obj
 0002:0001df5c       ??_R3ListBoxSignal@CListBox@vgui@@8 10083f5c     vgui_listbox.obj
 0002:0001df6c       ??_R2ListBoxSignal@CListBox@vgui@@8 10083f6c     vgui_listbox.obj
 0002:0001df78       ??_R1A@?0A@EA@ListBoxSignal@CListBox@vgui@@8 10083f78     vgui_listbox.obj
 0002:0001df94       ??_R4CListBox@vgui@@6B@    10083f94     vgui_listbox.obj
 0002:0001dfa8       ??_R3CListBox@vgui@@8      10083fa8     vgui_listbox.obj
 0002:0001dfb8       ??_R2CListBox@vgui@@8      10083fb8     vgui_listbox.obj
 0002:0001dfc4       ??_R1A@?0A@EA@CListBox@vgui@@8 10083fc4     vgui_listbox.obj
 0002:0001dfe0       ??_R4MemoryInputStream@@6B@ 10083fe0     vgui_loadtga.obj
 0002:0001dff4       ??_R3MemoryInputStream@@8  10083ff4     vgui_loadtga.obj
 0002:0001e004       ??_R2MemoryInputStream@@8  10084004     vgui_loadtga.obj
 0002:0001e010       ??_R1A@?0A@EA@MemoryInputStream@@8 10084010     vgui_loadtga.obj
 0002:0001e02c       ??_R4StackLayout@vgui@@6B@ 1008402c     vgui_MOTDWindow.obj
 0002:0001e040       ??_R3StackLayout@vgui@@8   10084040     vgui_MOTDWindow.obj
 0002:0001e050       ??_R2StackLayout@vgui@@8   10084050     vgui_MOTDWindow.obj
 0002:0001e05c       ??_R1A@?0A@EA@StackLayout@vgui@@8 1008405c     vgui_MOTDWindow.obj
 0002:0001e078       ??_R4CMessageWindowPanel@@6B@ 10084078     vgui_MOTDWindow.obj
 0002:0001e08c       ??_R3CMessageWindowPanel@@8 1008408c     vgui_MOTDWindow.obj
 0002:0001e09c       ??_R2CMessageWindowPanel@@8 1008409c     vgui_MOTDWindow.obj
 0002:0001e0b0       ??_R1A@?0A@EA@CMessageWindowPanel@@8 100840b0     vgui_MOTDWindow.obj
 0002:0001e0cc       ??_R4CSchemeManager@@6B@   100840cc     vgui_SchemeManager.obj
 0002:0001e0e0       ??_R3CSchemeManager@@8     100840e0     vgui_SchemeManager.obj
 0002:0001e0f0       ??_R2CSchemeManager@@8     100840f0     vgui_SchemeManager.obj
 0002:0001e0f8       ??_R1A@?0A@EA@CSchemeManager@@8 100840f8     vgui_SchemeManager.obj
 0002:0001e114       ??_R4CMenuHandler_StringCommandWatch@@6B@ 10084114     vgui_ScorePanel.obj
 0002:0001e128       ??_R3CMenuHandler_StringCommandWatch@@8 10084128     vgui_ScorePanel.obj
 0002:0001e138       ??_R2CMenuHandler_StringCommandWatch@@8 10084138     vgui_ScorePanel.obj
 0002:0001e148       ??_R1A@?0A@EA@CMenuHandler_StringCommandWatch@@8 10084148     vgui_ScorePanel.obj
 0002:0001e164       ??_R4CTextImage2@@6B@      10084164     vgui_ScorePanel.obj
 0002:0001e178       ??_R3CTextImage2@@8        10084178     vgui_ScorePanel.obj
 0002:0001e188       ??_R2CTextImage2@@8        10084188     vgui_ScorePanel.obj
 0002:0001e194       ??_R1A@?0A@EA@CTextImage2@@8 10084194     vgui_ScorePanel.obj
 0002:0001e1b0       ??_R4CLabelHeader@@6B@     100841b0     vgui_ScorePanel.obj
 0002:0001e1c4       ??_R3CLabelHeader@@8       100841c4     vgui_ScorePanel.obj
 0002:0001e1d4       ??_R2CLabelHeader@@8       100841d4     vgui_ScorePanel.obj
 0002:0001e1e4       ??_R1A@?0A@EA@CLabelHeader@@8 100841e4     vgui_ScorePanel.obj
 0002:0001e200       ??_R4HitTestPanel@ScorePanel@@6B@ 10084200     vgui_ScorePanel.obj
 0002:0001e214       ??_R3HitTestPanel@ScorePanel@@8 10084214     vgui_ScorePanel.obj
 0002:0001e224       ??_R2HitTestPanel@ScorePanel@@8 10084224     vgui_ScorePanel.obj
 0002:0001e230       ??_R1A@?0A@EA@HitTestPanel@ScorePanel@@8 10084230     vgui_ScorePanel.obj
 0002:0001e24c       ??_R4ScorePanel@@6BPanel@vgui@@@ 1008424c     vgui_ScorePanel.obj
 0002:0001e260       ??_R3ScorePanel@@8         10084260     vgui_ScorePanel.obj
 0002:0001e270       ??_R2ScorePanel@@8         10084270     vgui_ScorePanel.obj
 0002:0001e284       ??_R1A@?0A@EA@ScorePanel@@8 10084284     vgui_ScorePanel.obj
 0002:0001e2a0       ??_R4ScorePanel@@6BCDefaultInputSignal@vgui@@@ 100842a0     vgui_ScorePanel.obj
 0002:0001e2b4       ??_R4CBrowser_InputSignal@?A0x5998a8a3@@6B@ 100842b4     vgui_ServerBrowser.obj
 0002:0001e2c8       ??_R3CBrowser_InputSignal@?A0x5998a8a3@@8 100842c8     vgui_ServerBrowser.obj
 0002:0001e2d8       ??_R2CBrowser_InputSignal@?A0x5998a8a3@@8 100842d8     vgui_ServerBrowser.obj
 0002:0001e2e4       ??_R1A@?0A@EA@CBrowser_InputSignal@?A0x5998a8a3@@8 100842e4     vgui_ServerBrowser.obj
 0002:0001e300       ??_R4ServerBrowserTablePanel@?A0x5998a8a3@@6B@ 10084300     vgui_ServerBrowser.obj
 0002:0001e314       ??_R3ServerBrowserTablePanel@?A0x5998a8a3@@8 10084314     vgui_ServerBrowser.obj
 0002:0001e324       ??_R2ServerBrowserTablePanel@?A0x5998a8a3@@8 10084324     vgui_ServerBrowser.obj
 0002:0001e334       ??_R1A@?0A@EA@ServerBrowserTablePanel@?A0x5998a8a3@@8 10084334     vgui_ServerBrowser.obj
 0002:0001e350       ??_R4ConnectHandler@?A0x5998a8a3@@6B@ 10084350     vgui_ServerBrowser.obj
 0002:0001e364       ??_R3ConnectHandler@?A0x5998a8a3@@8 10084364     vgui_ServerBrowser.obj
 0002:0001e374       ??_R2ConnectHandler@?A0x5998a8a3@@8 10084374     vgui_ServerBrowser.obj
 0002:0001e380       ??_R1A@?0A@EA@ConnectHandler@?A0x5998a8a3@@8 10084380     vgui_ServerBrowser.obj
 0002:0001e39c       ??_R4RefreshHandler@?A0x5998a8a3@@6B@ 1008439c     vgui_ServerBrowser.obj
 0002:0001e3b0       ??_R3RefreshHandler@?A0x5998a8a3@@8 100843b0     vgui_ServerBrowser.obj
 0002:0001e3c0       ??_R2RefreshHandler@?A0x5998a8a3@@8 100843c0     vgui_ServerBrowser.obj
 0002:0001e3cc       ??_R1A@?0A@EA@RefreshHandler@?A0x5998a8a3@@8 100843cc     vgui_ServerBrowser.obj
 0002:0001e3e8       ??_R4StopHandler@?A0x5998a8a3@@6B@ 100843e8     vgui_ServerBrowser.obj
 0002:0001e3fc       ??_R3StopHandler@?A0x5998a8a3@@8 100843fc     vgui_ServerBrowser.obj
 0002:0001e40c       ??_R2StopHandler@?A0x5998a8a3@@8 1008440c     vgui_ServerBrowser.obj
 0002:0001e418       ??_R1A@?0A@EA@StopHandler@?A0x5998a8a3@@8 10084418     vgui_ServerBrowser.obj
 0002:0001e434       ??_R4CancelHandler@?A0x5998a8a3@@6B@ 10084434     vgui_ServerBrowser.obj
 0002:0001e448       ??_R3CancelHandler@?A0x5998a8a3@@8 10084448     vgui_ServerBrowser.obj
 0002:0001e458       ??_R2CancelHandler@?A0x5998a8a3@@8 10084458     vgui_ServerBrowser.obj
 0002:0001e464       ??_R1A@?0A@EA@CancelHandler@?A0x5998a8a3@@8 10084464     vgui_ServerBrowser.obj
 0002:0001e480       ??_R4LabelSortInputHandler@@6B@ 10084480     vgui_ServerBrowser.obj
 0002:0001e494       ??_R3LabelSortInputHandler@@8 10084494     vgui_ServerBrowser.obj
 0002:0001e4a4       ??_R2LabelSortInputHandler@@8 100844a4     vgui_ServerBrowser.obj
 0002:0001e4b0       ??_R1A@?0A@EA@LabelSortInputHandler@@8 100844b0     vgui_ServerBrowser.obj
 0002:0001e4cc       ??_R4CSBLabel@@6B@         100844cc     vgui_ServerBrowser.obj
 0002:0001e4e0       ??_R3CSBLabel@@8           100844e0     vgui_ServerBrowser.obj
 0002:0001e4f0       ??_R2CSBLabel@@8           100844f0     vgui_ServerBrowser.obj
 0002:0001e500       ??_R1A@?0A@EA@CSBLabel@@8  10084500     vgui_ServerBrowser.obj
 0002:0001e51c       ??_R4ServerBrowser@@6B@    1008451c     vgui_ServerBrowser.obj
 0002:0001e530       ??_R3ServerBrowser@@8      10084530     vgui_ServerBrowser.obj
 0002:0001e540       ??_R2ServerBrowser@@8      10084540     vgui_ServerBrowser.obj
 0002:0001e550       ??_R1A@?0A@EA@ServerBrowser@@8 10084550     vgui_ServerBrowser.obj
 0002:0001e56c       ??_R4ColorButton@@6B@      1008456c     vgui_SpectatorPanel.obj
 0002:0001e580       ??_R3ColorButton@@8        10084580     vgui_SpectatorPanel.obj
 0002:0001e590       ??_R2ColorButton@@8        10084590     vgui_SpectatorPanel.obj
 0002:0001e5a8       ??_R1A@?0A@EA@ColorButton@@8 100845a8     vgui_SpectatorPanel.obj
 0002:0001e5c4       ??_R4CSpectatorHandler_Command@@6B@ 100845c4     vgui_SpectatorPanel.obj
 0002:0001e5d8       ??_R3CSpectatorHandler_Command@@8 100845d8     vgui_SpectatorPanel.obj
 0002:0001e5e8       ??_R2CSpectatorHandler_Command@@8 100845e8     vgui_SpectatorPanel.obj
 0002:0001e5f4       ??_R1A@?0A@EA@CSpectatorHandler_Command@@8 100845f4     vgui_SpectatorPanel.obj
 0002:0001e610       ??_R4SpectatorPanel@@6B@   10084610     vgui_SpectatorPanel.obj
 0002:0001e624       ??_R3SpectatorPanel@@8     10084624     vgui_SpectatorPanel.obj
 0002:0001e634       ??_R2SpectatorPanel@@8     10084634     vgui_SpectatorPanel.obj
 0002:0001e640       ??_R1A@?0A@EA@SpectatorPanel@@8 10084640     vgui_SpectatorPanel.obj
 0002:0001e65c       ??_R4Surface@vgui@@6B@     1008465c     vgui_TeamFortressViewport.obj
 0002:0001e670       ??_R3Surface@vgui@@8       10084670     vgui_TeamFortressViewport.obj
 0002:0001e680       ??_R2Surface@vgui@@8       10084680     vgui_TeamFortressViewport.obj
 0002:0001e68c       ??_R1A@?0A@EA@Surface@vgui@@8 1008468c     vgui_TeamFortressViewport.obj
 0002:0001e6a8       ??_R4MenuSeparator@vgui@@6B@ 100846a8     vgui_TeamFortressViewport.obj
 0002:0001e6bc       ??_R3MenuSeparator@vgui@@8 100846bc     vgui_TeamFortressViewport.obj
 0002:0001e6cc       ??_R2MenuSeparator@vgui@@8 100846cc     vgui_TeamFortressViewport.obj
 0002:0001e6dc       ??_R1A@?0A@EA@MenuSeparator@vgui@@8 100846dc     vgui_TeamFortressViewport.obj
 0002:0001e6f8       ??_R4BuildGroup@vgui@@6B@  100846f8     vgui_TeamFortressViewport.obj
 0002:0001e70c       ??_R3BuildGroup@vgui@@8    1008470c     vgui_TeamFortressViewport.obj
 0002:0001e71c       ??_R2BuildGroup@vgui@@8    1008471c     vgui_TeamFortressViewport.obj
 0002:0001e724       ??_R1A@?0A@EA@BuildGroup@vgui@@8 10084724     vgui_TeamFortressViewport.obj
 0002:0001e740       ??_R4SpectButton@@6B@      10084740     vgui_TeamFortressViewport.obj
 0002:0001e754       ??_R3SpectButton@@8        10084754     vgui_TeamFortressViewport.obj
 0002:0001e764       ??_R2SpectButton@@8        10084764     vgui_TeamFortressViewport.obj
 0002:0001e77c       ??_R1A@?0A@EA@SpectButton@@8 1008477c     vgui_TeamFortressViewport.obj
 0002:0001e798       ??_R4CCommandMenu@@6B@     10084798     vgui_TeamFortressViewport.obj
 0002:0001e7ac       ??_R3CCommandMenu@@8       100847ac     vgui_TeamFortressViewport.obj
 0002:0001e7bc       ??_R2CCommandMenu@@8       100847bc     vgui_TeamFortressViewport.obj
 0002:0001e7c8       ??_R1A@?0A@EA@CCommandMenu@@8 100847c8     vgui_TeamFortressViewport.obj
 0002:0001e7e4       ??_R4CMenuHandler_PopupSubMenuInput@@6B@ 100847e4     vgui_TeamFortressViewport.obj
 0002:0001e7f8       ??_R3CMenuHandler_PopupSubMenuInput@@8 100847f8     vgui_TeamFortressViewport.obj
 0002:0001e808       ??_R2CMenuHandler_PopupSubMenuInput@@8 10084808     vgui_TeamFortressViewport.obj
 0002:0001e814       ??_R1A@?0A@EA@CMenuHandler_PopupSubMenuInput@@8 10084814     vgui_TeamFortressViewport.obj
 0002:0001e830       ??_R4CMenuHandler_ToggleCvar@@6B@ 10084830     vgui_TeamFortressViewport.obj
 0002:0001e844       ??_R3CMenuHandler_ToggleCvar@@8 10084844     vgui_TeamFortressViewport.obj
 0002:0001e854       ??_R2CMenuHandler_ToggleCvar@@8 10084854     vgui_TeamFortressViewport.obj
 0002:0001e860       ??_R1A@?0A@EA@CMenuHandler_ToggleCvar@@8 10084860     vgui_TeamFortressViewport.obj
 0002:0001e87c       ??_R4TeamButton@@6B@       1008487c     vgui_TeamFortressViewport.obj
 0002:0001e890       ??_R3TeamButton@@8         10084890     vgui_TeamFortressViewport.obj
 0002:0001e8a0       ??_R2TeamButton@@8         100848a0     vgui_TeamFortressViewport.obj
 0002:0001e8b8       ??_R1A@?0A@EA@TeamButton@@8 100848b8     vgui_TeamFortressViewport.obj
 0002:0001e8d4       ??_R4FeignButton@@6B@      100848d4     vgui_TeamFortressViewport.obj
 0002:0001e8e8       ??_R3FeignButton@@8        100848e8     vgui_TeamFortressViewport.obj
 0002:0001e8f8       ??_R2FeignButton@@8        100848f8     vgui_TeamFortressViewport.obj
 0002:0001e910       ??_R1A@?0A@EA@FeignButton@@8 10084910     vgui_TeamFortressViewport.obj
 0002:0001e92c       ??_R4SpectateButton@@6B@   1008492c     vgui_TeamFortressViewport.obj
 0002:0001e940       ??_R3SpectateButton@@8     10084940     vgui_TeamFortressViewport.obj
 0002:0001e950       ??_R2SpectateButton@@8     10084950     vgui_TeamFortressViewport.obj
 0002:0001e968       ??_R1A@?0A@EA@SpectateButton@@8 10084968     vgui_TeamFortressViewport.obj
 0002:0001e984       ??_R4DisguiseButton@@6B@   10084984     vgui_TeamFortressViewport.obj
 0002:0001e998       ??_R3DisguiseButton@@8     10084998     vgui_TeamFortressViewport.obj
 0002:0001e9a8       ??_R2DisguiseButton@@8     100849a8     vgui_TeamFortressViewport.obj
 0002:0001e9c0       ??_R1A@?0A@EA@DisguiseButton@@8 100849c0     vgui_TeamFortressViewport.obj
 0002:0001e9dc       ??_R4DetpackButton@@6B@    100849dc     vgui_TeamFortressViewport.obj
 0002:0001e9f0       ??_R3DetpackButton@@8      100849f0     vgui_TeamFortressViewport.obj
 0002:0001ea00       ??_R2DetpackButton@@8      10084a00     vgui_TeamFortressViewport.obj
 0002:0001ea18       ??_R1A@?0A@EA@DetpackButton@@8 10084a18     vgui_TeamFortressViewport.obj
 0002:0001ea34       ??_R4BuildButton@@6B@      10084a34     vgui_TeamFortressViewport.obj
 0002:0001ea48       ??_R3BuildButton@@8        10084a48     vgui_TeamFortressViewport.obj
 0002:0001ea58       ??_R2BuildButton@@8        10084a58     vgui_TeamFortressViewport.obj
 0002:0001ea70       ??_R1A@?0A@EA@BuildButton@@8 10084a70     vgui_TeamFortressViewport.obj
 0002:0001ea8c       ??_R4MapButton@@6B@        10084a8c     vgui_TeamFortressViewport.obj
 0002:0001eaa0       ??_R3MapButton@@8          10084aa0     vgui_TeamFortressViewport.obj
 0002:0001eab0       ??_R2MapButton@@8          10084ab0     vgui_TeamFortressViewport.obj
 0002:0001eac8       ??_R1A@?0A@EA@MapButton@@8 10084ac8     vgui_TeamFortressViewport.obj
 0002:0001eae4       ??_R4TeamOnlyCommandButton@@6B@ 10084ae4     vgui_TeamFortressViewport.obj
 0002:0001eaf8       ??_R3TeamOnlyCommandButton@@8 10084af8     vgui_TeamFortressViewport.obj
 0002:0001eb08       ??_R2TeamOnlyCommandButton@@8 10084b08     vgui_TeamFortressViewport.obj
 0002:0001eb20       ??_R1A@?0A@EA@TeamOnlyCommandButton@@8 10084b20     vgui_TeamFortressViewport.obj
 0002:0001eb3c       ??_R4ToggleCommandButton@@6BCommandButton@@@ 10084b3c     vgui_TeamFortressViewport.obj
 0002:0001eb50       ??_R3ToggleCommandButton@@8 10084b50     vgui_TeamFortressViewport.obj
 0002:0001eb60       ??_R2ToggleCommandButton@@8 10084b60     vgui_TeamFortressViewport.obj
 0002:0001eb7c       ??_R1A@?0A@EA@ToggleCommandButton@@8 10084b7c     vgui_TeamFortressViewport.obj
 0002:0001eb98       ??_R1BDA@?0A@EA@InputSignal@vgui@@8 10084b98     vgui_TeamFortressViewport.obj
 0002:0001ebb4       ??_R4ToggleCommandButton@@6BInputSignal@vgui@@@ 10084bb4     vgui_TeamFortressViewport.obj
 0002:0001ebc8       ??_R4SpectToggleButton@@6BCommandButton@@@ 10084bc8     vgui_TeamFortressViewport.obj
 0002:0001ebdc       ??_R3SpectToggleButton@@8  10084bdc     vgui_TeamFortressViewport.obj
 0002:0001ebec       ??_R2SpectToggleButton@@8  10084bec     vgui_TeamFortressViewport.obj
 0002:0001ec08       ??_R1A@?0A@EA@SpectToggleButton@@8 10084c08     vgui_TeamFortressViewport.obj
 0002:0001ec24       ??_R4SpectToggleButton@@6BInputSignal@vgui@@@ 10084c24     vgui_TeamFortressViewport.obj
 0002:0001ec38       ??_R4CViewPortInputHandler@@6B@ 10084c38     vgui_TeamFortressViewport.obj
 0002:0001ec4c       ??_R3CViewPortInputHandler@@8 10084c4c     vgui_TeamFortressViewport.obj
 0002:0001ec5c       ??_R2CViewPortInputHandler@@8 10084c5c     vgui_TeamFortressViewport.obj
 0002:0001ec68       ??_R1A@?0A@EA@CViewPortInputHandler@@8 10084c68     vgui_TeamFortressViewport.obj
 0002:0001ec84       ??_R4TeamFortressViewport@@6B@ 10084c84     vgui_TeamFortressViewport.obj
 0002:0001ec98       ??_R3TeamFortressViewport@@8 10084c98     vgui_TeamFortressViewport.obj
 0002:0001eca8       ??_R2TeamFortressViewport@@8 10084ca8     vgui_TeamFortressViewport.obj
 0002:0001ecb4       ??_R1A@?0A@EA@TeamFortressViewport@@8 10084cb4     vgui_TeamFortressViewport.obj
 0002:0001ecd0       ??_R4CTeamMenuPanel@@6B@   10084cd0     vgui_teammenu.obj
 0002:0001ece4       ??_R3CTeamMenuPanel@@8     10084ce4     vgui_teammenu.obj
 0002:0001ecf4       ??_R2CTeamMenuPanel@@8     10084cf4     vgui_teammenu.obj
 0002:0001ed08       ??_R1A@?0A@EA@CTeamMenuPanel@@8 10084d08     vgui_teammenu.obj
 0002:0001ed24       ??_R4CCrossbow@@6B@        10084d24     crossbow.obj
 0002:0001ed38       ??_R3CCrossbow@@8          10084d38     crossbow.obj
 0002:0001ed48       ??_R2CCrossbow@@8          10084d48     crossbow.obj
 0002:0001ed64       ??_R1A@?0A@EA@CCrossbow@@8 10084d64     crossbow.obj
 0002:0001ed80       ??_R4CCrossbowAmmo@@6B@    10084d80     crossbow.obj
 0002:0001ed94       ??_R3CCrossbowAmmo@@8      10084d94     crossbow.obj
 0002:0001eda4       ??_R2CCrossbowAmmo@@8      10084da4     crossbow.obj
 0002:0001edb4       ??_R1A@?0A@EA@CCrossbowAmmo@@8 10084db4     crossbow.obj
 0002:0001edd0       ??_R4CCrowbar@@6B@         10084dd0     crowbar.obj
 0002:0001ede4       ??_R3CCrowbar@@8           10084de4     crowbar.obj
 0002:0001edf4       ??_R2CCrowbar@@8           10084df4     crowbar.obj
 0002:0001ee10       ??_R1A@?0A@EA@CCrowbar@@8  10084e10     crowbar.obj
 0002:0001ee2c       ??_R4CEgon@@6B@            10084e2c     egon.obj
 0002:0001ee40       ??_R3CEgon@@8              10084e40     egon.obj
 0002:0001ee50       ??_R2CEgon@@8              10084e50     egon.obj
 0002:0001ee6c       ??_R1A@?0A@EA@CEgon@@8     10084e6c     egon.obj
 0002:0001ee88       ??_R4CEgonAmmo@@6B@        10084e88     egon.obj
 0002:0001ee9c       ??_R3CEgonAmmo@@8          10084e9c     egon.obj
 0002:0001eeac       ??_R2CEgonAmmo@@8          10084eac     egon.obj
 0002:0001eebc       ??_R1A@?0A@EA@CEgonAmmo@@8 10084ebc     egon.obj
 0002:0001eed8       ??_R4CGauss@@6B@           10084ed8     gauss.obj
 0002:0001eeec       ??_R3CGauss@@8             10084eec     gauss.obj
 0002:0001eefc       ??_R2CGauss@@8             10084efc     gauss.obj
 0002:0001ef18       ??_R1A@?0A@EA@CGauss@@8    10084f18     gauss.obj
 0002:0001ef34       ??_R4CGaussAmmo@@6B@       10084f34     gauss.obj
 0002:0001ef48       ??_R3CGaussAmmo@@8         10084f48     gauss.obj
 0002:0001ef58       ??_R2CGaussAmmo@@8         10084f58     gauss.obj
 0002:0001ef68       ??_R1A@?0A@EA@CGaussAmmo@@8 10084f68     gauss.obj
 0002:0001ef84       ??_R4CHandGrenade@@6B@     10084f84     handgrenade.obj
 0002:0001ef98       ??_R3CHandGrenade@@8       10084f98     handgrenade.obj
 0002:0001efa8       ??_R2CHandGrenade@@8       10084fa8     handgrenade.obj
 0002:0001efc4       ??_R1A@?0A@EA@CHandGrenade@@8 10084fc4     handgrenade.obj
 0002:0001efe0       ??_R4CBaseEntity@@6B@      10084fe0     hl_baseentity.obj
 0002:0001eff4       ??_R4CBaseAnimating@@6B@   10084ff4     hl_baseentity.obj
 0002:0001f008       ??_R3CBaseToggle@@8        10085008     hl_baseentity.obj
 0002:0001f018       ??_R2CBaseToggle@@8        10085018     hl_baseentity.obj
 0002:0001f02c       ??_R1A@?0A@EA@CBaseToggle@@8 1008502c     hl_baseentity.obj
 0002:0001f048       ??_R4CBaseMonster@@6B@     10085048     hl_baseentity.obj
 0002:0001f05c       ??_R3CBaseMonster@@8       1008505c     hl_baseentity.obj
 0002:0001f06c       ??_R2CBaseMonster@@8       1008506c     hl_baseentity.obj
 0002:0001f084       ??_R1A@?0A@EA@CBaseMonster@@8 10085084     hl_baseentity.obj
 0002:0001f0a0       ??_R4CBasePlayer@@6B@      100850a0     hl_baseentity.obj
 0002:0001f0b4       ??_R3CBasePlayer@@8        100850b4     hl_baseentity.obj
 0002:0001f0c4       ??_R2CBasePlayer@@8        100850c4     hl_baseentity.obj
 0002:0001f0e0       ??_R1A@?0A@EA@CBasePlayer@@8 100850e0     hl_baseentity.obj
 0002:0001f0fc       ??_R4CBasePlayerWeapon@@6B@ 100850fc     hl_weapons.obj
 0002:0001f110       ??_R4CMP5@@6B@             10085110     hl_weapons.obj
 0002:0001f124       ??_R3CMP5@@8               10085124     hl_weapons.obj
 0002:0001f134       ??_R2CMP5@@8               10085134     hl_weapons.obj
 0002:0001f150       ??_R1A@?0A@EA@CMP5@@8      10085150     hl_weapons.obj
 0002:0001f16c       ??_R4CRpg@@6B@             1008516c     hl_weapons.obj
 0002:0001f180       ??_R3CRpg@@8               10085180     hl_weapons.obj
 0002:0001f190       ??_R2CRpg@@8               10085190     hl_weapons.obj
 0002:0001f1ac       ??_R1A@?0A@EA@CRpg@@8      100851ac     hl_weapons.obj
 0002:0001f1c8       ??_R4CHgun@@6B@            100851c8     hl_weapons.obj
 0002:0001f1dc       ??_R3CHgun@@8              100851dc     hl_weapons.obj
 0002:0001f1ec       ??_R2CHgun@@8              100851ec     hl_weapons.obj
 0002:0001f208       ??_R1A@?0A@EA@CHgun@@8     10085208     hl_weapons.obj
 0002:0001f224       ??_R4CMP5AmmoClip@@6B@     10085224     mp5.obj
 0002:0001f238       ??_R3CMP5AmmoClip@@8       10085238     mp5.obj
 0002:0001f248       ??_R2CMP5AmmoClip@@8       10085248     mp5.obj
 0002:0001f258       ??_R1A@?0A@EA@CMP5AmmoClip@@8 10085258     mp5.obj
 0002:0001f274       ??_R4CMP5Chainammo@@6B@    10085274     mp5.obj
 0002:0001f288       ??_R3CMP5Chainammo@@8      10085288     mp5.obj
 0002:0001f298       ??_R2CMP5Chainammo@@8      10085298     mp5.obj
 0002:0001f2a8       ??_R1A@?0A@EA@CMP5Chainammo@@8 100852a8     mp5.obj
 0002:0001f2c4       ??_R4CMP5AmmoGrenade@@6B@  100852c4     mp5.obj
 0002:0001f2d8       ??_R3CMP5AmmoGrenade@@8    100852d8     mp5.obj
 0002:0001f2e8       ??_R2CMP5AmmoGrenade@@8    100852e8     mp5.obj
 0002:0001f2f8       ??_R1A@?0A@EA@CMP5AmmoGrenade@@8 100852f8     mp5.obj
 0002:0001f314       ??_R4CPython@@6B@          10085314     python.obj
 0002:0001f328       ??_R3CPython@@8            10085328     python.obj
 0002:0001f338       ??_R2CPython@@8            10085338     python.obj
 0002:0001f354       ??_R1A@?0A@EA@CPython@@8   10085354     python.obj
 0002:0001f370       ??_R4CLaserSpotPython@@6B@ 10085370     python.obj
 0002:0001f384       ??_R3CLaserSpotPython@@8   10085384     python.obj
 0002:0001f394       ??_R2CLaserSpotPython@@8   10085394     python.obj
 0002:0001f3a0       ??_R1A@?0A@EA@CLaserSpotPython@@8 100853a0     python.obj
 0002:0001f3bc       ??_R4CPythonAmmo@@6B@      100853bc     python.obj
 0002:0001f3d0       ??_R3CPythonAmmo@@8        100853d0     python.obj
 0002:0001f3e0       ??_R2CPythonAmmo@@8        100853e0     python.obj
 0002:0001f3f0       ??_R1A@?0A@EA@CPythonAmmo@@8 100853f0     python.obj
 0002:0001f40c       ??_R4CRpgAmmo@@6B@         1008540c     rpg.obj
 0002:0001f420       ??_R3CRpgAmmo@@8           10085420     rpg.obj
 0002:0001f430       ??_R2CRpgAmmo@@8           10085430     rpg.obj
 0002:0001f440       ??_R1A@?0A@EA@CRpgAmmo@@8  10085440     rpg.obj
 0002:0001f45c       ??_R4CSatchel@@6B@         1008545c     satchel.obj
 0002:0001f470       ??_R3CSatchel@@8           10085470     satchel.obj
 0002:0001f480       ??_R2CSatchel@@8           10085480     satchel.obj
 0002:0001f49c       ??_R1A@?0A@EA@CSatchel@@8  1008549c     satchel.obj
 0002:0001f4b8       ??_R3CGrenade@@8           100854b8     satchel.obj
 0002:0001f4c8       ??_R2CGrenade@@8           100854c8     satchel.obj
 0002:0001f4e4       ??_R1A@?0A@EA@CGrenade@@8  100854e4     satchel.obj
 0002:0001f500       ??_R4CSatchelCharge@@6B@   10085500     satchel.obj
 0002:0001f514       ??_R3CSatchelCharge@@8     10085514     satchel.obj
 0002:0001f524       ??_R2CSatchelCharge@@8     10085524     satchel.obj
 0002:0001f544       ??_R1A@?0A@EA@CSatchelCharge@@8 10085544     satchel.obj
 0002:0001f560       ??_R4CShotgun@@6B@         10085560     shotgun.obj
 0002:0001f574       ??_R3CShotgun@@8           10085574     shotgun.obj
 0002:0001f584       ??_R2CShotgun@@8           10085584     shotgun.obj
 0002:0001f5a0       ??_R1A@?0A@EA@CShotgun@@8  100855a0     shotgun.obj
 0002:0001f5bc       ??_R4CShotgunAmmo@@6B@     100855bc     shotgun.obj
 0002:0001f5d0       ??_R3CShotgunAmmo@@8       100855d0     shotgun.obj
 0002:0001f5e0       ??_R2CShotgunAmmo@@8       100855e0     shotgun.obj
 0002:0001f5f0       ??_R1A@?0A@EA@CShotgunAmmo@@8 100855f0     shotgun.obj
 0002:0001f60c       ??_R4CSqueak@@6B@          1008560c     squeakgrenade.obj
 0002:0001f620       ??_R3CSqueak@@8            10085620     squeakgrenade.obj
 0002:0001f630       ??_R2CSqueak@@8            10085630     squeakgrenade.obj
 0002:0001f64c       ??_R1A@?0A@EA@CSqueak@@8   1008564c     squeakgrenade.obj
 0002:0001f668       ??_R4CTripmine@@6B@        10085668     tripmine.obj
 0002:0001f67c       ??_R3CTripmine@@8          1008567c     tripmine.obj
 0002:0001f68c       ??_R2CTripmine@@8          1008568c     tripmine.obj
 0002:0001f6a8       ??_R1A@?0A@EA@CTripmine@@8 100856a8     tripmine.obj
 0002:0001f6c4       ??_R4FooDefaultScrollBarIntChangeSignal@?A0x19f3ca1d@@6B@ 100856c4     vgui_scrollbar2.obj
 0002:0001f6d8       ??_R3FooDefaultScrollBarIntChangeSignal@?A0x19f3ca1d@@8 100856d8     vgui_scrollbar2.obj
 0002:0001f6e8       ??_R2FooDefaultScrollBarIntChangeSignal@?A0x19f3ca1d@@8 100856e8     vgui_scrollbar2.obj
 0002:0001f6f4       ??_R1A@?0A@EA@FooDefaultScrollBarIntChangeSignal@?A0x19f3ca1d@@8 100856f4     vgui_scrollbar2.obj
 0002:0001f710       ??_R4FooDefaultButtonSignal@?A0x19f3ca1d@@6B@ 10085710     vgui_scrollbar2.obj
 0002:0001f724       ??_R3FooDefaultButtonSignal@?A0x19f3ca1d@@8 10085724     vgui_scrollbar2.obj
 0002:0001f734       ??_R2FooDefaultButtonSignal@?A0x19f3ca1d@@8 10085734     vgui_scrollbar2.obj
 0002:0001f740       ??_R1A@?0A@EA@FooDefaultButtonSignal@?A0x19f3ca1d@@8 10085740     vgui_scrollbar2.obj
 0002:0001f75c       ??_R4ScrollBarButton@@6B@  1008575c     vgui_scrollbar2.obj
 0002:0001f770       ??_R3ScrollBarButton@@8    10085770     vgui_scrollbar2.obj
 0002:0001f780       ??_R2ScrollBarButton@@8    10085780     vgui_scrollbar2.obj
 0002:0001f794       ??_R1A@?0A@EA@ScrollBarButton@@8 10085794     vgui_scrollbar2.obj
 0002:0001f7b0       ??_R4FooDefaultSliderSignal@?A0xba825ea7@@6B@ 100857b0     vgui_slider2.obj
 0002:0001f7c4       ??_R3FooDefaultSliderSignal@?A0xba825ea7@@8 100857c4     vgui_slider2.obj
 0002:0001f7d4       ??_R2FooDefaultSliderSignal@?A0xba825ea7@@8 100857d4     vgui_slider2.obj
 0002:0001f7e0       ??_R1A@?0A@EA@FooDefaultSliderSignal@?A0xba825ea7@@8 100857e0     vgui_slider2.obj
 0002:0001f7fc       ??_R4CVoiceStatus@@6BCHudBase@@@ 100857fc     voice_status.obj
 0002:0001f810       ??_R3CVoiceStatus@@8       10085810     voice_status.obj
 0002:0001f820       ??_R2CVoiceStatus@@8       10085820     voice_status.obj
 0002:0001f834       ??_R1A@?0A@EA@CVoiceStatus@@8 10085834     voice_status.obj
 0002:0001f850       ??_R1BE@?0A@EA@CDefaultInputSignal@vgui@@8 10085850     voice_status.obj
 0002:0001f86c       ??_R1BE@?0A@EA@InputSignal@vgui@@8 1008586c     voice_status.obj
 0002:0001f888       ??_R4CVoiceStatus@@6BCDefaultInputSignal@vgui@@@ 10085888     voice_status.obj
 0002:0001f89c       ??_R4type_info@@6B@        1008589c     LIBCMT:typinfo.obj
 0002:0001f8b0       ??_R3type_info@@8          100858b0     LIBCMT:typinfo.obj
 0002:0001f8c0       ??_R2type_info@@8          100858c0     LIBCMT:typinfo.obj
 0002:0001f8c8       ??_R1A@?0A@EA@type_info@@8 100858c8     LIBCMT:typinfo.obj
 0002:0001f8e4       ??_R4bad_alloc@std@@6B@    100858e4     LIBCMT:new.obj
 0002:0001f8f8       ??_R3bad_alloc@std@@8      100858f8     LIBCMT:new.obj
 0002:0001f908       ??_R2bad_alloc@std@@8      10085908     LIBCMT:new.obj
 0002:0001f914       ??_R1A@?0A@EA@bad_alloc@std@@8 10085914     LIBCMT:new.obj
 0002:0001f930       ??_R1A@?0A@EA@exception@std@@8 10085930     LIBCMT:new.obj
 0002:0001f94c       ??_R3exception@std@@8      1008594c     LIBCMT:new.obj
 0002:0001f95c       ??_R2exception@std@@8      1008595c     LIBCMT:new.obj
 0002:0001f964       ??_R4bad_exception@std@@6B@ 10085964     LIBCMT:frame.obj
 0002:0001f978       ??_R3bad_exception@std@@8  10085978     LIBCMT:frame.obj
 0002:0001f988       ??_R2bad_exception@std@@8  10085988     LIBCMT:frame.obj
 0002:0001f994       ??_R1A@?0A@EA@bad_exception@std@@8 10085994     LIBCMT:frame.obj
 0002:0001f9b0       ??_R4exception@std@@6B@    100859b0     LIBCMT:stdexcpt.obj
 0002:0001f9d0       ___safe_se_handler_table   100859d0     <linker-defined>
 0002:0001fa64       ___rtc_iaa                 10085a64     LIBCMT:_initsect_.obj
 0002:0001fa68       ___rtc_izz                 10085a68     LIBCMT:_initsect_.obj
 0002:0001fa6c       ___rtc_taa                 10085a6c     LIBCMT:_initsect_.obj
 0002:0001fa70       ___rtc_tzz                 10085a70     LIBCMT:_initsect_.obj
 0002:0001fa78       __TI1H                     10085a78     util_shared.obj
 0002:0001fa88       __CTA1H                    10085a88     util_shared.obj
 0002:0001fa90       __CT??_R0H@84              10085a90     util_shared.obj
 0002:0002059c       __TI2?AVbad_alloc@std@@    1008659c     LIBCMT:new.obj
 0002:000205ac       __CTA2?AVbad_alloc@std@@   100865ac     LIBCMT:new.obj
 0002:000205b8       __CT??_R0?AVbad_alloc@std@@@8??0bad_alloc@std@@QAE@ABV01@@Z12 100865b8     LIBCMT:new.obj
 0002:000205d4       __CT??_R0?AVexception@std@@@8??0exception@std@@QAE@ABV01@@Z12 100865d4     LIBCMT:new.obj
 0002:00020854       __TI2?AVbad_exception@std@@ 10086854     LIBCMT:frame.obj
 0002:00020864       __CTA2?AVbad_exception@std@@ 10086864     LIBCMT:frame.obj
 0002:00020870       __CT??_R0?AVbad_exception@std@@@8??0bad_exception@std@@QAE@ABV01@@Z12 10086870     LIBCMT:frame.obj
 0002:00020b8c       __IMPORT_DESCRIPTOR_WINMM  10086b8c     winmm:WINMM.dll
 0002:00020ba0       __IMPORT_DESCRIPTOR_vgui   10086ba0     vgui:vgui.dll
 0002:00020bb4       __IMPORT_DESCRIPTOR_WSOCK32 10086bb4     wsock32:WSOCK32.dll
 0002:00020bc8       __IMPORT_DESCRIPTOR_KERNEL32 10086bc8     kernel32:KERNEL32.dll
 0002:00020bdc       __IMPORT_DESCRIPTOR_USER32 10086bdc     user32:USER32.dll
 0002:00020bf0       __IMPORT_DESCRIPTOR_OPENGL32 10086bf0     opengl32:OPENGL32.dll
 0002:00020c04       __NULL_IMPORT_DESCRIPTOR   10086c04     winmm:WINMM.dll
 0003:00000000       ?numberOfEyeSkins@CChumToadWeapon@@0HA 10095000     chumtoadweapon.obj
 0003:00000004       ??_R0?AVCChumToadWeapon@@@8 10095004     chumtoadweapon.obj
 0003:00000024       ??_R0?AVCBasePlayerWeapon@@@8 10095024     chumtoadweapon.obj
 0003:00000044       ??_R0?AVCBasePlayerItem@@@8 10095044     chumtoadweapon.obj
 0003:00000064       ??_R0?AVCBaseAnimating@@@8 10095064     chumtoadweapon.obj
 0003:00000084       ??_R0?AVCBaseDelay@@@8     10095084     chumtoadweapon.obj
 0003:000000a0       ??_R0?AVCBaseEntity@@@8    100950a0     chumtoadweapon.obj
 0003:000000bc       ??_R0?AVCGlock@@@8         100950bc     glock.obj
 0003:000000d4       ??_R0?AVCBasePlayerAmmo@@@8 100950d4     glock.obj
 0003:000000f4       ??_R0?AVCGlockAmmo@@@8     100950f4     glock.obj
 0003:00000110       ??_R0H@8                   10095110     util_shared.obj
 0003:0000011c       ??_R0?AVCHudBase@@@8       1009511c     ammo.obj
 0003:00000134       ??_R0?AVScheme@vgui@@@8    10095134     ammo.obj
 0003:00000150       ??_R0?AVColor@vgui@@@8     10095150     ammo.obj
 0003:0000016c       ??_R0?AVPanel@vgui@@@8     1009516c     ammo.obj
 0003:00000188       ??_R0?AVLabel@vgui@@@8     10095188     ammo.obj
 0003:000001a4       ??_R0?AVImage@vgui@@@8     100951a4     ammo.obj
 0003:000001c0       ??_R0?AVBorder@vgui@@@8    100951c0     ammo.obj
 0003:000001dc       ??_R0?AVLineBorder@vgui@@@8 100951dc     ammo.obj
 0003:000001fc       ??_R0?AVImagePanel@vgui@@@8 100951fc     ammo.obj
 0003:0000021c       ??_R0?AVBitmap@vgui@@@8    1009521c     ammo.obj
 0003:00000238       ??_R0?AVBitmapTGA@vgui@@@8 10095238     ammo.obj
 0003:00000258       ??_R0?AVInputSignal@vgui@@@8 10095258     ammo.obj
 0003:00000278       ??_R0?AVButton@vgui@@@8    10095278     ammo.obj
 0003:00000294       ??_R0?AVFrame@vgui@@@8     10095294     ammo.obj
 0003:000002b0       ??_R0?AVTextPanel@vgui@@@8 100952b0     ammo.obj
 0003:000002d0       ??_R0?AVActionSignal@vgui@@@8 100952d0     ammo.obj
 0003:000002f0       ??_R0?AVInputStream@vgui@@@8 100952f0     ammo.obj
 0003:00000310       ??_R0?AVFileInputStream@vgui@@@8 10095310     ammo.obj
 0003:00000334       ??_R0?AVDesktopIcon@vgui@@@8 10095334     ammo.obj
 0003:00000354       ??_R0?AVCursor@vgui@@@8    10095354     ammo.obj
 0003:00000370       ??_R0?AVApp@vgui@@@8       10095370     ammo.obj
 0003:00000388       ??_R0?AVMiniApp@vgui@@@8   10095388     ammo.obj
 0003:000003a4       ??_R0?AVScrollPanel@vgui@@@8 100953a4     ammo.obj
 0003:000003c4       ??_R0?AVScrollBar@vgui@@@8 100953c4     ammo.obj
 0003:000003e4       ??_R0?AVSlider@vgui@@@8    100953e4     ammo.obj
 0003:00000400       ??_R0?AVFont@vgui@@@8      10095400     ammo.obj
 0003:00000418       ??_R0?AVCHudAmmo@@@8       10095418     ammo.obj
 0003:00000430       ?HISTORY_DRAW_TIME@@3HA    10095430     ammohistory.obj
 0003:00000434       ?globalPSEUDO_drawHUDMem@@3MA 10095434     cdll_int.obj
 0003:00000438       ?seed_table@@3PAIA         10095438     com_weapons.obj
 0003:00000838       ??_R0?AVCCustomMessage@@@8 10095838     custom_message.obj
 0003:0000085c       ?g_ColorBlue@@3PAMA        1009585c     death.obj
 0003:00000868       ?g_ColorRed@@3PAMA         10095868     death.obj
 0003:00000874       ?g_ColorGreen@@3PAMA       10095874     death.obj
 0003:00000880       ?g_ColorYellow@@3PAMA      10095880     death.obj
 0003:0000088c       ?g_ColorGrey@@3PAMA        1009588c     death.obj
 0003:00000898       ?g_iAlive@@3HA             10095898     entity.obj
 0003:0000089c       ?studio@@3Ur_studio_interface_s@@A 1009589c     GameStudioModelRenderer.obj
 0003:000008a8       ??_R0?AVCGameStudioModelRenderer@@@8 100958a8     GameStudioModelRenderer.obj
 0003:000008d0       ??_R0?AVCStudioModelRenderer@@@8 100958d0     GameStudioModelRenderer.obj
 0003:000008f4       ?giDmgFlags@@3PAHA         100958f4     health.obj
 0003:00000928       ??_R0?AVCHudHealth@@@8     10095928     health.obj
 0003:00000944       ??_R0?AVIVoiceStatusHelper@@@8 10095944     hud.obj
 0003:00000968       ??_R0?AVTablePanel@vgui@@@8 10095968     hud.obj
 0003:00000988       ??_R0?AVHeaderPanel@vgui@@@8 10095988     hud.obj
 0003:000009a8       ??_R0?AVTextGrid@vgui@@@8  100959a8     hud.obj
 0003:000009c4       ??_R0?AVTextImage@vgui@@@8 100959c4     hud.obj
 0003:000009e4       ??_R0?AVIntChangeSignal@vgui@@@8 100959e4     hud.obj
 0003:00000a08       ??_R0?AVSlider2@vgui@@@8   10095a08     hud.obj
 0003:00000a24       ??_R0?AVScrollBar2@vgui@@@8 10095a24     hud.obj
 0003:00000a44       ??_R0?AVCHLVoiceStatusHelper@@@8 10095a44     hud.obj
 0003:00000a68       ??_R0?AVCHudSpectator@@@8  10095a68     hud.obj
 0003:00000a84       ??_R0?AVCHudGeiger@@@8     10095a84     hud.obj
 0003:00000aa0       ??_R0?AVCHudBattery@@@8    10095aa0     hud.obj
 0003:00000abc       ??_R0?AVCHudTrain@@@8      10095abc     hud.obj
 0003:00000ad4       ??_R0?AVCHudFlashlight@@@8 10095ad4     hud.obj
 0003:00000af4       ??_R0?AVCHudMessage@@@8    10095af4     hud.obj
 0003:00000b10       ??_R0?AVCHudStatusBar@@@8  10095b10     hud.obj
 0003:00000b2c       ??_R0?AVCHudDeathNotice@@@8 10095b2c     hud.obj
 0003:00000b4c       ??_R0?AVCHudSayText@@@8    10095b4c     hud.obj
 0003:00000b68       ??_R0?AVCHudMenu@@@8       10095b68     hud.obj
 0003:00000b80       ??_R0?AVCHudAmmoSecondary@@@8 10095b80     hud.obj
 0003:00000ba0       ??_R0?AVCHudTextMessage@@@8 10095ba0     hud.obj
 0003:00000bc0       ??_R0?AVCHudStatusIcons@@@8 10095bc0     hud.obj
 0003:00000be8       ?grgLogoFrame@@3PAHA       10095be8     hud_redraw.obj
 0003:00000cc8       ?movieStartTime@@3MA       10095cc8     hud_redraw.obj
 0003:00000cdc       ?dwAxisFlags@@3PAKA        10095cdc     inputw32.obj
 0003:00000cf4       ?g_pCustomName@@3PADA      10095cf4     message.obj
 0003:00000d58       _nanmask                   10095d58     pm_math.obj
 0003:00000dac       ?nextFogColorChange@@3MA   10095dac     tri.obj
 0003:00000db0       ?global2PSEUDO_playerHasGlockSilencer@@3HA 10095db0     util.obj
 0003:00000db4       ?global2PSEUDO_IGNOREcameraMode@@3MA 10095db4     util.obj
 0003:00000db8       ?global2PSEUDO_determinedFOV@@3MA 10095db8     util.obj
 0003:00000dbc       ?global2_hud_version@@3MA  10095dbc     util.obj
 0003:00000dc0       ?global2_hud_batterydraw@@3MA 10095dc0     util.obj
 0003:00000dc4       ?global2_strobeDurationMin@@3MA 10095dc4     util.obj
 0003:00000dc8       ?global2_strobeDurationMax@@3MA 10095dc8     util.obj
 0003:00000dcc       ?global2_strobeRadiusMin@@3MA 10095dcc     util.obj
 0003:00000dd0       ?global2_strobeRadiusMax@@3MA 10095dd0     util.obj
 0003:00000dd4       ?global2_strobeSpawnDistHori@@3MA 10095dd4     util.obj
 0003:00000dd8       ?global2_strobeSpawnDistVertMin@@3MA 10095dd8     util.obj
 0003:00000ddc       ?global2_strobeSpawnDistVertMax@@3MA 10095ddc     util.obj
 0003:00000de0       ?global2_strobeMultiColor@@3MA 10095de0     util.obj
 0003:00000de4       ?global2_raveLaserEnabled@@3MA 10095de4     util.obj
 0003:00000de8       ?global2_raveLaserSpawnFreq@@3MA 10095de8     util.obj
 0003:00000dec       ?global2_raveLaserLength@@3MA 10095dec     util.obj
 0003:00000df0       ?global2_raveLaserSpawnDistHoriMin@@3MA 10095df0     util.obj
 0003:00000df4       ?global2_raveLaserSpawnDistHoriMax@@3MA 10095df4     util.obj
 0003:00000df8       ?global2_raveLaserSpawnDistVertMin@@3MA 10095df8     util.obj
 0003:00000dfc       ?global2_raveLaserSpawnDistVertMax@@3MA 10095dfc     util.obj
 0003:00000e00       ?global2_raveLaserBrightnessMin@@3MA 10095e00     util.obj
 0003:00000e04       ?global2_raveLaserBrightnessMax@@3MA 10095e04     util.obj
 0003:00000e08       ?global2_raveLaserDurationMin@@3MA 10095e08     util.obj
 0003:00000e0c       ?global2_raveLaserDurationMax@@3MA 10095e0c     util.obj
 0003:00000e10       ?global2_raveLaserThicknessMin@@3MA 10095e10     util.obj
 0003:00000e14       ?global2_raveLaserThicknessMax@@3MA 10095e14     util.obj
 0003:00000e18       ?global2_raveLaserFrameRateMin@@3MA 10095e18     util.obj
 0003:00000e1c       ?global2_raveLaserFrameRateMax@@3MA 10095e1c     util.obj
 0003:00000e20       ?global2_raveLaserMultiColor@@3MA 10095e20     util.obj
 0003:00000e24       ?global2_cameraPosFixedX@@3MA 10095e24     util.obj
 0003:00000e28       ?global2_cameraPosFixedY@@3MA 10095e28     util.obj
 0003:00000e2c       ?global2_cameraPosFixedZ@@3MA 10095e2c     util.obj
 0003:00000e30       ?global2_cameraPosOffZ@@3MA 10095e30     util.obj
 0003:00000e34       ?global2_cameraRotFixedX@@3MA 10095e34     util.obj
 0003:00000e38       ?global2_cameraRotFixedY@@3MA 10095e38     util.obj
 0003:00000e3c       ?global2_cameraRotFixedZ@@3MA 10095e3c     util.obj
 0003:00000e40       ?global2_fogNear@@3MA      10095e40     util.obj
 0003:00000e44       ?global2_fogFar@@3MA       10095e44     util.obj
 0003:00000e48       ?global2_chromeEffect@@3MA 10095e48     util.obj
 0003:00000e4c       ?global2_geigerChannel@@3MA 10095e4c     util.obj
 0003:00000e50       ?global2_wpn_glocksilencer@@3MA 10095e50     util.obj
 0003:00000e54       ?global2_cl_muzzleflash@@3MA 10095e54     util.obj
 0003:00000e58       ?global2_event5011Allowed@@3MA 10095e58     util.obj
 0003:00000e5c       ?global2_event5021Allowed@@3MA 10095e5c     util.obj
 0003:00000e60       ?global2_event5031Allowed@@3MA 10095e60     util.obj
 0003:00000e64       ?global2_event5002Allowed@@3MA 10095e64     util.obj
 0003:00000e68       ?global2_event5004Allowed@@3MA 10095e68     util.obj
 0003:00000e6c       ?global2_painArrowColorMode@@3MA 10095e6c     util.obj
 0003:00000e70       ?global2_painFlashColorMode@@3MA 10095e70     util.obj
 0003:00000e74       ?global2_drownDrawPainMode@@3MA 10095e74     util.obj
 0003:00000e78       ?global2_firstPersonIdleDelayMin@@3MA 10095e78     util.obj
 0003:00000e7c       ?global2_firstPersonIdleDelayMax@@3MA 10095e7c     util.obj
 0003:00000e80       ?global2_canShowWeaponSelectAtDeath@@3MA 10095e80     util.obj
 0003:00000e84       ?global2_endlessFlashlightBattery@@3MA 10095e84     util.obj
 0003:00000e88       ?global2_preE3UsesFailColors@@3MA 10095e88     util.obj
 0003:00000e8c       ?global2_E3UsesFailColors@@3MA 10095e8c     util.obj
 0003:00000e90       ?global2_preE3ShowsDamageIcons@@3MA 10095e90     util.obj
 0003:00000e94       ?global2_E3ShowsDamageIcons@@3MA 10095e94     util.obj
 0003:00000e98       ?global2_playerForceCrossbowMode@@3MA 10095e98     util.obj
 0003:00000e9c       ?global2_revolverLaserScope@@3MA 10095e9c     util.obj
 0003:00000ea0       ?global2_canApplyDefaultFOV@@3MA 10095ea0     util.obj
 0003:00000ea4       ?global2_auto_adjust_fov_aspect@@3MA 10095ea4     util.obj
 0003:00000ea8       ?global2_auto_adjust_zoomfov@@3MA 10095ea8     util.obj
 0003:00000eac       ?global2_cheat_minimumfiredelaycustom@@3MA 10095eac     util.obj
 0003:00000eb0       ?global2_raveEffectSpawnInterval@@3MA 10095eb0     util.obj
 0003:00000eb4       ?global2_useAlphaCrosshair@@3MA 10095eb4     util.obj
 0003:00000eb8       ?global2_alphaCrosshairBlockedOnFrozen@@3MA 10095eb8     util.obj
 0003:00000ebc       ?global2_mirrorsReflectOnlyNPCs@@3MA 10095ebc     util.obj
 0003:00000ec0       ?global2_mirrorsDoNotReflectPlayer@@3MA 10095ec0     util.obj
 0003:00000ec4       ?global2_r_shadows@@3MA    10095ec4     util.obj
 0003:00000ec8       ?global2_egonEffectsMode@@3MA 10095ec8     util.obj
 0003:00000ecc       ?global2_egonHitCloud@@3MA 10095ecc     util.obj
 0003:00000ed0       ?global2_handGrenadePickupYieldsOne@@3MA 10095ed0     util.obj
 0003:00000ed4       ?global2_skipTFDamageTextures@@3MA 10095ed4     util.obj
 0003:00000ed8       ?global2_weaponSelectSoundPlayOnMousewheel@@3MA 10095ed8     util.obj
 0003:00000edc       ?global2_timedDamageDeathRemoveMode@@3MA 10095edc     util.obj
 0003:00000ee0       ?global2_glockUseLastBulletAnim@@3MA 10095ee0     util.obj
 0003:00000ee4       ?global2_playerBarnacleVictimViewOffset@@3MA 10095ee4     util.obj
 0003:00000ee8       ?global2_cl_bullsquidspit@@3MA 10095ee8     util.obj
 0003:00000eec       ?global2_cl_bullsquidspitarc@@3MA 10095eec     util.obj
 0003:00000ef0       ?global2_trailTypeTest@@3MA 10095ef0     util.obj
 0003:00000ef4       ?global2_hornetTrailSolidColor@@3MA 10095ef4     util.obj
 0003:00000ef8       ?global2_hornetDeathModEasy@@3MA 10095ef8     util.obj
 0003:00000efc       ?global2_hornetDeathModMedium@@3MA 10095efc     util.obj
 0003:00000f00       ?global2_hornetSpeedMulti@@3MA 10095f00     util.obj
 0003:00000f04       ?global2_hornetSpeedDartMulti@@3MA 10095f04     util.obj
 0003:00000f08       ?global2_cl_rockettrail@@3MA 10095f08     util.obj
 0003:00000f0c       ?global2_rocketTrailAlphaInterval@@3MA 10095f0c     util.obj
 0003:00000f10       ?global2_rocketTrailAlphaScale@@3MA 10095f10     util.obj
 0003:00000f14       ?global2_rocketSkipIgnite@@3MA 10095f14     util.obj
 0003:00000f18       ?global2_cl_hornetspiral@@3MA 10095f18     util.obj
 0003:00000f1c       ?global2_cl_hornettrail@@3MA 10095f1c     util.obj
 0003:00000f20       ?global2_hud_drawammobar@@3MA 10095f20     util.obj
 0003:00000f24       ?global2_hud_weaponselecthideslower@@3MA 10095f24     util.obj
 0003:00000f28       ?global2_hud_drawsidebarmode@@3MA 10095f28     util.obj
 0003:00000f2c       ?global2_gaussmode@@3MA    10095f2c     util.obj
 0003:00000f30       ?global2_gauss_reflectdealsdamage@@3MA 10095f30     util.obj
 0003:00000f34       ?global2_gauss_secondarychargetimereq@@3MA 10095f34     util.obj
 0003:00000f38       ?global2_gauss_primaryreflects@@3MA 10095f38     util.obj
 0003:00000f3c       ?global2_gauss_primarypierces@@3MA 10095f3c     util.obj
 0003:00000f40       ?global2_gauss_secondaryreflects@@3MA 10095f40     util.obj
 0003:00000f44       ?global2_gauss_secondarypierces@@3MA 10095f44     util.obj
 0003:00000f48       ?global2_gauss_secondarypunchthrough@@3MA 10095f48     util.obj
 0003:00000f4c       ?global2_gauss_betweenattackdelay@@3MA 10095f4c     util.obj
 0003:00000f50       ?global2_gauss_secondarychargemindelay@@3MA 10095f50     util.obj
 0003:00000f54       ?global2_gauss_chargeMaxAmmo_SP@@3MA 10095f54     util.obj
 0003:00000f58       ?global2_gauss_chargeMaxAmmo_MP@@3MA 10095f58     util.obj
 0003:00000f5c       ?global2_gauss_chargeInterval_SP@@3MA 10095f5c     util.obj
 0003:00000f60       ?global2_gauss_chargeInterval_MP@@3MA 10095f60     util.obj
 0003:00000f64       ?global2_painFlashDmgMin@@3MA 10095f64     util.obj
 0003:00000f68       ?global2_painFlashDmgExMult@@3MA 10095f68     util.obj
 0003:00000f6c       ?global2_painFlashCumulativeMinDrowning@@3MA 10095f6c     util.obj
 0003:00000f70       ?global2_painFlashCumulativeMax@@3MA 10095f70     util.obj
 0003:00000f74       ?global2_painFlashDrawOpacityMax@@3MA 10095f74     util.obj
 0003:00000f78       ?global2_painArrowDrawOpacityMin@@3MA 10095f78     util.obj
 0003:00000f7c       ?global2_painArrowDrawOpacityMax@@3MA 10095f7c     util.obj
 0003:00000f80       ?global2_painFlashFadeMult@@3MA 10095f80     util.obj
 0003:00000f84       ?global2_painArrowFadeMult@@3MA 10095f84     util.obj
 0003:00000f88       ?global2_painFlashIgnoreArmor@@3MA 10095f88     util.obj
 0003:00000f8c       ?global2_painFlashDirTolerance@@3MA 10095f8c     util.obj
 0003:00000f90       ?global2_painArrowCumulativeAppearMin@@3MA 10095f90     util.obj
 0003:00000f94       ?global2_painArrowCumulativeDmgJump@@3MA 10095f94     util.obj
 0003:00000f98       ?global2_itemFlashCumulativeJump@@3MA 10095f98     util.obj
 0003:00000f9c       ?global2_itemFlashDrawOpacityMax@@3MA 10095f9c     util.obj
 0003:00000fa0       ?global2_itemFlashFadeMult@@3MA 10095fa0     util.obj
 0003:00000fa4       ?global2_crossbowReloadSoundDelay@@3MA 10095fa4     util.obj
 0003:00000fa8       ?global2_drawViewModel@@3MA 10095fa8     util.obj
 0003:00000fac       ?global2_drawHUD@@3MA      10095fac     util.obj
 0003:00000fb0       ?firstCrazyShit@@3HA       10095fb0     util.obj
 0003:00000fb4       ?nextTimeeeee@@3MA         10095fb4     util.obj
 0003:00000fb8       ??_R0?AVCDefaultInputSignal@vgui@@@8 10095fb8     vgui_checkbutton2.obj
 0003:00000fe0       ??_R0?AVCMenuHandler_StringCommand@@@8 10095fe0     vgui_ClassMenu.obj
 0003:0000100c       ??_R0?AVCMenuHandler_StringCommandClassSelect@@@8 1009600c     vgui_ClassMenu.obj
 0003:00001040       ??_R0?AVCMenuHandler_TextWindow@@@8 10096040     vgui_ClassMenu.obj
 0003:00001068       ??_R0?AVCHandler_MenuButtonOver@@@8 10096068     vgui_ClassMenu.obj
 0003:00001090       ??_R0?AVClassButton@@@8    10096090     vgui_ClassMenu.obj
 0003:000010ac       ??_R0?AVCommandButton@@@8  100960ac     vgui_ClassMenu.obj
 0003:000010c8       ??_R0?AVCTransparentPanel@@@8 100960c8     vgui_ClassMenu.obj
 0003:000010e8       ??_R0?AVCMenuPanel@@@8     100960e8     vgui_ClassMenu.obj
 0003:00001104       ??_R0?AVCClassMenuPanel@@@8 10096104     vgui_ClassMenu.obj
 0003:00001124       ??_R0?AVTextEntry@vgui@@@8 10096124     vgui_ConsolePanel.obj
 0003:00001144       ??_R0?AVEtchedBorder@vgui@@@8 10096144     vgui_ConsolePanel.obj
 0003:00001164       ??_R0?AVLoweredBorder@vgui@@@8 10096164     vgui_ConsolePanel.obj
 0003:00001188       ??_R0?AVDataInputStream@vgui@@@8 10096188     vgui_ControlConfigPanel.obj
 0003:000011ac       ?sArrowFilenames@@3PAPADA  100961ac     vgui_CustomObjects.obj
 0003:000011bc       ??_R0?AVCHandler_ButtonHighlight@@@8 100961bc     vgui_CustomObjects.obj
 0003:000011e4       ??_R0?AVCHandler_CommandButtonHighlight@@@8 100961e4     vgui_CustomObjects.obj
 0003:00001214       ??_R0?AVCTFSlider@@@8      10096214     vgui_CustomObjects.obj
 0003:0000122c       ??_R0?AVCImageLabel@@@8    1009622c     vgui_CustomObjects.obj
 0003:00001248       ??_R0?AVCTFScrollButton@@@8 10096248     vgui_CustomObjects.obj
 0003:00001268       ??_R0?AVCTFScrollPanel@@@8 10096268     vgui_CustomObjects.obj
 0003:00001288       ??_R0?AVCGrid@vgui@@@8     10096288     vgui_grid.obj
 0003:000012a4       ??_R0?AVLayout@vgui@@@8    100962a4     vgui_int.obj
 0003:000012c0       ??_R0?AVBorderLayout@vgui@@@8 100962c0     vgui_int.obj
 0003:000012e0       ??_R0?AVSurfaceBase@vgui@@@8 100962e0     vgui_int.obj
 0003:00001300       ??_R0?AVListBoxSignal@CListBox@vgui@@@8 10096300     vgui_listbox.obj
 0003:0000132c       ??_R0?AVCListBox@vgui@@@8  1009632c     vgui_listbox.obj
 0003:00001348       ??_R0?AVMemoryInputStream@@@8 10096348     vgui_loadtga.obj
 0003:00001368       ??_R0?AVStackLayout@vgui@@@8 10096368     vgui_MOTDWindow.obj
 0003:00001388       ??_R0?AVCMessageWindowPanel@@@8 10096388     vgui_MOTDWindow.obj
 0003:000013d4       ??_R0?AVCSchemeManager@@@8 100963d4     vgui_SchemeManager.obj
 0003:000013f8       ?g_ColumnInfo@@3PAVSBColumnInfo@@A 100963f8     vgui_ScorePanel.obj
 0003:00001458       ??_R0?AVCMenuHandler_StringCommandWatch@@@8 10096458     vgui_ScorePanel.obj
 0003:00001488       ??_R0?AVCTextImage2@@@8    10096488     vgui_ScorePanel.obj
 0003:000014a4       ??_R0?AVCLabelHeader@@@8   100964a4     vgui_ScorePanel.obj
 0003:000014c0       ??_R0?AVHitTestPanel@ScorePanel@@@8 100964c0     vgui_ScorePanel.obj
 0003:000014e8       ??_R0?AVScorePanel@@@8     100964e8     vgui_ScorePanel.obj
 0003:00001504       ??_R0?AVCBrowser_InputSignal@?A0x5998a8a3@@@8 10096504     vgui_ServerBrowser.obj
 0003:00001534       ??_R0?AVServerBrowserTablePanel@?A0x5998a8a3@@@8 10096534     vgui_ServerBrowser.obj
 0003:00001568       ??_R0?AVConnectHandler@?A0x5998a8a3@@@8 10096568     vgui_ServerBrowser.obj
 0003:00001594       ??_R0?AVRefreshHandler@?A0x5998a8a3@@@8 10096594     vgui_ServerBrowser.obj
 0003:000015c0       ??_R0?AVStopHandler@?A0x5998a8a3@@@8 100965c0     vgui_ServerBrowser.obj
 0003:000015e8       ??_R0?AVCancelHandler@?A0x5998a8a3@@@8 100965e8     vgui_ServerBrowser.obj
 0003:00001614       ??_R0?AVLabelSortInputHandler@@@8 10096614     vgui_ServerBrowser.obj
 0003:00001638       ??_R0?AVCSBLabel@@@8       10096638     vgui_ServerBrowser.obj
 0003:00001650       ??_R0?AVServerBrowser@@@8  10096650     vgui_ServerBrowser.obj
 0003:0000166c       ??_R0?AVColorButton@@@8    1009666c     vgui_SpectatorPanel.obj
 0003:00001688       ??_R0?AVCSpectatorHandler_Command@@@8 10096688     vgui_SpectatorPanel.obj
 0003:000016b0       ??_R0?AVSpectatorPanel@@@8 100966b0     vgui_SpectatorPanel.obj
 0003:000016d0       ?iNumberOfTeamColors@@3HA  100966d0     vgui_TeamFortressViewport.obj
 0003:000016d4       ?iTeamColors@@3PAY02HA     100966d4     vgui_TeamFortressViewport.obj
 0003:00001710       ?sTFClasses@@3PAPADA       10096710     vgui_TeamFortressViewport.obj
 0003:0000173c       ?sLocalisedClasses@@3PAPADA 1009673c     vgui_TeamFortressViewport.obj
 0003:0000176c       ?sTFClassSelection@@3PAPADA 1009676c     vgui_TeamFortressViewport.obj
 0003:0000179c       ?iBuildingCosts@@3PAHA     1009679c     vgui_TeamFortressViewport.obj
 0003:000017a4       ?sTFValidClassInts@@3PAHA  100967a4     vgui_TeamFortressViewport.obj
 0003:000017d0       ??_R0?AVSurface@vgui@@@8   100967d0     vgui_TeamFortressViewport.obj
 0003:000017ec       ??_R0?AVMenuSeparator@vgui@@@8 100967ec     vgui_TeamFortressViewport.obj
 0003:00001810       ??_R0?AVBuildGroup@vgui@@@8 10096810     vgui_TeamFortressViewport.obj
 0003:00001830       ??_R0?AVSpectButton@@@8    10096830     vgui_TeamFortressViewport.obj
 0003:0000184c       ??_R0?AVCCommandMenu@@@8   1009684c     vgui_TeamFortressViewport.obj
 0003:00001868       ??_R0?AVCMenuHandler_PopupSubMenuInput@@@8 10096868     vgui_TeamFortressViewport.obj
 0003:00001898       ??_R0?AVCMenuHandler_ToggleCvar@@@8 10096898     vgui_TeamFortressViewport.obj
 0003:000018c0       ??_R0?AVTeamButton@@@8     100968c0     vgui_TeamFortressViewport.obj
 0003:000018dc       ??_R0?AVFeignButton@@@8    100968dc     vgui_TeamFortressViewport.obj
 0003:000018f8       ??_R0?AVSpectateButton@@@8 100968f8     vgui_TeamFortressViewport.obj
 0003:00001918       ??_R0?AVDisguiseButton@@@8 10096918     vgui_TeamFortressViewport.obj
 0003:00001938       ??_R0?AVDetpackButton@@@8  10096938     vgui_TeamFortressViewport.obj
 0003:00001954       ??_R0?AVBuildButton@@@8    10096954     vgui_TeamFortressViewport.obj
 0003:00001970       ??_R0?AVMapButton@@@8      10096970     vgui_TeamFortressViewport.obj
 0003:00001988       ??_R0?AVTeamOnlyCommandButton@@@8 10096988     vgui_TeamFortressViewport.obj
 0003:000019ac       ??_R0?AVToggleCommandButton@@@8 100969ac     vgui_TeamFortressViewport.obj
 0003:000019d0       ??_R0?AVSpectToggleButton@@@8 100969d0     vgui_TeamFortressViewport.obj
 0003:000019f0       ??_R0?AVCViewPortInputHandler@@@8 100969f0     vgui_TeamFortressViewport.obj
 0003:00001a14       ??_R0PAVCException@@@8     10096a14     vgui_TeamFortressViewport.obj
 0003:00001a30       ??_R0?AVTeamFortressViewport@@@8 10096a30     vgui_TeamFortressViewport.obj
 0003:00001a54       ??_R0?AVCTeamMenuPanel@@@8 10096a54     vgui_teammenu.obj
 0003:00001a74       ?v_cameraRelaxAngle@@3MA   10096a74     view.obj
 0003:00001a78       ?v_cameraFocusAngle@@3MA   10096a78     view.obj
 0003:00001a7c       ?v_cameraMode@@3HA         10096a7c     view.obj
 0003:00001a80       ?v_resetCamera@@3HA        10096a80     view.obj
 0003:00001a84       ?v_iyaw_cycle@@3Ucvar_s@@A 10096a84     view.obj
 0003:00001a98       ?v_iroll_cycle@@3Ucvar_s@@A 10096a98     view.obj
 0003:00001aac       ?v_ipitch_cycle@@3Ucvar_s@@A 10096aac     view.obj
 0003:00001ac0       ?v_iyaw_level@@3Ucvar_s@@A 10096ac0     view.obj
 0003:00001ad4       ?v_iroll_level@@3Ucvar_s@@A 10096ad4     view.obj
 0003:00001ae8       ?v_ipitch_level@@3Ucvar_s@@A 10096ae8     view.obj
 0003:00001b88       ??_R0?AVCCrossbow@@@8      10096b88     crossbow.obj
 0003:00001ba0       ??_R0?AVCCrossbowAmmo@@@8  10096ba0     crossbow.obj
 0003:00001bbc       ??_R0?AVCCrowbar@@@8       10096bbc     crowbar.obj
 0003:00001bd4       ??_R0?AVCEgon@@@8          10096bd4     egon.obj
 0003:00001be8       ??_R0?AVCEgonAmmo@@@8      10096be8     egon.obj
 0003:00001c00       ?g_fireAnims1@@3PAHA       10096c00     ev_hldm.obj
 0003:00001c10       ?g_fireAnims2@@3PAHA       10096c10     ev_hldm.obj
 0003:00001c14       ??_R0?AVCGauss@@@8         10096c14     gauss.obj
 0003:00001c2c       ??_R0?AVCGaussAmmo@@@8     10096c2c     gauss.obj
 0003:00001c48       ??_R0?AVCHandGrenade@@@8   10096c48     handgrenade.obj
 0003:00001c64       ??_R0?AVCBaseToggle@@@8    10096c64     hl_baseentity.obj
 0003:00001c80       ??_R0?AVCBaseMonster@@@8   10096c80     hl_baseentity.obj
 0003:00001c9c       ??_R0?AVCBasePlayer@@@8    10096c9c     hl_baseentity.obj
 0003:00001cc0       ??_R0?AVCMP5@@@8           10096cc0     hl_weapons.obj
 0003:00001cd4       ??_R0?AVCRpg@@@8           10096cd4     hl_weapons.obj
 0003:00001ce8       ??_R0?AVCHgun@@@8          10096ce8     hl_weapons.obj
 0003:00001cfc       ??_R0?AVCMP5AmmoClip@@@8   10096cfc     mp5.obj
 0003:00001d18       ??_R0?AVCMP5Chainammo@@@8  10096d18     mp5.obj
 0003:00001d34       ??_R0?AVCMP5AmmoGrenade@@@8 10096d34     mp5.obj
 0003:00001d54       ??_R0?AVCPython@@@8        10096d54     python.obj
 0003:00001d6c       ??_R0?AVCLaserSpotPython@@@8 10096d6c     python.obj
 0003:00001d8c       ??_R0?AVCPythonAmmo@@@8    10096d8c     python.obj
 0003:00001da8       ??_R0?AVCRpgAmmo@@@8       10096da8     rpg.obj
 0003:00001dc0       ??_R0?AVCSatchel@@@8       10096dc0     satchel.obj
 0003:00001dd8       ??_R0?AVCGrenade@@@8       10096dd8     satchel.obj
 0003:00001df0       ??_R0?AVCSatchelCharge@@@8 10096df0     satchel.obj
 0003:00001e10       ??_R0?AVCShotgun@@@8       10096e10     shotgun.obj
 0003:00001e28       ??_R0?AVCShotgunAmmo@@@8   10096e28     shotgun.obj
 0003:00001e44       ?numberOfEyeSkins@CSqueak@@2HA 10096e44     squeakgrenade.obj
 0003:00001e48       ??_R0?AVCSqueak@@@8        10096e48     squeakgrenade.obj
 0003:00001e60       ??_R0?AVCTripmine@@@8      10096e60     tripmine.obj
 0003:00001e78       ??_R0?AVFooDefaultScrollBarIntChangeSignal@?A0x19f3ca1d@@@8 10096e78     vgui_scrollbar2.obj
 0003:00001eb8       ??_R0?AVFooDefaultButtonSignal@?A0x19f3ca1d@@@8 10096eb8     vgui_scrollbar2.obj
 0003:00001eec       ??_R0?AVScrollBarButton@@@8 10096eec     vgui_scrollbar2.obj
 0003:00001f0c       ??_R0?AVFooDefaultSliderSignal@?A0xba825ea7@@@8 10096f0c     vgui_slider2.obj
 0003:00001f40       ?g_pBanMgrFilename@@3PBDB  10096f40     voice_banmgr.obj
 0003:00001f44       ??_R0?AVCVoiceStatus@@@8   10096f44     voice_status.obj
 0003:00001f60       __fltused                  10096f60     LIBCMT:_fpinit_.obj
 0003:00001f64       __ldused                   10096f64     LIBCMT:_fpinit_.obj
 0003:00001f68       ??_R0?AVtype_info@@@8      10096f68     LIBCMT:typinfo.obj
 0003:00001f88       ___security_cookie         10096f88     LIBCMT:gs_cookie.obj
 0003:00001f8c       ___security_cookie_complement 10096f8c     LIBCMT:gs_cookie.obj
 0003:00001f90       ??_R0?AVbad_alloc@std@@@8  10096f90     LIBCMT:new.obj
 0003:00001fac       ??_R0?AVexception@std@@@8  10096fac     LIBCMT:new.obj
 0003:00001ff0       __half                     10096ff0     LIBCMT:_pow_.obj
 0003:00002010       __cfltcvt_tab              10097010     LIBCMT:cmiscdat.obj
 0003:00002040       ??_R0?AVbad_exception@std@@@8 10097040     LIBCMT:frame.obj
 0003:00002060       ___flsindex                10097060     LIBCMT:tidtable.obj
 0003:00002064       ___getvalueindex           10097064     LIBCMT:tidtable.obj
 0003:00002070       ___nullstring              10097070     LIBCMT:output.obj
 0003:00002074       ___wnullstring             10097074     LIBCMT:output.obj
 0003:000021f0       ___initialmbcinfo          100971f0     LIBCMT:mbctype.obj
 0003:00002410       __mbctype                  10097410     LIBCMT:mbctype.obj
 0003:00002518       __mbcasemap                10097518     LIBCMT:mbctype.obj
 0003:00002618       ___ptmbcinfo               10097618     LIBCMT:mbctype.obj
 0003:00002710       ___globallocalestatus      10097710     LIBCMT:glstatus.obj
 0003:00002714       ___clocalestr              10097714     LIBCMT:nlsdata2.obj
 0003:00002718       ___lc_time_c               10097718     LIBCMT:nlsdata2.obj
 0003:00002880       ___initiallocinfo          10097880     LIBCMT:nlsdata2.obj
 0003:00002958       ___ptlocinfo               10097958     LIBCMT:nlsdata2.obj
 0003:0000295c       ___initiallocalestructinfo 1009795c     LIBCMT:nlsdata2.obj
 0003:00002968       __iob                      10097968     LIBCMT:_file.obj
 0003:00002bf0       ___badioinfo               10097bf0     LIBCMT:ioinit.obj
 0003:00002c30       ___abort_behavior          10097c30     LIBCMT:abort.obj
 0003:00002d78       __timezone                 10097d78     LIBCMT:timeset.obj
 0003:00002d7c       __daylight                 10097d7c     LIBCMT:timeset.obj
 0003:00002d80       __dstbias                  10097d80     LIBCMT:timeset.obj
 0003:00002e08       __tzname                   10097e08     LIBCMT:timeset.obj
 0003:00002e20       __lookuptrailbytes         10097e20     LIBCMT:read.obj
 0003:00002f20       __NLG_Destination          10097f20     LIBCMT:exsup.obj
 0003:00002f30       __matherr_flag             10097f30     LIBCMT:_matherr_.obj
 0003:00003020       __d_inf                    10098020     LIBCMT:_util_.obj
 0003:00003028       __d_ind                    10098028     LIBCMT:_util_.obj
 0003:00003030       __d_max                    10098030     LIBCMT:_util_.obj
 0003:00003038       __d_min                    10098038     LIBCMT:_util_.obj
 0003:00003040       __d_mzero                  10098040     LIBCMT:_util_.obj
 0003:00003070       __lpdays                   10098070     LIBCMT:days.obj
 0003:000030a4       __days                     100980a4     LIBCMT:days.obj
 0003:000030e0       ___lconv_static_decimal    100980e0     LIBCMT:lconv.obj
 0003:000030e4       ___lconv_static_W_decimal  100980e4     LIBCMT:lconv.obj
 0003:000030e8       ___lconv_c                 100980e8     LIBCMT:lconv.obj
 0003:00003138       ___lconv                   10098138     LIBCMT:lconv.obj
 0003:0000313c       __pctype                   1009813c     LIBCMT:ctype.obj
 0003:00003140       __pwctype                  10098140     LIBCMT:ctype.obj
 0003:00003178       __pow10pos                 10098178     LIBCMT:_constpow_.obj
 0003:000032d8       __pow10neg                 100982d8     LIBCMT:_constpow_.obj
 0003:00003434       ___mb_cur_max              10098434     LIBCMT:nlsdata1.obj
 0003:00003438       ___decimal_point           10098438     LIBCMT:nlsdata1.obj
 0003:0000343c       ___decimal_point_length    1009843c     LIBCMT:nlsdata1.obj
 0003:00003440       __confh                    10098440     LIBCMT:initcon.obj
 0003:00003c60       ?globalPSEUDO_halflifePath@@3PADA 10098c60     util_shared.obj
 0003:00003e60       ?globalPSEUDO_gamePath@@3PADA 10098e60     util_shared.obj
 0003:00004060       ?info@@3Ustat@@A           10099060     util_shared.obj
 0003:00004090       ?globalPSEUDO_hiddenMemPath@@3PADA 10099090     util_shared.obj
 0003:00004290       ?globalPSEUDO_valveGamePath@@3PADA 10099290     util_shared.obj
 0003:00004490       ?globalflag_muteDeploySound@@3HA 10099490     util_shared.obj
 0003:00004494       ?globalPSEUDO_iCanHazMemez@@3HA 10099494     util_shared.obj
 0003:00004498       ?giABHeight@@3HA           10099498     ammo.obj
 0003:0000449c       ?giBucketHeight@@3HA       1009949c     ammo.obj
 0003:000044a0       ?ghsprBuckets@@3HA         100994a0     ammo.obj
 0003:000044a4       ?giBucketWidth@@3HA        100994a4     ammo.obj
 0003:000044a8       ?giABWidth@@3HA            100994a8     ammo.obj
 0003:000044ac       ?g_weaponselect@@3HA       100994ac     ammo.obj
 0003:000044e0       ?gHR@@3VHistoryResource@@A 100994e0     ammohistory.obj
 0003:000045a8       ?aryCVarHashName@@3PAPADA  100995a8     cdll_int.obj
 0003:00004830       ?gEngfuncs@@3Ucl_enginefuncs_s@@A 10099830     cdll_int.obj
 0003:000049c8       ?aryCVarHash@@3PAPAMA      100999c8     cdll_int.obj
 0003:00004c4c       ?gViewPort@@3PAVTeamFortressViewport@@A 10099c4c     cdll_int.obj
 0003:00004c50       ?hasAutoMus@@3HA           10099c50     cdll_int.obj
 0003:00004c58       ?gHUD@@3VCHud@@A           10099c58     cdll_int.obj
 0003:00009634       ?g_runfuncs@@3HA           1009e634     com_weapons.obj
 0003:00009638       ?g_finalstate@@3PAUlocal_state_s@@A 1009e638     com_weapons.obj
 0003:00009640       ?flag_apply_m_flTimeWeaponIdle@@3HA 1009e640     custom_message.obj
 0003:00009644       ?stored_m_flTimeWeaponIdle@@3MA 1009e644     custom_message.obj
 0003:00009648       ?flag_apply_m_fJustThrown@@3HA 1009e648     custom_message.obj
 0003:0000964c       ?stored_m_fJustThrown@@3HA 1009e64c     custom_message.obj
 0003:00009650       ?rgDeathNoticeList@@3PAUDeathNoticeItem@@A 1009e650     death.obj
 0003:0000995c       ?g_demosniperangles@@3PAMA 1009e95c     demo.obj
 0003:00009968       ?g_demosniperorg@@3PAMA    1009e968     demo.obj
 0003:00009974       ?g_demozoom@@3MA           1009e974     demo.obj
 0003:00009978       ?g_demosniper@@3HA         1009e978     demo.obj
 0003:0000997c       ?g_demosniperdamage@@3HA   1009e97c     demo.obj
 0003:00009988       ?g_StudioRenderer@@3VCGameStudioModelRenderer@@A 1009e988     GameStudioModelRenderer.obj
 0003:00010a48       ?giDmgHeight@@3HA          100a5a48     health.obj
 0003:00010a4c       ?giDmgWidth@@3HA           100a5a4c     health.obj
 0003:00010a50       ?cumulativeFade@@3MA       100a5a50     health.obj
 0003:00010a54       ?fAttackFrontMem@@3MA      100a5a54     health.obj
 0003:00010a58       ?fAttackRearMem@@3MA       100a5a58     health.obj
 0003:00010a5c       ?fAttackRightMem@@3MA      100a5a5c     health.obj
 0003:00010a60       ?fAttackLeftMem@@3MA       100a5a60     health.obj
 0003:00010a64       ?cumulativeFadeDrown@@3MA  100a5a64     health.obj
 0003:00010a68       ?cl_viewrollspeed@@3PAUcvar_s@@A 100a5a68     hud.obj
 0003:00010a6c       ?cl_viewrollangle@@3PAUcvar_s@@A 100a5a6c     hud.obj
 0003:00010a70       ?cl_lw@@3PAUcvar_s@@A      100a5a70     hud.obj
 0003:00010a74       ?g_lastFOV@@3MA            100a5a74     hud.obj
 0003:00010a78       ?playingMov@@3HA           100a5a78     hud_redraw.obj
 0003:00010b88       ?in_fov@@3MA               100a5b88     hud_update.obj
 0003:00010b8c       ?cam_thirdperson@@3HA      100a5b8c     in_camera.obj
 0003:00010b90       ?cam_old_mouse_y@@3HA      100a5b90     in_camera.obj
 0003:00010b94       ?c_minyaw@@3PAUcvar_s@@A   100a5b94     in_camera.obj
 0003:00010b98       ?c_maxpitch@@3PAUcvar_s@@A 100a5b98     in_camera.obj
 0003:00010ba8       ?c_minpitch@@3PAUcvar_s@@A 100a5ba8     in_camera.obj
 0003:00010bac       ?c_maxdistance@@3PAUcvar_s@@A 100a5bac     in_camera.obj
 0003:00010bb0       ?cam_contain@@3PAUcvar_s@@A 100a5bb0     in_camera.obj
 0003:00010bb4       ?cam_idealpitch@@3PAUcvar_s@@A 100a5bb4     in_camera.obj
 0003:00010bd0       ?cam_old_mouse_x@@3HA      100a5bd0     in_camera.obj
 0003:00010bd4       ?cam_distancemove@@3HA     100a5bd4     in_camera.obj
 0003:00010be4       ?c_maxyaw@@3PAUcvar_s@@A   100a5be4     in_camera.obj
 0003:00010be8       ?c_mindistance@@3PAUcvar_s@@A 100a5be8     in_camera.obj
 0003:00010bec       ?cam_command@@3PAUcvar_s@@A 100a5bec     in_camera.obj
 0003:00010bf0       ?cam_snapto@@3PAUcvar_s@@A 100a5bf0     in_camera.obj
 0003:00010bf4       ?cam_mousemove@@3HA        100a5bf4     in_camera.obj
 0003:00010bf8       ?cam_mouse@@3UtagPOINT@@A  100a5bf8     in_camera.obj
 0003:00010c00       ?cam_idealyaw@@3PAUcvar_s@@A 100a5c00     in_camera.obj
 0003:00010c10       ?cam_idealdist@@3PAUcvar_s@@A 100a5c10     in_camera.obj
 0003:00010c20       ?iMouseInUse@@3HA          100a5c20     in_camera.obj
 0003:00010c24       ?cam_ofs@@3VVector@@A      100a5c24     in_camera.obj
 0003:00010c30       ?in_attack2@@3Ukbutton_s@@A 100a5c30     input.obj
 0003:00010c3c       ?in_up@@3Ukbutton_s@@A     100a5c3c     input.obj
 0003:00010c48       ?in_forward@@3Ukbutton_s@@A 100a5c48     input.obj
 0003:00010c54       ?in_jump@@3Ukbutton_s@@A   100a5c54     input.obj
 0003:00010c60       ?in_reload@@3Ukbutton_s@@A 100a5c60     input.obj
 0003:00010c6c       ?in_klook@@3Ukbutton_s@@A  100a5c6c     input.obj
 0003:00010c78       ?in_graph@@3Ukbutton_s@@A  100a5c78     input.obj
 0003:00010c84       ?in_right@@3Ukbutton_s@@A  100a5c84     input.obj
 0003:00010c90       ?cl_movespeedkey@@3PAUcvar_s@@A 100a5c90     input.obj
 0003:00010c94       ?cl_yawspeed@@3PAUcvar_s@@A 100a5c94     input.obj
 0003:00010c98       ?in_attack@@3Ukbutton_s@@A 100a5c98     input.obj
 0003:00010ca4       ?in_lookdown@@3Ukbutton_s@@A 100a5ca4     input.obj
 0003:00010cb0       ?in_mlook@@3Ukbutton_s@@A  100a5cb0     input.obj
 0003:00010cbc       ?m_yaw@@3PAUcvar_s@@A      100a5cbc     input.obj
 0003:00010cc0       ?in_left@@3Ukbutton_s@@A   100a5cc0     input.obj
 0003:00010ccc       ?cl_pitchup@@3PAUcvar_s@@A 100a5ccc     input.obj
 0003:00010cd0       ?lookspring@@3PAUcvar_s@@A 100a5cd0     input.obj
 0003:00010cd4       ?in_moveleft@@3Ukbutton_s@@A 100a5cd4     input.obj
 0003:00010ce0       ?m_pitch@@3PAUcvar_s@@A    100a5ce0     input.obj
 0003:00010ce4       ?in_jlook@@3Ukbutton_s@@A  100a5ce4     input.obj
 0003:00010cf0       ?cl_upspeed@@3PAUcvar_s@@A 100a5cf0     input.obj
 0003:00010cf4       ?in_alt1@@3Ukbutton_s@@A   100a5cf4     input.obj
 0003:00010d00       ?cl_sidespeed@@3PAUcvar_s@@A 100a5d00     input.obj
 0003:00010d04       ?cl_pitchdown@@3PAUcvar_s@@A 100a5d04     input.obj
 0003:00010d08       ?in_duck@@3Ukbutton_s@@A   100a5d08     input.obj
 0003:00010d14       ?in_down@@3Ukbutton_s@@A   100a5d14     input.obj
 0003:00010d20       ?in_strafe@@3Ukbutton_s@@A 100a5d20     input.obj
 0003:00010d2c       ?m_forward@@3PAUcvar_s@@A  100a5d2c     input.obj
 0003:00010d30       ?in_break@@3Ukbutton_s@@A  100a5d30     input.obj
 0003:00010d3c       ?in_speed@@3Ukbutton_s@@A  100a5d3c     input.obj
 0003:00010d48       ?cl_vsmoothing@@3PAUcvar_s@@A 100a5d48     input.obj
 0003:00010d4c       ?cl_pitchspeed@@3PAUcvar_s@@A 100a5d4c     input.obj
 0003:00010d50       ?lookstrafe@@3PAUcvar_s@@A 100a5d50     input.obj
 0003:00010d54       ?m_side@@3PAUcvar_s@@A     100a5d54     input.obj
 0003:00010d58       ?in_lookup@@3Ukbutton_s@@A 100a5d58     input.obj
 0003:00010d64       ?in_score@@3Ukbutton_s@@A  100a5d64     input.obj
 0003:00010d70       ?cl_backspeed@@3PAUcvar_s@@A 100a5d70     input.obj
 0003:00010d74       ?cl_forwardspeed@@3PAUcvar_s@@A 100a5d74     input.obj
 0003:00010d78       ?in_moveright@@3Ukbutton_s@@A 100a5d78     input.obj
 0003:00010d84       ?in_use@@3Ukbutton_s@@A    100a5d84     input.obj
 0003:00010d90       ?cl_anglespeedkey@@3PAUcvar_s@@A 100a5d90     input.obj
 0003:00010d94       ?in_back@@3Ukbutton_s@@A   100a5d94     input.obj
 0003:00010da0       ?in_impulse@@3HA           100a5da0     input.obj
 0003:00010da4       ?in_cancel@@3HA            100a5da4     input.obj
 0003:00010da8       ?g_kbkeys@@3PAUkblist_s@@A 100a5da8     input.obj
 0003:00010dbc       ?joy_advaxisy@@3PAUcvar_s@@A 100a5dbc     inputw32.obj
 0003:00010dc0       ?sensitivity@@3PAUcvar_s@@A 100a5dc0     inputw32.obj
 0003:00010dc8       ?joy_pitchthreshold@@3PAUcvar_s@@A 100a5dc8     inputw32.obj
 0003:00010dcc       ?in_joystick@@3PAUcvar_s@@A 100a5dcc     inputw32.obj
 0003:00010dd0       ?joy_yawsensitivity@@3PAUcvar_s@@A 100a5dd0     inputw32.obj
 0003:00010dd4       ?pdwRawValue@@3PAPAKA      100a5dd4     inputw32.obj
 0003:00010e20       ?joy_haspov@@3HA           100a5e20     inputw32.obj
 0003:00010e24       ?joy_pitchsensitivity@@3PAUcvar_s@@A 100a5e24     inputw32.obj
 0003:00010e28       ?joy_wwhack2@@3PAUcvar_s@@A 100a5e28     inputw32.obj
 0003:00010e2c       ?joy_sidethreshold@@3PAUcvar_s@@A 100a5e2c     inputw32.obj
 0003:00010e30       ?joy_advanced@@3PAUcvar_s@@A 100a5e30     inputw32.obj
 0003:00010e34       ?joy_flags@@3KA            100a5e34     inputw32.obj
 0003:00010e38       ?my_accum@@3HA             100a5e38     inputw32.obj
 0003:00010e3c       ?joy_sidesensitivity@@3PAUcvar_s@@A 100a5e3c     inputw32.obj
 0003:00010e40       ?current_pos@@3UtagPOINT@@A 100a5e40     inputw32.obj
 0003:00010e48       ?joy_advaxisu@@3PAUcvar_s@@A 100a5e48     inputw32.obj
 0003:00010e4c       ?mouse_buttons@@3HA        100a5e4c     inputw32.obj
 0003:00010e50       ?mouseinitialized@@3HA     100a5e50     inputw32.obj
 0003:00010e60       ?joy_oldbuttonstate@@3KA   100a5e60     inputw32.obj
 0003:00010e64       ?joy_forwardsensitivity@@3PAUcvar_s@@A 100a5e64     inputw32.obj
 0003:00010e68       ?joy_advaxisv@@3PAUcvar_s@@A 100a5e68     inputw32.obj
 0003:00010e70       ?joy_advaxisz@@3PAUcvar_s@@A 100a5e70     inputw32.obj
 0003:00010e74       ?old_mouse_y@@3HA          100a5e74     inputw32.obj
 0003:00010e78       ?joy_id@@3HA               100a5e78     inputw32.obj
 0003:00010e7c       ?joy_avail@@3HA            100a5e7c     inputw32.obj
 0003:00010e80       ?dwAxisMap@@3PAKA          100a5e80     inputw32.obj
 0003:00010e98       ?joy_yawthreshold@@3PAUcvar_s@@A 100a5e98     inputw32.obj
 0003:00010e9c       ?mouse_y@@3HA              100a5e9c     inputw32.obj
 0003:00010ea0       ?joy_wwhack1@@3PAUcvar_s@@A 100a5ea0     inputw32.obj
 0003:00010ea4       ?joy_oldpovstate@@3KA      100a5ea4     inputw32.obj
 0003:00010ea8       ?joy_advaxisr@@3PAUcvar_s@@A 100a5ea8     inputw32.obj
 0003:00010eac       ?joy_numbuttons@@3KA       100a5eac     inputw32.obj
 0003:00010eb0       ?joy_advaxisx@@3PAUcvar_s@@A 100a5eb0     inputw32.obj
 0003:00010eb4       ?joy_advancedinit@@3HA     100a5eb4     inputw32.obj
 0003:00010eb8       ?m_filter@@3PAUcvar_s@@A   100a5eb8     inputw32.obj
 0003:00010ebc       ?joy_forwardthreshold@@3PAUcvar_s@@A 100a5ebc     inputw32.obj
 0003:00010ec0       ?dwControlMap@@3PAKA       100a5ec0     inputw32.obj
 0003:00010ed8       ?old_mouse_x@@3HA          100a5ed8     inputw32.obj
 0003:00010edc       ?joy_name@@3PAUcvar_s@@A   100a5edc     inputw32.obj
 0003:00010ee0       ?mouse_oldbuttonstate@@3HA 100a5ee0     inputw32.obj
 0003:00010ee4       ?mx_accum@@3HA             100a5ee4     inputw32.obj
 0003:00010ee8       ?mouse_x@@3HA              100a5ee8     inputw32.obj
 0003:00010ef0       ?g_iVisibleMouse@@3HA      100a5ef0     inputw32.obj
 0003:00010ef8       ?g_szPrelocalisedMenuString@@3PADA 100a5ef8     menu.obj
 0003:000110f8       ?g_szMenuString@@3PADA     100a60f8     menu.obj
 0003:000112f8       ?g_pCustomMessage@@3Uclient_textmessage_s@@A 100a62f8     message.obj
 0003:00011328       ?g_pCustomText@@3PADA      100a6328     message.obj
 0003:00011f38       _vec3_origin               100a6f38     pm_math.obj
 0003:00013fd4       _pmove                     100a8fd4     pm_shared.obj
 0003:00013fdc       _g_onladder                100a8fdc     pm_shared.obj
 0003:00014668       ?GL_StudioDrawShadow@@3P6AXXZA 100a9668     StudioModelRenderer.obj
 0003:00014670       ?IEngineStudio@@3Uengine_studio_api_s@@A 100a9670     StudioModelRenderer.obj
 0003:0001a350       ?fogColor@@3PAMA           100af350     tri.obj
 0003:0001a360       ?global2PSEUDO_gamePath@@3PADA 100af360     util.obj
 0003:0001a560       ?global2PSEUDO_halflifePath@@3PADA 100af560     util.obj
 0003:0001a760       ?crazyRandomShitY@@3PAHA   100af760     util.obj
 0003:0001a810       ?crazyRandomShitX@@3PAHA   100af810     util.obj
 0003:0001a8c0       ?global2PSEUDO_grabbedByBarancle@@3MA 100af8c0     util.obj
 0003:0001a8c4       ?cvar2_hud_version@@3PAUcvar_s@@A 100af8c4     util.obj
 0003:0001a8c8       ?cvar2_hud_batterydraw@@3PAUcvar_s@@A 100af8c8     util.obj
 0003:0001a8cc       ?global2_raveLaserNoiseMin@@3MA 100af8cc     util.obj
 0003:0001a8d0       ?global2_raveLaserNoiseMax@@3MA 100af8d0     util.obj
 0003:0001a8d4       ?global2_cameraPosOffX@@3MA 100af8d4     util.obj
 0003:0001a8d8       ?global2_cameraPosOffY@@3MA 100af8d8     util.obj
 0003:0001a8dc       ?global2_cameraRotOffX@@3MA 100af8dc     util.obj
 0003:0001a8e0       ?global2_cameraRotOffY@@3MA 100af8e0     util.obj
 0003:0001a8e4       ?global2_cameraRotOffZ@@3MA 100af8e4     util.obj
 0003:0001a8e8       ?global2_imAllFuckedUp@@3MA 100af8e8     util.obj
 0003:0001a8ec       ?global2_thatWasntGrass@@3MA 100af8ec     util.obj
 0003:0001a8f0       ?global2_thatWasntPunch@@3MA 100af8f0     util.obj
 0003:0001a8f4       ?global2_myCameraSucks@@3MA 100af8f4     util.obj
 0003:0001a8f8       ?cvar2_chromeEffect@@3PAUcvar_s@@A 100af8f8     util.obj
 0003:0001a8fc       ?global2_muteBulletHitSounds@@3MA 100af8fc     util.obj
 0003:0001a900       ?global2_muteTempEntityGroundHitSound@@3MA 100af900     util.obj
 0003:0001a904       ?global2_muteRicochetSound@@3MA 100af904     util.obj
 0003:0001a908       ?global2_mutePlayerWeaponFire@@3MA 100af908     util.obj
 0003:0001a90c       ?global2_seeMonsterHealth@@3MA 100af90c     util.obj
 0003:0001a910       ?cvar2_wpn_glocksilencer@@3PAUcvar_s@@A 100af910     util.obj
 0003:0001a914       ?cvar2_cl_muzzleflash@@3PAUcvar_s@@A 100af914     util.obj
 0003:0001a918       ?global2_eventsAreFabulous@@3MA 100af918     util.obj
 0003:0001a91c       ?global2_glockOldReloadLogic@@3MA 100af91c     util.obj
 0003:0001a920       ?global2_testVar@@3MA      100af920     util.obj
 0003:0001a924       ?global2_allowPainDrawWithoutSuit@@3MA 100af924     util.obj
 0003:0001a928       ?global2_forceDrawBatteryNumber@@3MA 100af928     util.obj
 0003:0001a92c       ?global2_tripmineAnimWaitsForFinish@@3MA 100af92c     util.obj
 0003:0001a930       ?global2_python_zoomfov@@3MA 100af930     util.obj
 0003:0001a934       ?global2_crossbow_zoomfov@@3MA 100af934     util.obj
 0003:0001a938       ?global2_cheat_infiniteclip@@3MA 100af938     util.obj
 0003:0001a93c       ?global2_cheat_infiniteammo@@3MA 100af93c     util.obj
 0003:0001a940       ?global2_cheat_minimumfiredelay@@3MA 100af940     util.obj
 0003:0001a944       ?global2_cheat_nogaussrecoil@@3MA 100af944     util.obj
 0003:0001a948       ?global2_gaussRecoilSendsUpInSP@@3MA 100af948     util.obj
 0003:0001a94c       ?global2_fogTest@@3MA      100af94c     util.obj
 0003:0001a950       ?global2_allowAlphaCrosshairWithoutGuns@@3MA 100af950     util.obj
 0003:0001a954       ?cvar2_r_shadows@@3PAUcvar_s@@A 100af954     util.obj
 0003:0001a958       ?global2_germanCensorship@@3MA 100af958     util.obj
 0003:0001a95c       ?global2_enableModPrintouts@@3MA 100af95c     util.obj
 0003:0001a960       ?global2_weaponSelectUsesReloadSounds@@3MA 100af960     util.obj
 0003:0001a964       ?global2_hiddenMemPrintout@@3MA 100af964     util.obj
 0003:0001a968       ?cvar2_cl_bullsquidspit@@3PAUcvar_s@@A 100af968     util.obj
 0003:0001a96c       ?cvar2_cl_bullsquidspitarc@@3PAUcvar_s@@A 100af96c     util.obj
 0003:0001a970       ?global2_hornetTrail@@3MA  100af970     util.obj
 0003:0001a974       ?global2_hornetDeathModHard@@3MA 100af974     util.obj
 0003:0001a978       ?global2_hornetZoomPuff@@3MA 100af978     util.obj
 0003:0001a97c       ?global2_hornetSpiral@@3MA 100af97c     util.obj
 0003:0001a980       ?cvar2_cl_rockettrail@@3PAUcvar_s@@A 100af980     util.obj
 0003:0001a984       ?cvar2_cl_hornetspiral@@3PAUcvar_s@@A 100af984     util.obj
 0003:0001a988       ?cvar2_cl_hornettrail@@3PAUcvar_s@@A 100af988     util.obj
 0003:0001a98c       ?cvar2_hud_drawammobar@@3PAUcvar_s@@A 100af98c     util.obj
 0003:0001a990       ?cvar2_hud_weaponselecthideslower@@3PAUcvar_s@@A 100af990     util.obj
 0003:0001a994       ?cvar2_hud_drawsidebarmode@@3PAUcvar_s@@A 100af994     util.obj
 0003:0001a998       ?cvar2_gaussmode@@3PAUcvar_s@@A 100af998     util.obj
 0003:0001a99c       ?global2_gauss_primaryonly@@3MA 100af99c     util.obj
 0003:0001a9a0       ?global2_gauss_chargeanimdelay@@3MA 100af9a0     util.obj
 0003:0001a9a4       ?global2_gauss_chargeworkdelay@@3MA 100af9a4     util.obj
 0003:0001a9a8       ?global2_gauss_primarypunchthrough@@3MA 100af9a8     util.obj
 0003:0001a9ac       ?global2_painFlashPrintouts@@3MA 100af9ac     util.obj
 0003:0001a9b0       ?global2_itemFlashDrawOpacityMin@@3MA 100af9b0     util.obj
 0003:0001a9b4       ?global2_crossbowFirePlaysReloadSound@@3MA 100af9b4     util.obj
 0003:0001a9b8       ?global2_iHaveAscended@@3MA 100af9b8     util.obj
 0003:0001a9bc       ?global2_playerBulletHitEffectForceServer@@3MA 100af9bc     util.obj
 0003:0001a9c0       ?global2_playerWeaponForceSpreadMode@@3MA 100af9c0     util.obj
 0003:0001a9c4       ?global2_viewModelPrintouts@@3MA 100af9c4     util.obj
 0003:0001a9c8       ?global2_viewModelSyncFixPrintouts@@3MA 100af9c8     util.obj
 0003:0001a9cc       ?global2_textureHitSoundPrintouts@@3MA 100af9cc     util.obj
 0003:0001a9d0       ?vec3_origin@@3VVector@@A  100af9d0     util.obj
 0003:0001aae0       ?g_CV_BitmapFonts@@3PAUcvar_s@@A 100afae0     vgui_SchemeManager.obj
 0003:0001c9f0       ?g_IsSpectator@@3PAHA      100b19f0     vgui_ScorePanel.obj
 0003:0001caf8       ?g_PlayerInfoList@@3PAUhud_player_info_s@@A 100b1af8     vgui_ScorePanel.obj
 0003:0001d010       ?g_PlayerExtraInfo@@3PAUextra_player_info_t@@A 100b2010     vgui_ScorePanel.obj
 0003:0001d628       ?g_TeamInfo@@3PAUteam_info_t@@A 100b2628     vgui_ScorePanel.obj
 0003:0001e050       ?g_iUser3@@3HA             100b3050     vgui_TeamFortressViewport.obj
 0003:0001e054       ?g_iPlayerClass@@3HA       100b3054     vgui_TeamFortressViewport.obj
 0003:0001e058       ?g_iTeamNumber@@3HA        100b3058     vgui_TeamFortressViewport.obj
 0003:0001e05c       ?g_iUser2@@3HA             100b305c     vgui_TeamFortressViewport.obj
 0003:0001e060       ?g_iUser1@@3HA             100b3060     vgui_TeamFortressViewport.obj
 0003:0001e068       ?v_centerspeed@@3PAUcvar_s@@A 100b3068     view.obj
 0003:0001e06c       ?cl_bobcycle@@3PAUcvar_s@@A 100b306c     view.obj
 0003:0001e070       ?scr_ofsy@@3PAUcvar_s@@A   100b3070     view.obj
 0003:0001e074       ?v_idlescale@@3MA          100b3074     view.obj
 0003:0001e078       ?cl_waterdist@@3PAUcvar_s@@A 100b3078     view.obj
 0003:0001e07c       ?cl_chasedist@@3PAUcvar_s@@A 100b307c     view.obj
 0003:0001e080       _vecNewViewAngles          100b3080     view.obj
 0003:0001e08c       _iHasNewViewOrigin         100b308c     view.obj
 0003:0001e090       _iIsSpectator              100b3090     view.obj
 0003:0001e094       _iHasNewViewAngles         100b3094     view.obj
 0003:0001e098       ?cl_bobup@@3PAUcvar_s@@A   100b3098     view.obj
 0003:0001e09c       ?v_frametime@@3MA          100b309c     view.obj
 0003:0001e0a0       ?v_centermove@@3PAUcvar_s@@A 100b30a0     view.obj
 0003:0001e0a4       ?scr_ofsz@@3PAUcvar_s@@A   100b30a4     view.obj
 0003:0001e0a8       _vJumpAngles               100b30a8     view.obj
 0003:0001e0b4       _vJumpOrigin               100b30b4     view.obj
 0003:0001e0c0       ?v_lastDistance@@3MA       100b30c0     view.obj
 0003:0001e0c4       _vecNewViewOrigin          100b30c4     view.obj
 0003:0001e0e8       ?scr_ofsx@@3PAUcvar_s@@A   100b30e8     view.obj
 0003:0001e0ec       ?cl_bob@@3PAUcvar_s@@A     100b30ec     view.obj
 0003:0001e0f0       ?v_angles@@3VVector@@A     100b30f0     view.obj
 0003:0001e0fc       ?v_cl_angles@@3VVector@@A  100b30fc     view.obj
 0003:0001e108       ?v_origin@@3VVector@@A     100b3108     view.obj
 0003:0001e114       ?v_sim_org@@3VVector@@A    100b3114     view.obj
 0003:0001e120       ?v_lastAngles@@3VVector@@A 100b3120     view.obj
 0003:0001e12c       ?ev_punchangle@@3VVector@@A 100b312c     view.obj
 0003:0001e988       ?g_iSwing@@3HA             100b3988     ev_hldm.obj
 0003:0001e98c       ?pBeam@@3PAUbeam_s@@A      100b398c     ev_hldm.obj
 0003:0001ea10       ?pBeam2@@3PAUbeam_s@@A     100b3a10     ev_hldm.obj
 0003:0001ea38       ?g_engfuncs@@3Uenginefuncs_s@@A 100b3a38     hl_baseentity.obj
 0003:0001ec78       ?gSkillData@@3Uskilldata_t@@A 100b3c78     hl_baseentity.obj
 0003:0001ee0c       ?gpGlobals@@3PAUglobalvars_t@@A 100b3e0c     hl_baseentity.obj
 0003:0001ee10       ?ItemInfoArray@CBasePlayerItem@@2PAUItemInfo@@A 100b3e10     hl_baseentity.obj
 0003:0001f390       ?gmsgWeapPickup@@3HA       100b4390     hl_baseentity.obj
 0003:0001f394       ?g_vecZero@@3VVector@@B    100b4394     hl_baseentity.obj
 0003:0001f424       ?g_flApplyVel@@3MA         100b4424     hl_weapons.obj
 0003:0001f428       ?g_irunninggausspred@@3HA  100b4428     hl_weapons.obj
 0003:0001f42c       ?reloadBlocker@@3HA        100b442c     hl_weapons.obj
 0003:000248b0       ?g_Gauss@@3VCGauss@@A      100b98b0     hl_weapons.obj
 0003:00024bb4       ?previousorigin@@3VVector@@A 100b9bb4     hl_weapons.obj
 0003:00024bc0       ?g_HandGren@@3VCHandGrenade@@A 100b9bc0     hl_weapons.obj
 0003:00024eb0       ?g_Tripmine@@3VCTripmine@@A 100b9eb0     hl_weapons.obj
 0003:000251b0       ?g_HGun@@3VCHgun@@A        100ba1b0     hl_weapons.obj
 0003:000254b0       ?g_Crowbar@@3VCCrowbar@@A  100ba4b0     hl_weapons.obj
 0003:00026550       ?g_ChumToadWeapon@@3VCChumToadWeapon@@A 100bb550     hl_weapons.obj
 0003:00026858       ?g_Glock@@3VCGlock@@A      100bb858     hl_weapons.obj
 0003:00026b98       ?g_Rpg@@3VCRpg@@A          100bbb98     hl_weapons.obj
 0003:00026e98       ?g_Satchel@@3VCSatchel@@A  100bbe98     hl_weapons.obj
 0003:00027188       ?g_Egon@@3VCEgon@@A        100bc188     hl_weapons.obj
 0003:000274f8       ?g_Crossbow@@3VCCrossbow@@A 100bc4f8     hl_weapons.obj
 0003:000278a0       ?g_Mp5@@3VCMP5@@A          100bc8a0     hl_weapons.obj
 0003:00027b98       ?g_Snark@@3VCSqueak@@A     100bcb98     hl_weapons.obj
 0003:00027e90       ?g_Shotgun@@3VCShotgun@@A  100bce90     hl_weapons.obj
 0003:00028190       ?g_Python@@3VCPython@@A    100bd190     hl_weapons.obj
 0003:000288a0       ?s_pInterfaceRegs@InterfaceReg@@2PAV1@A 100bd8a0     interface.obj
 0003:000288a8       ?g_BannedPlayerPrintCount@@3HA 100bd8a8     voice_status.obj
 0003:000288b0       ?g_VoiceStatus@@3VCVoiceStatus@@A 100bd8b0     voice_status.obj
 0003:00041920       ___fastflag                100d6920     LIBCMT:_fpinit_.obj
 0003:00041924       __umaskval                 100d6924     LIBCMT:crt0dat.obj
 0003:00041928       ___argc                    100d6928     LIBCMT:crt0dat.obj
 0003:0004192c       ___argv                    100d692c     LIBCMT:crt0dat.obj
 0003:00041930       ___wargv                   100d6930     LIBCMT:crt0dat.obj
 0003:00041934       __environ                  100d6934     LIBCMT:crt0dat.obj
 0003:00041938       ___initenv                 100d6938     LIBCMT:crt0dat.obj
 0003:0004193c       __wenviron                 100d693c     LIBCMT:crt0dat.obj
 0003:00041940       ___winitenv                100d6940     LIBCMT:crt0dat.obj
 0003:00041944       __pgmptr                   100d6944     LIBCMT:crt0dat.obj
 0003:00041948       __wpgmptr                  100d6948     LIBCMT:crt0dat.obj
 0003:0004194c       __exitflag                 100d694c     LIBCMT:crt0dat.obj
 0003:00041950       __C_Termination_Done       100d6950     LIBCMT:crt0dat.obj
 0003:00041954       __C_Exit_Done              100d6954     LIBCMT:crt0dat.obj
 0003:0004196c       __aenvptr                  100d696c     LIBCMT:dllcrt0.obj
 0003:00041970       __wenvptr                  100d6970     LIBCMT:dllcrt0.obj
 0003:00041974       ___error_mode              100d6974     LIBCMT:dllcrt0.obj
 0003:00041978       ___app_type                100d6978     LIBCMT:dllcrt0.obj
 0003:00041984       _gpFlsAlloc                100d6984     LIBCMT:tidtable.obj
 0003:00041988       _gpFlsGetValue             100d6988     LIBCMT:tidtable.obj
 0003:0004198c       _gpFlsSetValue             100d698c     LIBCMT:tidtable.obj
 0003:00041990       _gpFlsFree                 100d6990     LIBCMT:tidtable.obj
 0003:00041994       ?__pInconsistency@@3P6AXXZA 100d6994     LIBCMT:hooks.obj
 0003:00041cbc       ___pInvalidArgHandler      100d6cbc     LIBCMT:invarg.obj
 0003:00041cc8       ___mbulinfo                100d6cc8     LIBCMT:mbctype.obj
 0003:00041cd4       ___mbcodepage              100d6cd4     LIBCMT:mbctype.obj
 0003:00041cd8       ___ismbcodepage            100d6cd8     LIBCMT:mbctype.obj
 0003:00041cdc       ___mblcid                  100d6cdc     LIBCMT:mbctype.obj
 0003:00041ce0       __cflush                   100d6ce0     LIBCMT:_file.obj
 0003:00041ce4       __stdbuf                   100d6ce4     LIBCMT:_sftbuf.obj
 0003:00042318       ___pPurecall               100d7318     LIBCMT:inithelp.obj
 0003:00042488       ?_pnhHeap@@3P6AHI@ZA       100d7488     LIBCMT:handler.obj
 0003:0004248c       __maxwait                  100d748c     LIBCMT:crtheap.obj
 0003:00042548       __crtheap                  100d7548     LIBCMT:heapinit.obj
 0003:0004254c       __newmode                  100d754c     LIBCMT:_newmode.obj
 0003:00042550       ___locale_changed          100d7550     LIBCMT:setlocal.obj
 0003:00042660       __outputformat             100d7660     LIBCMT:outputformat.obj
 0003:00042678       ?pArgList@UnDecorator@@0PAVReplicator@@A 100d7678     LIBCMT:undname.obj
 0003:0004267c       ?pZNameList@UnDecorator@@0PAVReplicator@@A 100d767c     LIBCMT:undname.obj
 0003:00042680       ?pTemplateArgList@UnDecorator@@0PAVReplicator@@A 100d7680     LIBCMT:undname.obj
 0003:00042684       ?gName@UnDecorator@@0PBDB  100d7684     LIBCMT:undname.obj
 0003:00042688       ?name@UnDecorator@@0PBDB   100d7688     LIBCMT:undname.obj
 0003:0004268c       ?outputString@UnDecorator@@0PADA 100d768c     LIBCMT:undname.obj
 0003:00042690       ?maxStringLength@UnDecorator@@0HA 100d7690     LIBCMT:undname.obj
 0003:00042694       ?disableFlags@UnDecorator@@0KA 100d7694     LIBCMT:undname.obj
 0003:00042698       ?m_pGetParameter@UnDecorator@@0P6APADJ@ZA 100d7698     LIBCMT:undname.obj
 0003:0004269c       ?fExplicitTemplateParams@UnDecorator@@0_NA 100d769c     LIBCMT:undname.obj
 0003:0004269d       ?fGetTemplateArgumentList@UnDecorator@@0_NA 100d769d     LIBCMT:undname.obj
 0003:000426a4       ___lconv_static_null       100d76a4     LIBCMT:lconv.obj
 0003:000426a8       ___lconv_static_W_null     100d76a8     LIBCMT:lconv.obj
 0003:000426ac       __commode                  100d76ac     LIBCMT:ncommode.obj
 0003:000426c4       __fmode                    100d76c4     LIBCMT:txtmode.obj
 0003:000426c8       _iJumpSpectator            100d76c8     <common>
 0003:000426cc       __debugger_hook_dummy      100d76cc     <common>
 0003:000426d0       __nhandle                  100d76d0     <common>
 0003:000426e0       ___pioinfo                 100d76e0     <common>
 0003:000427e0       ___piob                    100d77e0     <common>
 0003:00042800       __bufin                    100d7800     <common>
 0003:00043800       __nstream                  100d8800     <common>
 0003:00043804       __pmatherr                 100d8804     <common>
 0003:00043808       ___sse2_available          100d8808     <common>
 0003:0004380c       ___use_sse2_mathfcns       100d880c     <common>
 0003:00043810       __acmdln                   100d8810     <common>
 0003:00043814       ___env_initialized         100d8814     <common>
 0003:00043818       ___onexitend               100d8818     <common>
 0003:0004381c       ___onexitbegin             100d881c     <common>
 0003:00043820       ___mbctype_initialized     100d8820     <common>
 0003:00043824       ___dyn_tls_init_callback   100d8824     <common>

 entry point at        0001:00052bbf

 Static symbols

 0001:000025ea       __catch$?processLoadHiddenCVarLine@@YAXPBD@Z$0 100035ea f   util_shared.obj
 0001:0002af90       ?LoadFileByResolution@@YAPAEPBDH0@Z 1002bf90 f   vgui_SchemeManager.obj
 0001:0002b060       ?ParseRGBAFromString@@YAXQAEPBD@Z 1002c060 f   vgui_SchemeManager.obj
 0001:00035e53       __catch$?CreateCommandMenu@TeamFortressViewport@@QAEHPADHH_NMMH@Z$0 10036e53 f   vgui_TeamFortressViewport.obj
 0001:0004f37c       ?CatchGuardHandler@@YA?AW4_EXCEPTION_DISPOSITION@@PAUEHExceptionRecord@@PAUCatchGuardRN@@PAX2@Z 1005037c f   LIBCMT:_trnsctrl_.obj
 0001:0004f486       ?TranslatorGuardHandler@@YA?AW4_EXCEPTION_DISPOSITION@@PAUEHExceptionRecord@@PAUTranslatorGuardRN@@PAX2@Z 10050486 f   LIBCMT:_trnsctrl_.obj
 0001:000506c7       _doexit                    100516c7 f   LIBCMT:crt0dat.obj
 0001:0005092f       __onexit_nolock            1005192f f   LIBCMT:onexit.obj
 0001:00051350       _shortsort                 10052350 f   LIBCMT:qsort.obj
 0001:00051ef2       _vscan_fn                  10052ef2 f   LIBCMT:sscanf.obj
 0001:00052ac9       ___DllMainCRTStartup       10053ac9 f   LIBCMT:dllcrt0.obj
 0001:00052d50       __shift                    10053d50 f   LIBCMT:cvt.obj
 0001:00052d95       __cftoe2_l                 10053d95 f   LIBCMT:cvt.obj
 0001:00053353       __cftof2_l                 10054353 f   LIBCMT:cvt.obj
 0001:00053f4f       ?ExFilterRethrow@@YAHPAU_EXCEPTION_POINTERS@@@Z 10054f4f f   LIBCMT:frame.obj
 0001:00054012       ?IsInExceptionSpec@@YAEPAUEHExceptionRecord@@PBU_s_ESTypeList@@@Z 10055012 f   LIBCMT:frame.obj
 0001:00054088       ?CallUnexpected@@YAXPBU_s_ESTypeList@@@Z 10055088 f   LIBCMT:frame.obj
 0001:000540b9       __catch$?CallUnexpected@@YAXPBU_s_ESTypeList@@@Z$0 100550b9 f   LIBCMT:frame.obj
 0001:000540d1       ?CallCatchBlock@@YAPAXPAUEHExceptionRecord@@PAUEHRegistrationNode@@PAU_CONTEXT@@PBU_s_FuncInfo@@PAXHK@Z 100550d1 f   LIBCMT:frame.obj
 0001:0005447e       ?CatchIt@@YAXPAUEHExceptionRecord@@PAUEHRegistrationNode@@PAU_CONTEXT@@PAXPBU_s_FuncInfo@@PBU_s_HandlerType@@PBU_s_CatchableType@@PBU_s_TryBlockMapEntry@@H1E@Z 1005547e f   LIBCMT:frame.obj
 0001:000544ec       ?FindHandlerForForeignException@@YAXPAUEHExceptionRecord@@PAUEHRegistrationNode@@PAU_CONTEXT@@PAXPBU_s_FuncInfo@@HH1@Z 100554ec f   LIBCMT:frame.obj
 0001:000545f3       ?FindHandler@@YAXPAUEHExceptionRecord@@PAUEHRegistrationNode@@PAU_CONTEXT@@PAXPBU_s_FuncInfo@@EH1@Z 100555f3 f   LIBCMT:frame.obj
 0001:000552b6       _write_char                100562b6 f   LIBCMT:output.obj
 0001:000552e9       _write_string              100562e9 f   LIBCMT:output.obj
 0001:000567eb       __tsopen_nolock            100577eb f   LIBCMT:open.obj
 0001:00057106       ?strtoxl@@YAKPAUlocaleinfo_struct@@PBDPAPBDHH@Z 10058106 f   LIBCMT:strtol.obj
 0001:0005735c       ?CPtoLCID@@YAHH@Z          1005835c f   LIBCMT:mbctype.obj
 0001:0005738b       ?setSBCS@@YAXPAUthreadmbcinfostruct@@@Z 1005838b f   LIBCMT:mbctype.obj
 0001:000573ef       ?setSBUpLow@@YAXPAUthreadmbcinfostruct@@@Z 100583ef f   LIBCMT:mbctype.obj
 0001:00057623       ?getSystemCP@@YAHH@Z       10058623 f   LIBCMT:mbctype.obj
 0001:000586bb       _flsall                    100596bb f   LIBCMT:fflush.obj
 0001:00059370       __unwind_handler4          1005a370 f   LIBCMT:exsup4.obj
 0001:000599f8       _siglookup                 1005a9f8 f   LIBCMT:winsig.obj
 0001:0005bbc4       ?__crtLCMapStringA_stat@@YAHPAUlocaleinfo_struct@@KKPBDHPADHHH@Z 1005cbc4 f   LIBCMT:a_map.obj
 0001:0005be3c       ___check_float_string      1005ce3c f   LIBCMT:input.obj
 0001:0005be93       __hextodec                 1005ce93 f   LIBCMT:input.obj
 0001:0005beb3       __inc                      1005ceb3 f   LIBCMT:input.obj
 0001:0005bec9       __whiteout                 1005cec9 f   LIBCMT:input.obj
 0001:0005e00f       _parse_cmdline             1005f00f f   LIBCMT:stdargv.obj
 0001:0005ed40       __unwind_handler           1005fd40 f   LIBCMT:exsup.obj
 0001:00060370       ?__crtGetStringTypeA_stat@@YAHPAUlocaleinfo_struct@@KPBDHPAGHHH@Z 10061370 f   LIBCMT:a_str.obj
 0001:00062371       ?x_ismbbtype_l@@YAHPAUlocaleinfo_struct@@IHH@Z 10063371 f   LIBCMT:ismbbyte.obj
 0001:00062cd4       __hw_cw                    10063cd4 f   LIBCMT:_ieee87_.obj
 0001:00062d62       ___hw_cw_sse2              10063d62 f   LIBCMT:_ieee87_.obj
 0001:00063448       ?_strupr_s_l_stat@@YAHPADIPAUlocaleinfo_struct@@@Z 10064448 f   LIBCMT:strupr.obj
 0001:00063650       __ehhandler$?processLoadHiddenCVarLine@@YAXPBD@Z 10064650 f   util_shared.obj
 0001:00063680       __unwindfunclet$??1CHud@@QAE@XZ$0 10064680 f   hud.obj
 0001:0006368e       __unwindfunclet$??1CHud@@QAE@XZ$1 1006468e f   hud.obj
 0001:0006369c       __unwindfunclet$??1CHud@@QAE@XZ$2 1006469c f   hud.obj
 0001:000636aa       __unwindfunclet$??1CHud@@QAE@XZ$3 100646aa f   hud.obj
 0001:000636b8       __unwindfunclet$??1CHud@@QAE@XZ$4 100646b8 f   hud.obj
 0001:000636c6       __unwindfunclet$??1CHud@@QAE@XZ$5 100646c6 f   hud.obj
 0001:000636d4       __unwindfunclet$??1CHud@@QAE@XZ$6 100646d4 f   hud.obj
 0001:000636e2       __unwindfunclet$??1CHud@@QAE@XZ$7 100646e2 f   hud.obj
 0001:000636f0       __unwindfunclet$??1CHud@@QAE@XZ$8 100646f0 f   hud.obj
 0001:000636fe       __unwindfunclet$??1CHud@@QAE@XZ$9 100646fe f   hud.obj
 0001:0006370c       __unwindfunclet$??1CHud@@QAE@XZ$10 1006470c f   hud.obj
 0001:0006371a       __unwindfunclet$??1CHud@@QAE@XZ$11 1006471a f   hud.obj
 0001:00063728       __unwindfunclet$??1CHud@@QAE@XZ$12 10064728 f   hud.obj
 0001:00063736       __unwindfunclet$??1CHud@@QAE@XZ$13 10064736 f   hud.obj
 0001:00063744       __unwindfunclet$??1CHud@@QAE@XZ$14 10064744 f   hud.obj
 0001:00063752       __unwindfunclet$??1CHud@@QAE@XZ$15 10064752 f   hud.obj
 0001:00063760       __ehhandler$??1CHud@@QAE@XZ 10064760 f   hud.obj
 0001:00063780       __unwindfunclet$??0CHud@@QAE@XZ$0 10064780 f   hud.obj
 0001:0006378e       __unwindfunclet$??0CHud@@QAE@XZ$1 1006478e f   hud.obj
 0001:0006379c       __ehhandler$??0CHud@@QAE@XZ 1006479c f   hud.obj
 0001:000637c0       __unwindfunclet$??0CClassMenuPanel@@QAE@HHHHHH@Z$0 100647c0 f   vgui_ClassMenu.obj
 0001:000637ce       __unwindfunclet$??0CClassMenuPanel@@QAE@HHHHHH@Z$1 100647ce f   vgui_ClassMenu.obj
 0001:000637dc       __unwindfunclet$??0CClassMenuPanel@@QAE@HHHHHH@Z$2 100647dc f   vgui_ClassMenu.obj
 0001:000637ea       __unwindfunclet$??0CClassMenuPanel@@QAE@HHHHHH@Z$4 100647ea f   vgui_ClassMenu.obj
 0001:000637f8       __unwindfunclet$??0CClassMenuPanel@@QAE@HHHHHH@Z$6 100647f8 f   vgui_ClassMenu.obj
 0001:00063806       __unwindfunclet$??0CClassMenuPanel@@QAE@HHHHHH@Z$7 10064806 f   vgui_ClassMenu.obj
 0001:00063814       __unwindfunclet$??0CClassMenuPanel@@QAE@HHHHHH@Z$8 10064814 f   vgui_ClassMenu.obj
 0001:00063822       __unwindfunclet$??0CClassMenuPanel@@QAE@HHHHHH@Z$9 10064822 f   vgui_ClassMenu.obj
 0001:00063830       __unwindfunclet$??0CClassMenuPanel@@QAE@HHHHHH@Z$10 10064830 f   vgui_ClassMenu.obj
 0001:0006383e       __unwindfunclet$??0CClassMenuPanel@@QAE@HHHHHH@Z$11 1006483e f   vgui_ClassMenu.obj
 0001:0006384c       __ehhandler$??0CClassMenuPanel@@QAE@HHHHHH@Z 1006484c f   vgui_ClassMenu.obj
 0001:00063880       __unwindfunclet$?LoadImageA@CImageLabel@@QAEXPBD@Z$0 10064880 f   vgui_CustomObjects.obj
 0001:0006388e       __unwindfunclet$?LoadImageA@CImageLabel@@QAEXPBD@Z$1 1006488e f   vgui_CustomObjects.obj
 0001:0006389c       __ehhandler$?LoadImageA@CImageLabel@@QAEXPBD@Z 1006489c f   vgui_CustomObjects.obj
 0001:000638d0       __unwindfunclet$??0CTFScrollPanel@@QAE@HHHH@Z$0 100648d0 f   vgui_CustomObjects.obj
 0001:000638db       __unwindfunclet$??0CTFScrollPanel@@QAE@HHHH@Z$1 100648db f   vgui_CustomObjects.obj
 0001:000638e6       __unwindfunclet$??0CTFScrollPanel@@QAE@HHHH@Z$2 100648e6 f   vgui_CustomObjects.obj
 0001:000638f1       __unwindfunclet$??0CTFScrollPanel@@QAE@HHHH@Z$3 100648f1 f   vgui_CustomObjects.obj
 0001:000638fc       __unwindfunclet$??0CTFScrollPanel@@QAE@HHHH@Z$4 100648fc f   vgui_CustomObjects.obj
 0001:00063907       __unwindfunclet$??0CTFScrollPanel@@QAE@HHHH@Z$5 10064907 f   vgui_CustomObjects.obj
 0001:00063912       __ehhandler$??0CTFScrollPanel@@QAE@HHHH@Z 10064912 f   vgui_CustomObjects.obj
 0001:00063930       __unwindfunclet$?SetDimensions@CGrid@vgui@@QAE_NHH@Z$0 10064930 f   vgui_grid.obj
 0001:00063930       __unwindfunclet$?CreateScoreBoard@TeamFortressViewport@@QAEXXZ$0 10064930 f   vgui_grid.obj
 0001:0006393b       __ehhandler$?CreateScoreBoard@TeamFortressViewport@@QAEXXZ 1006493b f   vgui_grid.obj
 0001:0006393b       __ehhandler$?SetDimensions@CGrid@vgui@@QAE_NHH@Z 1006493b f   vgui_grid.obj
 0001:00063960       __unwindfunclet$?vgui_LoadTGA@@YAPAVBitmapTGA@vgui@@PBD@Z$0 10064960 f   vgui_loadtga.obj
 0001:00063960       __unwindfunclet$?vgui_LoadTGANoInvertAlpha@@YAPAVBitmapTGA@vgui@@PBD@Z$0 10064960 f   vgui_loadtga.obj
 0001:0006396b       __ehhandler$?vgui_LoadTGANoInvertAlpha@@YAPAVBitmapTGA@vgui@@PBD@Z 1006496b f   vgui_loadtga.obj
 0001:0006396b       __ehhandler$?vgui_LoadTGA@@YAPAVBitmapTGA@vgui@@PBD@Z 1006496b f   vgui_loadtga.obj
 0001:00063990       __unwindfunclet$??0CMessageWindowPanel@@QAE@PBD0HHHHHH@Z$0 10064990 f   vgui_MOTDWindow.obj
 0001:0006399b       __unwindfunclet$??0CMessageWindowPanel@@QAE@PBD0HHHHHH@Z$1 1006499b f   vgui_MOTDWindow.obj
 0001:000639a6       __unwindfunclet$??0CMessageWindowPanel@@QAE@PBD0HHHHHH@Z$2 100649a6 f   vgui_MOTDWindow.obj
 0001:000639b1       __unwindfunclet$??0CMessageWindowPanel@@QAE@PBD0HHHHHH@Z$3 100649b1 f   vgui_MOTDWindow.obj
 0001:000639bc       __unwindfunclet$??0CMessageWindowPanel@@QAE@PBD0HHHHHH@Z$4 100649bc f   vgui_MOTDWindow.obj
 0001:000639c7       __unwindfunclet$??0CMessageWindowPanel@@QAE@PBD0HHHHHH@Z$5 100649c7 f   vgui_MOTDWindow.obj
 0001:000639d2       __ehhandler$??0CMessageWindowPanel@@QAE@PBD0HHHHHH@Z 100649d2 f   vgui_MOTDWindow.obj
 0001:000639f0       __unwindfunclet$?CMessageWindowPanel_Create@@YAPAVCMenuPanel@@PBD0HHHHHH@Z$0 100649f0 f   vgui_MOTDWindow.obj
 0001:000639fb       __ehhandler$?CMessageWindowPanel_Create@@YAPAVCMenuPanel@@PBD0HHHHHH@Z 100649fb f   vgui_MOTDWindow.obj
 0001:00063a20       __unwindfunclet$??0CSchemeManager@@QAE@HH@Z$1 10064a20 f   vgui_SchemeManager.obj
 0001:00063a2e       __unwindfunclet$??0CSchemeManager@@QAE@HH@Z$2 10064a2e f   vgui_SchemeManager.obj
 0001:00063a3c       __unwindfunclet$??0CSchemeManager@@QAE@HH@Z$3 10064a3c f   vgui_SchemeManager.obj
 0001:00063a4a       __ehhandler$??0CSchemeManager@@QAE@HH@Z 10064a4a f   vgui_SchemeManager.obj
 0001:00063a80       __unwindfunclet$??0CTextImage2@@QAE@XZ$0 10064a80 f   vgui_ScorePanel.obj
 0001:00063a8b       __unwindfunclet$??0CTextImage2@@QAE@XZ$1 10064a8b f   vgui_ScorePanel.obj
 0001:00063a96       __ehhandler$??0CTextImage2@@QAE@XZ 10064a96 f   vgui_ScorePanel.obj
 0001:00063ac0       __unwindfunclet$??0CLabelHeader@@QAE@XZ$0 10064ac0 f   vgui_ScorePanel.obj
 0001:00063acb       __ehhandler$??0CLabelHeader@@QAE@XZ 10064acb f   vgui_ScorePanel.obj
 0001:00063af0       __unwindfunclet$??0ScorePanel@@QAE@HHHH@Z$0 10064af0 f   vgui_ScorePanel.obj
 0001:00063afe       __unwindfunclet$??0ScorePanel@@QAE@HHHH@Z$1 10064afe f   vgui_ScorePanel.obj
 0001:00063b19       __unwindfunclet$??0ScorePanel@@QAE@HHHH@Z$2 10064b19 f   vgui_ScorePanel.obj
 0001:00063b27       __unwindfunclet$??0ScorePanel@@QAE@HHHH@Z$3 10064b27 f   vgui_ScorePanel.obj
 0001:00063b42       __unwindfunclet$??0ScorePanel@@QAE@HHHH@Z$4 10064b42 f   vgui_ScorePanel.obj
 0001:00063b60       __unwindfunclet$??0ScorePanel@@QAE@HHHH@Z$5 10064b60 f   vgui_ScorePanel.obj
 0001:00063b6b       __unwindfunclet$??0ScorePanel@@QAE@HHHH@Z$6 10064b6b f   vgui_ScorePanel.obj
 0001:00063b76       __ehhandler$??0ScorePanel@@QAE@HHHH@Z 10064b76 f   vgui_ScorePanel.obj
 0001:00063ba0       __unwindfunclet$??0ServerBrowser@@QAE@HHHH@Z$0 10064ba0 f   vgui_ServerBrowser.obj
 0001:00063bab       __unwindfunclet$??0ServerBrowser@@QAE@HHHH@Z$1 10064bab f   vgui_ServerBrowser.obj
 0001:00063bb6       __unwindfunclet$??0ServerBrowser@@QAE@HHHH@Z$2 10064bb6 f   vgui_ServerBrowser.obj
 0001:00063bc1       __unwindfunclet$??0ServerBrowser@@QAE@HHHH@Z$3 10064bc1 f   vgui_ServerBrowser.obj
 0001:00063bcc       __unwindfunclet$??0ServerBrowser@@QAE@HHHH@Z$4 10064bcc f   vgui_ServerBrowser.obj
 0001:00063bd7       __unwindfunclet$??0ServerBrowser@@QAE@HHHH@Z$5 10064bd7 f   vgui_ServerBrowser.obj
 0001:00063be2       __unwindfunclet$??0ServerBrowser@@QAE@HHHH@Z$6 10064be2 f   vgui_ServerBrowser.obj
 0001:00063bed       __unwindfunclet$??0ServerBrowser@@QAE@HHHH@Z$16 10064bed f   vgui_ServerBrowser.obj
 0001:00063bf8       __unwindfunclet$??0ServerBrowser@@QAE@HHHH@Z$8 10064bf8 f   vgui_ServerBrowser.obj
 0001:00063c03       __unwindfunclet$??0ServerBrowser@@QAE@HHHH@Z$10 10064c03 f   vgui_ServerBrowser.obj
 0001:00063c0e       __unwindfunclet$??0ServerBrowser@@QAE@HHHH@Z$12 10064c0e f   vgui_ServerBrowser.obj
 0001:00063c19       __unwindfunclet$??0ServerBrowser@@QAE@HHHH@Z$14 10064c19 f   vgui_ServerBrowser.obj
 0001:00063c24       __ehhandler$??0ServerBrowser@@QAE@HHHH@Z 10064c24 f   vgui_ServerBrowser.obj
 0001:00063c40       __unwindfunclet$?Initialize@SpectatorPanel@@QAEXXZ$0 10064c40 f   vgui_SpectatorPanel.obj
 0001:00063c4b       __unwindfunclet$?Initialize@SpectatorPanel@@QAEXXZ$1 10064c4b f   vgui_SpectatorPanel.obj
 0001:00063c56       __unwindfunclet$?Initialize@SpectatorPanel@@QAEXXZ$2 10064c56 f   vgui_SpectatorPanel.obj
 0001:00063c61       __unwindfunclet$?Initialize@SpectatorPanel@@QAEXXZ$3 10064c61 f   vgui_SpectatorPanel.obj
 0001:00063c6c       __unwindfunclet$?Initialize@SpectatorPanel@@QAEXXZ$4 10064c6c f   vgui_SpectatorPanel.obj
 0001:00063c77       __unwindfunclet$?Initialize@SpectatorPanel@@QAEXXZ$5 10064c77 f   vgui_SpectatorPanel.obj
 0001:00063c82       __unwindfunclet$?Initialize@SpectatorPanel@@QAEXXZ$6 10064c82 f   vgui_SpectatorPanel.obj
 0001:00063c8d       __unwindfunclet$?Initialize@SpectatorPanel@@QAEXXZ$7 10064c8d f   vgui_SpectatorPanel.obj
 0001:00063c98       __unwindfunclet$?Initialize@SpectatorPanel@@QAEXXZ$8 10064c98 f   vgui_SpectatorPanel.obj
 0001:00063ca3       __unwindfunclet$?Initialize@SpectatorPanel@@QAEXXZ$20 10064ca3 f   vgui_SpectatorPanel.obj
 0001:00063cae       __unwindfunclet$?Initialize@SpectatorPanel@@QAEXXZ$21 10064cae f   vgui_SpectatorPanel.obj
 0001:00063cb9       __unwindfunclet$?Initialize@SpectatorPanel@@QAEXXZ$22 10064cb9 f   vgui_SpectatorPanel.obj
 0001:00063cc4       __unwindfunclet$?Initialize@SpectatorPanel@@QAEXXZ$23 10064cc4 f   vgui_SpectatorPanel.obj
 0001:00063ccf       __unwindfunclet$?Initialize@SpectatorPanel@@QAEXXZ$10 10064ccf f   vgui_SpectatorPanel.obj
 0001:00063cda       __unwindfunclet$?Initialize@SpectatorPanel@@QAEXXZ$24 10064cda f   vgui_SpectatorPanel.obj
 0001:00063ce5       __unwindfunclet$?Initialize@SpectatorPanel@@QAEXXZ$25 10064ce5 f   vgui_SpectatorPanel.obj
 0001:00063cf0       __unwindfunclet$?Initialize@SpectatorPanel@@QAEXXZ$26 10064cf0 f   vgui_SpectatorPanel.obj
 0001:00063cfb       __unwindfunclet$?Initialize@SpectatorPanel@@QAEXXZ$27 10064cfb f   vgui_SpectatorPanel.obj
 0001:00063d06       __unwindfunclet$?Initialize@SpectatorPanel@@QAEXXZ$12 10064d06 f   vgui_SpectatorPanel.obj
 0001:00063d11       __unwindfunclet$?Initialize@SpectatorPanel@@QAEXXZ$28 10064d11 f   vgui_SpectatorPanel.obj
 0001:00063d1c       __unwindfunclet$?Initialize@SpectatorPanel@@QAEXXZ$29 10064d1c f   vgui_SpectatorPanel.obj
 0001:00063d27       __unwindfunclet$?Initialize@SpectatorPanel@@QAEXXZ$30 10064d27 f   vgui_SpectatorPanel.obj
 0001:00063d32       __unwindfunclet$?Initialize@SpectatorPanel@@QAEXXZ$31 10064d32 f   vgui_SpectatorPanel.obj
 0001:00063d3d       __unwindfunclet$?Initialize@SpectatorPanel@@QAEXXZ$14 10064d3d f   vgui_SpectatorPanel.obj
 0001:00063d48       __unwindfunclet$?Initialize@SpectatorPanel@@QAEXXZ$32 10064d48 f   vgui_SpectatorPanel.obj
 0001:00063d53       __unwindfunclet$?Initialize@SpectatorPanel@@QAEXXZ$33 10064d53 f   vgui_SpectatorPanel.obj
 0001:00063d5e       __unwindfunclet$?Initialize@SpectatorPanel@@QAEXXZ$34 10064d5e f   vgui_SpectatorPanel.obj
 0001:00063d69       __unwindfunclet$?Initialize@SpectatorPanel@@QAEXXZ$35 10064d69 f   vgui_SpectatorPanel.obj
 0001:00063d74       __unwindfunclet$?Initialize@SpectatorPanel@@QAEXXZ$16 10064d74 f   vgui_SpectatorPanel.obj
 0001:00063d7f       __unwindfunclet$?Initialize@SpectatorPanel@@QAEXXZ$17 10064d7f f   vgui_SpectatorPanel.obj
 0001:00063d8a       __unwindfunclet$?Initialize@SpectatorPanel@@QAEXXZ$18 10064d8a f   vgui_SpectatorPanel.obj
 0001:00063d95       __unwindfunclet$?Initialize@SpectatorPanel@@QAEXXZ$36 10064d95 f   vgui_SpectatorPanel.obj
 0001:00063da0       __unwindfunclet$?Initialize@SpectatorPanel@@QAEXXZ$37 10064da0 f   vgui_SpectatorPanel.obj
 0001:00063dab       __unwindfunclet$?Initialize@SpectatorPanel@@QAEXXZ$38 10064dab f   vgui_SpectatorPanel.obj
 0001:00063db6       __unwindfunclet$?Initialize@SpectatorPanel@@QAEXXZ$39 10064db6 f   vgui_SpectatorPanel.obj
 0001:00063dc1       __ehhandler$?Initialize@SpectatorPanel@@QAEXXZ 10064dc1 f   vgui_SpectatorPanel.obj
 0001:00063de0       __unwindfunclet$??0ToggleCommandButton@@QAE@PBD0HHHH_N@Z$0 10064de0 f   vgui_TeamFortressViewport.obj
 0001:00063deb       __unwindfunclet$??0ToggleCommandButton@@QAE@PBD0HHHH_N@Z$1 10064deb f   vgui_TeamFortressViewport.obj
 0001:00063df6       __ehhandler$??0ToggleCommandButton@@QAE@PBD0HHHH_N@Z 10064df6 f   vgui_TeamFortressViewport.obj
 0001:00063e20       __unwindfunclet$??0SpectToggleButton@@QAE@PBD0HHHH_N@Z$0 10064e20 f   vgui_TeamFortressViewport.obj
 0001:00063e2b       __ehhandler$??0SpectToggleButton@@QAE@PBD0HHHH_N@Z 10064e2b f   vgui_TeamFortressViewport.obj
 0001:00063e50       __unwindfunclet$?CreateSubMenu@TeamFortressViewport@@QAEPAVCCommandMenu@@PAVCommandButton@@PAV2@HH@Z$0 10064e50 f   vgui_TeamFortressViewport.obj
 0001:00063e5b       __unwindfunclet$?CreateSubMenu@TeamFortressViewport@@QAEPAVCCommandMenu@@PAVCommandButton@@PAV2@HH@Z$2 10064e5b f   vgui_TeamFortressViewport.obj
 0001:00063e66       __ehhandler$?CreateSubMenu@TeamFortressViewport@@QAEPAVCCommandMenu@@PAVCommandButton@@PAV2@HH@Z 10064e66 f   vgui_TeamFortressViewport.obj
 0001:00063e90       __unwindfunclet$?CreateDisguiseSubmenu@TeamFortressViewport@@QAEPAVCCommandMenu@@PAVCommandButton@@PAV2@PBDHH@Z$0 10064e90 f   vgui_TeamFortressViewport.obj
 0001:00063e9e       __ehhandler$?CreateDisguiseSubmenu@TeamFortressViewport@@QAEPAVCCommandMenu@@PAVCommandButton@@PAV2@PBDHH@Z 10064e9e f   vgui_TeamFortressViewport.obj
 0001:00063ed0       __unwindfunclet$?CreateCustomButton@TeamFortressViewport@@QAEPAVCommandButton@@PAD0H@Z$0 10064ed0 f   vgui_TeamFortressViewport.obj
 0001:00063ede       __unwindfunclet$?CreateCustomButton@TeamFortressViewport@@QAEPAVCommandButton@@PAD0H@Z$1 10064ede f   vgui_TeamFortressViewport.obj
 0001:00063eec       __unwindfunclet$?CreateCustomButton@TeamFortressViewport@@QAEPAVCommandButton@@PAD0H@Z$3 10064eec f   vgui_TeamFortressViewport.obj
 0001:00063efa       __unwindfunclet$?CreateCustomButton@TeamFortressViewport@@QAEPAVCommandButton@@PAD0H@Z$5 10064efa f   vgui_TeamFortressViewport.obj
 0001:00063f08       __unwindfunclet$?CreateCustomButton@TeamFortressViewport@@QAEPAVCommandButton@@PAD0H@Z$7 10064f08 f   vgui_TeamFortressViewport.obj
 0001:00063f16       __unwindfunclet$?CreateCustomButton@TeamFortressViewport@@QAEPAVCommandButton@@PAD0H@Z$8 10064f16 f   vgui_TeamFortressViewport.obj
 0001:00063f24       __unwindfunclet$?CreateCustomButton@TeamFortressViewport@@QAEPAVCommandButton@@PAD0H@Z$10 10064f24 f   vgui_TeamFortressViewport.obj
 0001:00063f32       __unwindfunclet$?CreateCustomButton@TeamFortressViewport@@QAEPAVCommandButton@@PAD0H@Z$13 10064f32 f   vgui_TeamFortressViewport.obj
 0001:00063f40       __unwindfunclet$?CreateCustomButton@TeamFortressViewport@@QAEPAVCommandButton@@PAD0H@Z$16 10064f40 f   vgui_TeamFortressViewport.obj
 0001:00063f4e       __unwindfunclet$?CreateCustomButton@TeamFortressViewport@@QAEPAVCommandButton@@PAD0H@Z$19 10064f4e f   vgui_TeamFortressViewport.obj
 0001:00063f5c       __unwindfunclet$?CreateCustomButton@TeamFortressViewport@@QAEPAVCommandButton@@PAD0H@Z$20 10064f5c f   vgui_TeamFortressViewport.obj
 0001:00063f6a       __unwindfunclet$?CreateCustomButton@TeamFortressViewport@@QAEPAVCommandButton@@PAD0H@Z$23 10064f6a f   vgui_TeamFortressViewport.obj
 0001:00063f78       __unwindfunclet$?CreateCustomButton@TeamFortressViewport@@QAEPAVCommandButton@@PAD0H@Z$26 10064f78 f   vgui_TeamFortressViewport.obj
 0001:00063f86       __unwindfunclet$?CreateCustomButton@TeamFortressViewport@@QAEPAVCommandButton@@PAD0H@Z$29 10064f86 f   vgui_TeamFortressViewport.obj
 0001:00063f94       __unwindfunclet$?CreateCustomButton@TeamFortressViewport@@QAEPAVCommandButton@@PAD0H@Z$30 10064f94 f   vgui_TeamFortressViewport.obj
 0001:00063fa2       __unwindfunclet$?CreateCustomButton@TeamFortressViewport@@QAEPAVCommandButton@@PAD0H@Z$31 10064fa2 f   vgui_TeamFortressViewport.obj
 0001:00063fb0       __unwindfunclet$?CreateCustomButton@TeamFortressViewport@@QAEPAVCommandButton@@PAD0H@Z$32 10064fb0 f   vgui_TeamFortressViewport.obj
 0001:00063fbe       __unwindfunclet$?CreateCustomButton@TeamFortressViewport@@QAEPAVCommandButton@@PAD0H@Z$33 10064fbe f   vgui_TeamFortressViewport.obj
 0001:00063fcc       __unwindfunclet$?CreateCustomButton@TeamFortressViewport@@QAEPAVCommandButton@@PAD0H@Z$34 10064fcc f   vgui_TeamFortressViewport.obj
 0001:00063fda       __unwindfunclet$?CreateCustomButton@TeamFortressViewport@@QAEPAVCommandButton@@PAD0H@Z$36 10064fda f   vgui_TeamFortressViewport.obj
 0001:00063fe8       __unwindfunclet$?CreateCustomButton@TeamFortressViewport@@QAEPAVCommandButton@@PAD0H@Z$38 10064fe8 f   vgui_TeamFortressViewport.obj
 0001:00063ff6       __unwindfunclet$?CreateCustomButton@TeamFortressViewport@@QAEPAVCommandButton@@PAD0H@Z$40 10064ff6 f   vgui_TeamFortressViewport.obj
 0001:00064004       __unwindfunclet$?CreateCustomButton@TeamFortressViewport@@QAEPAVCommandButton@@PAD0H@Z$43 10065004 f   vgui_TeamFortressViewport.obj
 0001:00064012       __unwindfunclet$?CreateCustomButton@TeamFortressViewport@@QAEPAVCommandButton@@PAD0H@Z$44 10065012 f   vgui_TeamFortressViewport.obj
 0001:00064020       __unwindfunclet$?CreateCustomButton@TeamFortressViewport@@QAEPAVCommandButton@@PAD0H@Z$47 10065020 f   vgui_TeamFortressViewport.obj
 0001:0006402e       __unwindfunclet$?CreateCustomButton@TeamFortressViewport@@QAEPAVCommandButton@@PAD0H@Z$50 1006502e f   vgui_TeamFortressViewport.obj
 0001:0006403c       __unwindfunclet$?CreateCustomButton@TeamFortressViewport@@QAEPAVCommandButton@@PAD0H@Z$53 1006503c f   vgui_TeamFortressViewport.obj
 0001:0006404a       __unwindfunclet$?CreateCustomButton@TeamFortressViewport@@QAEPAVCommandButton@@PAD0H@Z$56 1006504a f   vgui_TeamFortressViewport.obj
 0001:00064058       __unwindfunclet$?CreateCustomButton@TeamFortressViewport@@QAEPAVCommandButton@@PAD0H@Z$59 10065058 f   vgui_TeamFortressViewport.obj
 0001:00064066       __unwindfunclet$?CreateCustomButton@TeamFortressViewport@@QAEPAVCommandButton@@PAD0H@Z$62 10065066 f   vgui_TeamFortressViewport.obj
 0001:00064074       __unwindfunclet$?CreateCustomButton@TeamFortressViewport@@QAEPAVCommandButton@@PAD0H@Z$65 10065074 f   vgui_TeamFortressViewport.obj
 0001:00064082       __unwindfunclet$?CreateCustomButton@TeamFortressViewport@@QAEPAVCommandButton@@PAD0H@Z$68 10065082 f   vgui_TeamFortressViewport.obj
 0001:00064090       __ehhandler$?CreateCustomButton@TeamFortressViewport@@QAEPAVCommandButton@@PAD0H@Z 10065090 f   vgui_TeamFortressViewport.obj
 0001:000640c0       __unwindfunclet$?CreateClassMenu@TeamFortressViewport@@AAEXXZ$0 100650c0 f   vgui_TeamFortressViewport.obj
 0001:000640c0       __unwindfunclet$?CreateServerBrowser@TeamFortressViewport@@QAEXXZ$0 100650c0 f   vgui_TeamFortressViewport.obj
 0001:000640c0       __unwindfunclet$?CreateSpectatorMenu@TeamFortressViewport@@AAEXXZ$0 100650c0 f   vgui_TeamFortressViewport.obj
 0001:000640c0       __unwindfunclet$?CreateTeamMenu@TeamFortressViewport@@AAEXXZ$0 100650c0 f   vgui_TeamFortressViewport.obj
 0001:000640cb       __ehhandler$?CreateSpectatorMenu@TeamFortressViewport@@AAEXXZ 100650cb f   vgui_TeamFortressViewport.obj
 0001:000640cb       __ehhandler$?CreateServerBrowser@TeamFortressViewport@@QAEXXZ 100650cb f   vgui_TeamFortressViewport.obj
 0001:000640cb       __ehhandler$?CreateTeamMenu@TeamFortressViewport@@AAEXXZ 100650cb f   vgui_TeamFortressViewport.obj
 0001:000640cb       __ehhandler$?CreateClassMenu@TeamFortressViewport@@AAEXXZ 100650cb f   vgui_TeamFortressViewport.obj
 0001:000640f0       __unwindfunclet$?CreateCommandMenu@TeamFortressViewport@@QAEHPADHH_NMMH@Z$2 100650f0 f   vgui_TeamFortressViewport.obj
 0001:000640fe       __unwindfunclet$?CreateCommandMenu@TeamFortressViewport@@QAEHPADHH_NMMH@Z$3 100650fe f   vgui_TeamFortressViewport.obj
 0001:0006410c       __unwindfunclet$?CreateCommandMenu@TeamFortressViewport@@QAEHPADHH_NMMH@Z$4 1006510c f   vgui_TeamFortressViewport.obj
 0001:0006411a       __unwindfunclet$?CreateCommandMenu@TeamFortressViewport@@QAEHPADHH_NMMH@Z$5 1006511a f   vgui_TeamFortressViewport.obj
 0001:00064128       __unwindfunclet$?CreateCommandMenu@TeamFortressViewport@@QAEHPADHH_NMMH@Z$6 10065128 f   vgui_TeamFortressViewport.obj
 0001:00064136       __unwindfunclet$?CreateCommandMenu@TeamFortressViewport@@QAEHPADHH_NMMH@Z$7 10065136 f   vgui_TeamFortressViewport.obj
 0001:00064144       __unwindfunclet$?CreateCommandMenu@TeamFortressViewport@@QAEHPADHH_NMMH@Z$8 10065144 f   vgui_TeamFortressViewport.obj
 0001:00064152       __unwindfunclet$?CreateCommandMenu@TeamFortressViewport@@QAEHPADHH_NMMH@Z$9 10065152 f   vgui_TeamFortressViewport.obj
 0001:00064160       __ehhandler$?CreateCommandMenu@TeamFortressViewport@@QAEHPADHH_NMMH@Z 10065160 f   vgui_TeamFortressViewport.obj
 0001:00064190       __unwindfunclet$??0TeamFortressViewport@@QAE@HHHH@Z$0 10065190 f   vgui_TeamFortressViewport.obj
 0001:0006419e       __ehhandler$??0TeamFortressViewport@@QAE@HHHH@Z 1006519e f   vgui_TeamFortressViewport.obj
 0001:000641c0       __unwindfunclet$??0CTeamMenuPanel@@QAE@HHHHHH@Z$0 100651c0 f   vgui_teammenu.obj
 0001:000641ce       __unwindfunclet$??0CTeamMenuPanel@@QAE@HHHHHH@Z$1 100651ce f   vgui_teammenu.obj
 0001:000641dc       __unwindfunclet$??0CTeamMenuPanel@@QAE@HHHHHH@Z$2 100651dc f   vgui_teammenu.obj
 0001:000641ea       __unwindfunclet$??0CTeamMenuPanel@@QAE@HHHHHH@Z$3 100651ea f   vgui_teammenu.obj
 0001:000641f8       __unwindfunclet$??0CTeamMenuPanel@@QAE@HHHHHH@Z$4 100651f8 f   vgui_teammenu.obj
 0001:00064206       __unwindfunclet$??0CTeamMenuPanel@@QAE@HHHHHH@Z$5 10065206 f   vgui_teammenu.obj
 0001:00064214       __unwindfunclet$??0CTeamMenuPanel@@QAE@HHHHHH@Z$6 10065214 f   vgui_teammenu.obj
 0001:00064222       __unwindfunclet$??0CTeamMenuPanel@@QAE@HHHHHH@Z$9 10065222 f   vgui_teammenu.obj
 0001:00064230       __unwindfunclet$??0CTeamMenuPanel@@QAE@HHHHHH@Z$10 10065230 f   vgui_teammenu.obj
 0001:0006423e       __unwindfunclet$??0CTeamMenuPanel@@QAE@HHHHHH@Z$12 1006523e f   vgui_teammenu.obj
 0001:0006424c       __ehhandler$??0CTeamMenuPanel@@QAE@HHHHHH@Z 1006524c f   vgui_teammenu.obj
 0001:00064280       __unwindfunclet$??$GetClassPtr@VCTripmine@@@@YAPAVCTripmine@@PAV0@@Z$0 10065280 f   egon.obj
 0001:00064280       __unwindfunclet$??$GetClassPtr@VCChumToadWeapon@@@@YAPAVCChumToadWeapon@@PAV0@@Z$0 10065280 f   egon.obj
 0001:00064280       __unwindfunclet$??$GetClassPtr@VCPython@@@@YAPAVCPython@@PAV0@@Z$0 10065280 f   egon.obj
 0001:00064280       __unwindfunclet$??$GetClassPtr@VCSatchel@@@@YAPAVCSatchel@@PAV0@@Z$0 10065280 f   egon.obj
 0001:00064280       __unwindfunclet$??$GetClassPtr@VCCrossbow@@@@YAPAVCCrossbow@@PAV0@@Z$0 10065280 f   egon.obj
 0001:00064280       __unwindfunclet$??$GetClassPtr@VCSqueak@@@@YAPAVCSqueak@@PAV0@@Z$0 10065280 f   egon.obj
 0001:00064280       __unwindfunclet$??$GetClassPtr@VCHandGrenade@@@@YAPAVCHandGrenade@@PAV0@@Z$0 10065280 f   egon.obj
 0001:00064280       __unwindfunclet$??$GetClassPtr@VCShotgun@@@@YAPAVCShotgun@@PAV0@@Z$0 10065280 f   egon.obj
 0001:00064280       __unwindfunclet$??$GetClassPtr@VCEgon@@@@YAPAVCEgon@@PAV0@@Z$0 10065280 f   egon.obj
 0001:00064280       __unwindfunclet$??$GetClassPtr@VCGlock@@@@YAPAVCGlock@@PAV0@@Z$0 10065280 f   egon.obj
 0001:00064291       __ehhandler$??$GetClassPtr@VCGlock@@@@YAPAVCGlock@@PAV0@@Z 10065291 f   egon.obj
 0001:00064291       __ehhandler$??$GetClassPtr@VCSqueak@@@@YAPAVCSqueak@@PAV0@@Z 10065291 f   egon.obj
 0001:00064291       __ehhandler$??$GetClassPtr@VCTripmine@@@@YAPAVCTripmine@@PAV0@@Z 10065291 f   egon.obj
 0001:00064291       __ehhandler$??$GetClassPtr@VCShotgun@@@@YAPAVCShotgun@@PAV0@@Z 10065291 f   egon.obj
 0001:00064291       __ehhandler$??$GetClassPtr@VCChumToadWeapon@@@@YAPAVCChumToadWeapon@@PAV0@@Z 10065291 f   egon.obj
 0001:00064291       __ehhandler$??$GetClassPtr@VCHandGrenade@@@@YAPAVCHandGrenade@@PAV0@@Z 10065291 f   egon.obj
 0001:00064291       __ehhandler$??$GetClassPtr@VCPython@@@@YAPAVCPython@@PAV0@@Z 10065291 f   egon.obj
 0001:00064291       __ehhandler$??$GetClassPtr@VCEgon@@@@YAPAVCEgon@@PAV0@@Z 10065291 f   egon.obj
 0001:00064291       __ehhandler$??$GetClassPtr@VCCrossbow@@@@YAPAVCCrossbow@@PAV0@@Z 10065291 f   egon.obj
 0001:00064291       __ehhandler$??$GetClassPtr@VCSatchel@@@@YAPAVCSatchel@@PAV0@@Z 10065291 f   egon.obj
 0001:000642b0       __unwindfunclet$??$GetClassPtr@VCShotgunAmmo@@@@YAPAVCShotgunAmmo@@PAV0@@Z$0 100652b0 f   mp5.obj
 0001:000642b0       __unwindfunclet$??$GetClassPtr@VCRpg@@@@YAPAVCRpg@@PAV0@@Z$0 100652b0 f   mp5.obj
 0001:000642b0       __unwindfunclet$??$GetClassPtr@VCRpgAmmo@@@@YAPAVCRpgAmmo@@PAV0@@Z$0 100652b0 f   mp5.obj
 0001:000642b0       __unwindfunclet$??$GetClassPtr@VCCrossbowAmmo@@@@YAPAVCCrossbowAmmo@@PAV0@@Z$0 100652b0 f   mp5.obj
 0001:000642b0       __unwindfunclet$??$GetClassPtr@VCCrowbar@@@@YAPAVCCrowbar@@PAV0@@Z$0 100652b0 f   mp5.obj
 0001:000642b0       __unwindfunclet$??$GetClassPtr@VCLaserSpotPython@@@@YAPAVCLaserSpotPython@@PAV0@@Z$0 100652b0 f   mp5.obj
 0001:000642b0       __unwindfunclet$??$GetClassPtr@VCPythonAmmo@@@@YAPAVCPythonAmmo@@PAV0@@Z$0 100652b0 f   mp5.obj
 0001:000642b0       __unwindfunclet$??$GetClassPtr@VCGauss@@@@YAPAVCGauss@@PAV0@@Z$0 100652b0 f   mp5.obj
 0001:000642b0       __unwindfunclet$??$GetClassPtr@VCGaussAmmo@@@@YAPAVCGaussAmmo@@PAV0@@Z$0 100652b0 f   mp5.obj
 0001:000642b0       __unwindfunclet$??$GetClassPtr@VCGlockAmmo@@@@YAPAVCGlockAmmo@@PAV0@@Z$0 100652b0 f   mp5.obj
 0001:000642b0       __unwindfunclet$??$GetClassPtr@VCEgonAmmo@@@@YAPAVCEgonAmmo@@PAV0@@Z$0 100652b0 f   mp5.obj
 0001:000642b0       __unwindfunclet$??$GetClassPtr@VCSatchelCharge@@@@YAPAVCSatchelCharge@@PAV0@@Z$0 100652b0 f   mp5.obj
 0001:000642b0       __unwindfunclet$??$GetClassPtr@VCMP5@@@@YAPAVCMP5@@PAV0@@Z$0 100652b0 f   mp5.obj
 0001:000642b0       __unwindfunclet$??$GetClassPtr@VCMP5AmmoClip@@@@YAPAVCMP5AmmoClip@@PAV0@@Z$0 100652b0 f   mp5.obj
 0001:000642b0       __unwindfunclet$??$GetClassPtr@VCHgun@@@@YAPAVCHgun@@PAV0@@Z$0 100652b0 f   mp5.obj
 0001:000642b0       __unwindfunclet$??$GetClassPtr@VCMP5Chainammo@@@@YAPAVCMP5Chainammo@@PAV0@@Z$0 100652b0 f   mp5.obj
 0001:000642b0       __unwindfunclet$??$GetClassPtr@VCMP5AmmoGrenade@@@@YAPAVCMP5AmmoGrenade@@PAV0@@Z$0 100652b0 f   mp5.obj
 0001:000642c1       __ehhandler$??$GetClassPtr@VCMP5Chainammo@@@@YAPAVCMP5Chainammo@@PAV0@@Z 100652c1 f   mp5.obj
 0001:000642c1       __ehhandler$??$GetClassPtr@VCMP5AmmoGrenade@@@@YAPAVCMP5AmmoGrenade@@PAV0@@Z 100652c1 f   mp5.obj
 0001:000642c1       __ehhandler$??$GetClassPtr@VCMP5AmmoClip@@@@YAPAVCMP5AmmoClip@@PAV0@@Z 100652c1 f   mp5.obj
 0001:000642c1       __ehhandler$??$GetClassPtr@VCHgun@@@@YAPAVCHgun@@PAV0@@Z 100652c1 f   mp5.obj
 0001:000642c1       __ehhandler$??$GetClassPtr@VCRpgAmmo@@@@YAPAVCRpgAmmo@@PAV0@@Z 100652c1 f   mp5.obj
 0001:000642c1       __ehhandler$??$GetClassPtr@VCSatchelCharge@@@@YAPAVCSatchelCharge@@PAV0@@Z 100652c1 f   mp5.obj
 0001:000642c1       __ehhandler$??$GetClassPtr@VCShotgunAmmo@@@@YAPAVCShotgunAmmo@@PAV0@@Z 100652c1 f   mp5.obj
 0001:000642c1       __ehhandler$??$GetClassPtr@VCLaserSpotPython@@@@YAPAVCLaserSpotPython@@PAV0@@Z 100652c1 f   mp5.obj
 0001:000642c1       __ehhandler$??$GetClassPtr@VCGauss@@@@YAPAVCGauss@@PAV0@@Z 100652c1 f   mp5.obj
 0001:000642c1       __ehhandler$??$GetClassPtr@VCPythonAmmo@@@@YAPAVCPythonAmmo@@PAV0@@Z 100652c1 f   mp5.obj
 0001:000642c1       __ehhandler$??$GetClassPtr@VCMP5@@@@YAPAVCMP5@@PAV0@@Z 100652c1 f   mp5.obj
 0001:000642c1       __ehhandler$??$GetClassPtr@VCGaussAmmo@@@@YAPAVCGaussAmmo@@PAV0@@Z 100652c1 f   mp5.obj
 0001:000642c1       __ehhandler$??$GetClassPtr@VCEgonAmmo@@@@YAPAVCEgonAmmo@@PAV0@@Z 100652c1 f   mp5.obj
 0001:000642c1       __ehhandler$??$GetClassPtr@VCCrossbowAmmo@@@@YAPAVCCrossbowAmmo@@PAV0@@Z 100652c1 f   mp5.obj
 0001:000642c1       __ehhandler$??$GetClassPtr@VCCrowbar@@@@YAPAVCCrowbar@@PAV0@@Z 100652c1 f   mp5.obj
 0001:000642c1       __ehhandler$??$GetClassPtr@VCGlockAmmo@@@@YAPAVCGlockAmmo@@PAV0@@Z 100652c1 f   mp5.obj
 0001:000642c1       __ehhandler$??$GetClassPtr@VCRpg@@@@YAPAVCRpg@@PAV0@@Z 100652c1 f   mp5.obj
 0001:000642e0       __unwindfunclet$??0ScrollBar2@vgui@@QAE@HHHH_N@Z$0 100652e0 f   vgui_scrollbar2.obj
 0001:000642eb       __unwindfunclet$??0ScrollBar2@vgui@@QAE@HHHH_N@Z$1 100652eb f   vgui_scrollbar2.obj
 0001:000642f6       __unwindfunclet$??0ScrollBar2@vgui@@QAE@HHHH_N@Z$2 100652f6 f   vgui_scrollbar2.obj
 0001:00064301       __unwindfunclet$??0ScrollBar2@vgui@@QAE@HHHH_N@Z$3 10065301 f   vgui_scrollbar2.obj
 0001:0006430c       __unwindfunclet$??0ScrollBar2@vgui@@QAE@HHHH_N@Z$4 1006530c f   vgui_scrollbar2.obj
 0001:00064317       __unwindfunclet$??0ScrollBar2@vgui@@QAE@HHHH_N@Z$5 10065317 f   vgui_scrollbar2.obj
 0001:00064322       __ehhandler$??0ScrollBar2@vgui@@QAE@HHHH_N@Z 10065322 f   vgui_scrollbar2.obj
 0001:00064340       __unwindfunclet$??1CVoiceStatus@@UAE@XZ$0 10065340 f   voice_status.obj
 0001:00064348       __unwindfunclet$??1CVoiceStatus@@UAE@XZ$1 10065348 f   voice_status.obj
 0001:00064356       __ehhandler$??1CVoiceStatus@@UAE@XZ 10065356 f   voice_status.obj
 0001:00064380       __unwindfunclet$??0CVoiceStatus@@QAE@XZ$0 10065380 f   voice_status.obj
 0001:00064388       __ehhandler$??0CVoiceStatus@@QAE@XZ 10065388 f   voice_status.obj
 0001:000643b0       __unwindfunclet$?Init@CVoiceStatus@@UAEHPAVIVoiceStatusHelper@@PAPAVPanel@vgui@@@Z$0 100653b0 f   voice_status.obj
 0001:000643bb       __unwindfunclet$?Init@CVoiceStatus@@UAEHPAVIVoiceStatusHelper@@PAPAVPanel@vgui@@@Z$1 100653bb f   voice_status.obj
 0001:000643c6       __unwindfunclet$?Init@CVoiceStatus@@UAEHPAVIVoiceStatusHelper@@PAPAVPanel@vgui@@@Z$2 100653c6 f   voice_status.obj
 0001:000643d1       __unwindfunclet$?Init@CVoiceStatus@@UAEHPAVIVoiceStatusHelper@@PAPAVPanel@vgui@@@Z$3 100653d1 f   voice_status.obj
 0001:000643dc       __ehhandler$?Init@CVoiceStatus@@UAEHPAVIVoiceStatusHelper@@PAPAVPanel@vgui@@@Z 100653dc f   voice_status.obj
 0001:000643f7       __ehhandler$?CallUnexpected@@YAXPBU_s_ESTypeList@@@Z 100653f7 f   LIBCMT:frame.obj
 0001:00064420       ??__EgHUD@@YAXXZ           10065420 f   cdll_int.obj
 0001:00064440       ??__Eg_StudioRenderer@@YAXXZ 10065440 f   GameStudioModelRenderer.obj
 0001:00064460       ??__Eg_VoiceStatusHelper@@YAXXZ 10065460 f   hud.obj
 0001:00064470       ??__Eplayer@@YAXXZ         10065470 f   hl_weapons.obj
 0001:00064480       ??__Eg_Glock@@YAXXZ        10065480 f   hl_weapons.obj
 0001:00064490       ??__Eg_Crowbar@@YAXXZ      10065490 f   hl_weapons.obj
 0001:000644b0       ??__Eg_Python@@YAXXZ       100654b0 f   hl_weapons.obj
 0001:000644c0       ??__Eg_Mp5@@YAXXZ          100654c0 f   hl_weapons.obj
 0001:000644e0       ??__Eg_Crossbow@@YAXXZ     100654e0 f   hl_weapons.obj
 0001:000644f0       ??__Eg_Shotgun@@YAXXZ      100654f0 f   hl_weapons.obj
 0001:00064500       ??__Eg_Rpg@@YAXXZ          10065500 f   hl_weapons.obj
 0001:00064520       ??__Eg_Gauss@@YAXXZ        10065520 f   hl_weapons.obj
 0001:00064540       ??__Eg_Egon@@YAXXZ         10065540 f   hl_weapons.obj
 0001:00064550       ??__Eg_HGun@@YAXXZ         10065550 f   hl_weapons.obj
 0001:00064570       ??__Eg_HandGren@@YAXXZ     10065570 f   hl_weapons.obj
 0001:00064580       ??__Eg_Satchel@@YAXXZ      10065580 f   hl_weapons.obj
 0001:00064590       ??__Eg_Tripmine@@YAXXZ     10065590 f   hl_weapons.obj
 0001:000645a0       ??__Eg_Snark@@YAXXZ        100655a0 f   hl_weapons.obj
 0001:000645b0       ??__Eg_ChumToadWeapon@@YAXXZ 100655b0 f   hl_weapons.obj
 0001:000645c0       ??__Eg_VoiceStatus@@YAXXZ  100655c0 f   voice_status.obj
 0001:000645e0       ??__FgHUD@@YAXXZ           100655e0 f   cdll_int.obj
 0001:000645f0       ??__Fg_StudioRenderer@@YAXXZ 100655f0 f   GameStudioModelRenderer.obj
 0001:00064600       ??__Fg_VoiceStatusHelper@@YAXXZ 10065600 f   hud.obj
 0001:00064610       ??__FtmpSchemes@?1???0CSchemeManager@@QAE@HH@Z@YAXXZ 10065610 f   vgui_SchemeManager.obj
 0001:00064630       ??__Fg_VoiceStatus@@YAXXZ  10065630 f   voice_status.obj
 0001:0006463a       ??__Fnomem@?5???2@YAPAXI@Z@YAXXZ 1006563a f   LIBCMT:new.obj
