 hl

 Timestamp is 5b877deb (Thu Aug 30 01:17:31 2018)

 Preferred load address is 10000000

 Start         Length     Name                   Class
 0001:00000000 0014d265H .text                   CODE
 0001:0014d270 00003207H .text$x                 CODE
 0001:00150480 0000024aH .text$yc                CODE
 0001:001506d0 0000002fH .text$yd                CODE
 0002:00000000 00000178H .idata$5                DATA
 0002:00000178 00000004H .CRT$XCA                DATA
 0002:0000017c 00000018H .CRT$XCU                DATA
 0002:00000194 00000004H .CRT$XCZ                DATA
 0002:00000198 00000004H .CRT$XIA                DATA
 0002:0000019c 00000014H .CRT$XIC                DATA
 0002:000001b0 00000004H .CRT$XIZ                DATA
 0002:000001b4 00000004H .CRT$XPA                DATA
 0002:000001b8 00000004H .CRT$XPX                DATA
 0002:000001bc 00000004H .CRT$XPXA               DATA
 0002:000001c0 00000004H .CRT$XPZ                DATA
 0002:000001c4 00000004H .CRT$XTA                DATA
 0002:000001c8 00000004H .CRT$XTZ                DATA
 0002:000001d0 000568e0H .rdata                  DATA
 0002:00056ab0 00000056H .rdata$debug            DATA
 0002:00056b08 00006040H .rdata$r                DATA
 0002:0005cb50 00000440H .rdata$sxdata           DATA
 0002:0005cf90 00000004H .rtc$IAA                DATA
 0002:0005cf94 00000004H .rtc$IZZ                DATA
 0002:0005cf98 00000004H .rtc$TAA                DATA
 0002:0005cf9c 00000004H .rtc$TZZ                DATA
 0002:0005cfa0 00009374H .xdata$x                DATA
 0002:00066314 00000014H .idata$2                DATA
 0002:00066328 00000014H .idata$3                DATA
 0002:0006633c 00000178H .idata$4                DATA
 0002:000664b4 000006daH .idata$6                DATA
 0002:00066b90 00005495H .edata                  DATA
 0003:00000000 0000e160H .data                   DATA
 0003:0000e160 00025434H .bss                    DATA

  Address         Publics by Value              Rva+Base       Lib:Object

 0000:00000000       __except_list              00000000     <absolute>
 0000:00000110       ___safe_se_handler_count   00000110     <absolute>
 0000:00000000       ___ImageBase               10000000     <linker-defined>
 0001:00000000       ?ENT@@YAPAUedict_s@@PBUentvars_s@@@Z 10001000 f i util_printout.obj
 0001:00000010       ?MESSAGE_BEGIN@@YAXHHPBMPAUentvars_s@@@Z 10001010 f i util_printout.obj
 0001:00000040       ?MESSAGE_BEGIN@@YAXHHPBMPAUedict_s@@@Z 10001040 f i util_printout.obj
 0001:00000050       ?UTIL_VarArgs@@YAPADPADZZ  10001050 f   util_printout.obj
 0001:00000070       ?UTIL_VarArgs_ID@@YAPADPADZZ 10001070 f   util_printout.obj
 0001:000000b0       ?UTIL_VarArgsVA@@YAPADPBDPAD@Z 100010b0 f   util_printout.obj
 0001:000000d0       ?UTIL_VarArgsVA_ID@@YAPADPBDPAD@Z 100010d0 f   util_printout.obj
 0001:000000f0       ?UTIL_VarArgsVA_Custom@@YAPADPBD0HPAD@Z 100010f0 f   util_printout.obj
 0001:00000110       ?easyPrint@@YAXPBDZZ       10001110 f   util_printout.obj
 0001:00000140       ?easyForcePrint@@YAXPBDZZ  10001140 f   util_printout.obj
 0001:00000160       ?easyPrintLine@@YAXPBDZZ   10001160 f   util_printout.obj
 0001:000001b0       ?easyForcePrintLine@@YAXPBDZZ 100011b0 f   util_printout.obj
 0001:000001f0       ?UTIL_printLineVector@@YAXABVVector@@@Z 100011f0 f   util_printout.obj
 0001:00000230       ?UTIL_printLineVector@@YAXMMM@Z 10001230 f   util_printout.obj
 0001:00000270       ?UTIL_printLineVector@@YAXPBDABVVector@@@Z 10001270 f   util_printout.obj
 0001:000002b0       ?UTIL_printLineVector@@YAXPBDMMM@Z 100012b0 f   util_printout.obj
 0001:000002f0       ?UTIL_printVector@@YAXABVVector@@@Z 100012f0 f   util_printout.obj
 0001:00000330       ?UTIL_printVector@@YAXMMM@Z 10001330 f   util_printout.obj
 0001:00000370       ?UTIL_printVector@@YAXPBDABVVector@@@Z 10001370 f   util_printout.obj
 0001:000003b0       ?UTIL_printVector@@YAXPBDMMM@Z 100013b0 f   util_printout.obj
 0001:000003f0       ?easyPrintLineDummy@@YAXPBDZZ 100013f0 f   util_printout.obj
 0001:00000400       ?easyPrintClient@@YAXPAUedict_s@@PBDZZ 10001400 f   util_printout.obj
 0001:00000440       ?easyForcePrintClient@@YAXPAUedict_s@@PBDZZ 10001440 f   util_printout.obj
 0001:00000470       ?easyPrintLineClient@@YAXPAUedict_s@@PBDZZ 10001470 f   util_printout.obj
 0001:000004d0       ?easyForcePrintLineClient@@YAXPAUedict_s@@PBDZZ 100014d0 f   util_printout.obj
 0001:00000520       ?UTIL_ClientPrintAll@@YAXHPBD0000@Z 10001520 f   util_printout.obj
 0001:000005a0       ?ClientPrint@@YAXPAUentvars_s@@HPBD1111@Z 100015a0 f   util_printout.obj
 0001:00000620       ?easyPrintLineHgrunt@@YAXPBDZZ 10001620 f   util_printout.obj
 0001:00000630       ?easyPrintLinePanthereye@@YAXPBDZZ 10001630 f   util_printout.obj
 0001:00000670       ?easyPrintLineSquadmonster@@YAXPBDZZ 10001670 f   util_printout.obj
 0001:000006b0       ?easyPrintLineHassault@@YAXPBDZZ 100016b0 f   util_printout.obj
 0001:000006f0       ?easyPrintLineGargantua@@YAXPBDZZ 100016f0 f   util_printout.obj
 0001:00000730       ?easyprintlineBarnacle@@YAXPBDZZ 10001730 f   util_printout.obj
 0001:00000770       ?easyPrintLineHoundeye@@YAXPBDZZ 10001770 f   util_printout.obj
 0001:000007b0       ?easyPrintLineGroup1@@YAXPBDZZ 100017b0 f   util_printout.obj
 0001:000007c0       ?easyPrintLineGroup2@@YAXPBDZZ 100017c0 f   util_printout.obj
 0001:000007d0       ?easyPrintLineGroup3@@YAXPBDZZ 100017d0 f   util_printout.obj
 0001:000007e0       ?easyPrintLineGroup4@@YAXPBDZZ 100017e0 f   util_printout.obj
 0001:000007f0       _ceilf                     100017f0 f i util_shared.obj
 0001:00000810       _floorf                    10001810 f i util_shared.obj
 0001:00000830       ?ceil@@YAMM@Z              10001830 f i util_shared.obj
 0001:00000850       ?floor@@YAMM@Z             10001850 f i util_shared.obj
 0001:00000880       ?copy@?$char_traits@D@std@@SAPADPADPBDI@Z 10001880 f i util_shared.obj
 0001:00000890       ?assign@?$char_traits@D@std@@SAXAADABD@Z 10001890 f i util_shared.obj
 0001:000008a0       ?SUB_CallUseToggle@CBaseEntity@@QAEXXZ 100018a0 f i util_shared.obj
 0001:000008c0       ?FClassname@@YAPBDPAVCBaseEntity@@@Z 100018c0 f   util_shared.obj
 0001:000008f0       ?stringStartsWith@@YAHPBD0@Z 100018f0 f   util_shared.obj
 0001:00000930       ?checkMatch@@YAHPBDPADH@Z  10001930 f   util_shared.obj
 0001:00000970       ?checkMatchIgnoreCase@@YAHPBDPADH@Z 10001970 f   util_shared.obj
 0001:000009d0       ?tryIntToString@@YAPBDH@Z  100019d0 f   util_shared.obj
 0001:000009f0       ?tryStringToInt@@YAHPBD@Z  100019f0 f   util_shared.obj
 0001:00000ac0       ?tryStringToFloat@@YAMPBD@Z 10001ac0 f   util_shared.obj
 0001:00000bb0       ?tryFloatToString@@YAPBDM@Z 10001bb0 f   util_shared.obj
 0001:00000be0       ?tryFloatToStringBuffer@@YAXPADM@Z 10001be0 f   util_shared.obj
 0001:00000c00       ?lowercase@@YAXPAD@Z       10001c00 f   util_shared.obj
 0001:00000c30       ?lowercase@@YAXPADH@Z      10001c30 f   util_shared.obj
 0001:00000c70       ?roundToNearest@@YAMM@Z    10001c70 f   util_shared.obj
 0001:00000cd0       ?UTIL_substring@@YAXPADPBDHH@Z 10001cd0 f   util_shared.obj
 0001:00000d40       ?UTIL_findCharFirstPos@@YAHPBDD@Z 10001d40 f   util_shared.obj
 0001:00000d70       ?appendTo@@YAXPADDPAH@Z    10001d70 f   util_shared.obj
 0001:00000d90       ?appendToAndTerminate@@YAXPADDPAH@Z 10001d90 f   util_shared.obj
 0001:00000db0       ?strncpyTerminate@@YAXPADPBDH@Z 10001db0 f   util_shared.obj
 0001:00000de0       ?copyString@@YAXPBDPADH@Z  10001de0 f   util_shared.obj
 0001:00000e30       ?lengthOfString@@YAHPBD@Z  10001e30 f   util_shared.obj
 0001:00000e50       ?lengthOfString@@YAHPBDH@Z 10001e50 f   util_shared.obj
 0001:00000e70       ?isStringEmpty@@YAHPBD@Z   10001e70 f   util_shared.obj
 0001:00000e90       ?stringEndsWith@@YAHPBD0@Z 10001e90 f   util_shared.obj
 0001:00000ee0       ?stringEndsWithIgnoreCase@@YAHPBD0@Z 10001ee0 f   util_shared.obj
 0001:00000f50       ?processLoadHiddenCVarLine@@YAXPBD@Z 10001f50 f   util_shared.obj
 0001:00007a90       ?loadHiddenCVars@@YAXXZ    10008a90 f   util_shared.obj
 0001:00007b60       ?saveHiddenCVars@@YAXXZ    10008b60 f   util_shared.obj
 0001:0000aac0       ?convertIntToBinary@@YAXPADII@Z 1000bac0 f   util_shared.obj
 0001:0000ab50       ??1?$_String_val@DV?$allocator@D@std@@@std@@QAE@XZ 1000bb50 f i util_shared.obj
 0001:0000ab60       ??0?$allocator@D@std@@QAE@XZ 1000bb60 f i util_shared.obj
 0001:0000ab70       ??0?$allocator@D@std@@QAE@ABV01@@Z 1000bb70 f i util_shared.obj
 0001:0000ab80       ?_Myptr@?$basic_string@DU?$char_traits@D@std@@V?$allocator@D@2@@std@@QAEPADXZ 1000bb80 f i util_shared.obj
 0001:0000ab90       ?deallocate@?$allocator@D@std@@QAEXPADI@Z 1000bb90 f i util_shared.obj
 0001:0000abb0       ?checkMatch@@YAHPBDPAD@Z   1000bbb0 f   util_shared.obj
 0001:0000abd0       ?checkMatchIgnoreCase@@YAHPBDPAD@Z 1000bbd0 f   util_shared.obj
 0001:0000abf0       ?UTIL_appendTo@@YAXPADPBDH@Z 1000bbf0 f   util_shared.obj
 0001:0000ac10       ?appendTo@@YAXPADPBDPAH@Z  1000bc10 f   util_shared.obj
 0001:0000ac40       ?appendToAndTerminate@@YAXPADPBDPAH@Z 1000bc40 f   util_shared.obj
 0001:0000ac80       ?appendTo@@YAXPADPBDPAHD@Z 1000bc80 f   util_shared.obj
 0001:0000acc0       ?appendToAndTerminate@@YAXPADPBDPAHD@Z 1000bcc0 f   util_shared.obj
 0001:0000ad10       ?appendTo@@YAXPADHPAH@Z    1000bd10 f   util_shared.obj
 0001:0000ad40       ?appendToAndTerminate@@YAXPADHPAH@Z 1000bd40 f   util_shared.obj
 0001:0000ad70       ?appendTo@@YAXPADHPAHD@Z   1000bd70 f   util_shared.obj
 0001:0000ada0       ?appendToAndTerminate@@YAXPADHPAHD@Z 1000bda0 f   util_shared.obj
 0001:0000add0       ?copyString@@YAXPBDPAD@Z   1000bdd0 f   util_shared.obj
 0001:0000adf0       ?UTIL_appendToEnd@@YAXPADPBD@Z 1000bdf0 f   util_shared.obj
 0001:0000ae30       ?checkSubFileExistence@@YAHPBD@Z 1000be30 f   util_shared.obj
 0001:0000aec0       ?determineHiddenMemPath@@YAXXZ 1000bec0 f   util_shared.obj
 0001:0000b030       ?checkSubDirectoryExistence@@YAHPBD@Z 1000c030 f   util_shared.obj
 0001:0000b0c0       ??0?$_String_val@DV?$allocator@D@std@@@std@@QAE@V?$allocator@D@1@@Z 1000c0c0 f i util_shared.obj
 0001:0000b0d0       ?_Eos@?$basic_string@DU?$char_traits@D@std@@V?$allocator@D@2@@std@@QAEXI@Z 1000c0d0 f i util_shared.obj
 0001:0000b0f0       ?_Tidy@?$basic_string@DU?$char_traits@D@std@@V?$allocator@D@2@@std@@QAEX_NI@Z 1000c0f0 f i util_shared.obj
 0001:0000b140       ??0?$basic_string@DU?$char_traits@D@std@@V?$allocator@D@2@@std@@QAE@XZ 1000c140 f i util_shared.obj
 0001:0000b160       ??1?$basic_string@DU?$char_traits@D@std@@V?$allocator@D@2@@std@@QAE@XZ 1000c160 f i util_shared.obj
 0001:0000b190       ?checkValveSubFileExistence@@YAHPBD@Z 1000c190 f   util_shared.obj
 0001:0000b220       _sqrtf                     1000c220 f i aflock.obj
 0001:0000b240       ?sqrt@@YAMM@Z              1000c240 f i aflock.obj
 0001:0000b260       ??0Vector@@QAE@XZ          1000c260 f i aflock.obj
 0001:0000b270       ??0Vector@@QAE@MMM@Z       1000c270 f i aflock.obj
 0001:0000b290       ??HVector@@QBE?AV0@ABV0@@Z 1000c290 f i aflock.obj
 0001:0000b2c0       ??GVector@@QBE?AV0@ABV0@@Z 1000c2c0 f i aflock.obj
 0001:0000b2f0       ??DVector@@QBE?AV0@M@Z     1000c2f0 f i aflock.obj
 0001:0000b320       ?Length@Vector@@QBEMXZ     1000c320 f i aflock.obj
 0001:0000b360       ?Normalize@Vector@@QBE?AV1@XZ 1000c360 f i aflock.obj
 0001:0000b3f0       ?VARS@@YAPAUentvars_s@@PAUedict_s@@@Z 1000c3f0 f i aflock.obj
 0001:0000b410       ?FNullEnt@@YAHH@Z          1000c410 f i aflock.obj
 0001:0000b420       ?FNullEnt@@YAHPBUedict_s@@@Z 1000c420 f i aflock.obj
 0001:0000b450       ?GET_PRIVATE@@YAPAXPAUedict_s@@@Z 1000c450 f i aflock.obj
 0001:0000b470       ?FStrEq@@YAHPBD0@Z         1000c470 f i aflock.obj
 0001:0000b4c0       ?FClassnameIs@@YAHPAUedict_s@@PBD@Z 1000c4c0 f i aflock.obj
 0001:0000b520       ?FClassnameIs@@YAHPAUentvars_s@@PBD@Z 1000c520 f i aflock.obj
 0001:0000b570       ?EMIT_SOUND@@YAXPAUedict_s@@HPBDMM@Z 1000c570 f i aflock.obj
 0001:0000b5a0       ??2CBaseEntity@@SAPAXIPAUentvars_s@@@Z 1000c5a0 f i aflock.obj
 0001:0000b5c0       ??3CBaseEntity@@SAXPAXPAUentvars_s@@@Z 1000c5c0 f i aflock.obj
 0001:0000b5e0       ?edict@CBaseEntity@@QAEPAUedict_s@@XZ 1000c5e0 f i aflock.obj
 0001:0000b5f0       ?CallMonsterThink@CBaseMonster@@QAEXXZ 1000c5f0 f i aflock.obj
 0001:0000b600       ?Save@CFlockingFlyerFlock@@UAEHAAVCSave@@@Z 1000c600 f   aflock.obj
 0001:0000b640       ?Restore@CFlockingFlyerFlock@@UAEHAAVCRestore@@@Z 1000c640 f   aflock.obj
 0001:0000b680       ?IsLeader@CFlockingFlyer@@QAEHXZ 1000c680 f i aflock.obj
 0001:0000b690       ?InSquad@CFlockingFlyer@@QAEHXZ 1000c690 f i aflock.obj
 0001:0000b6a0       ?Save@CFlockingFlyer@@UAEHAAVCSave@@@Z 1000c6a0 f   aflock.obj
 0001:0000b6e0       ?Restore@CFlockingFlyer@@UAEHAAVCRestore@@@Z 1000c6e0 f   aflock.obj
 0001:0000b720       ?KeyValue@CFlockingFlyerFlock@@UAEXPAUKeyValueData_s@@@Z 1000c720 f   aflock.obj
 0001:0000b7d0       ?PrecacheFlockSounds@CFlockingFlyerFlock@@SAXXZ 1000c7d0 f   aflock.obj
 0001:0000b800       ?Precache@CFlockingFlyer@@UAEXXZ 1000c800 f   aflock.obj
 0001:0000b820       ?MakeSound@CFlockingFlyer@@QAEXXZ 1000c820 f   aflock.obj
 0001:0000b920       ?FallHack@CFlockingFlyer@@QAEXXZ 1000c920 f   aflock.obj
 0001:0000b9b0       ?SpawnCommonCode@CFlockingFlyer@@QAEXXZ 1000c9b0 f   aflock.obj
 0001:0000ba70       ?BoidAdvanceFrame@CFlockingFlyer@@QAEXXZ 1000ca70 f   aflock.obj
 0001:0000bb40       ?SpreadFlock@CFlockingFlyer@@QAEXXZ 1000cb40 f   aflock.obj
 0001:0000bcf0       ?SpreadFlock2@CFlockingFlyer@@QAEXXZ 1000ccf0 f   aflock.obj
 0001:0000be00       ??0TraceResult@@QAE@XZ     1000ce00 f i aflock.obj
 0001:0000be10       ?SquadUnlink@CFlockingFlyer@@QAEXXZ 1000ce10 f   aflock.obj
 0001:0000be20       ?SquadAdd@CFlockingFlyer@@QAEXPAV1@@Z 1000ce20 f   aflock.obj
 0001:0000be50       ?SquadCount@CFlockingFlyer@@QAEHXZ 1000ce50 f   aflock.obj
 0001:0000be70       ?SquadDisband@CFlockingFlyer@@QAEXXZ 1000ce70 f   aflock.obj
 0001:0000bea0       ??0CFlockingFlyer@@QAE@XZ  1000cea0 f i aflock.obj
 0001:0000bec0       ?isBasePlayerWeapon@CBaseEntity@@UAEHXZ 1000cec0 f i aflock.obj
 0001:0000bed0       ?DesiredAction@CBaseEntity@@UAEXXZ 1000ced0 f i aflock.obj
 0001:0000bee0       ?SetNextThink@CBaseEntity@@UAEXM@Z 1000cee0 f i aflock.obj
 0001:0000bf00       ?AbsoluteNextThink@CBaseEntity@@UAEXM@Z 1000cf00 f i aflock.obj
 0001:0000bf20       ?ObjectCaps@CBaseEntity@@UAEHXZ 1000cf20 f i aflock.obj
 0001:0000bf30       ?Classify@CBaseEntity@@UAEHXZ 1000cf30 f i aflock.obj
 0001:0000bf40       ?DeathNotice@CBaseEntity@@UAEXPAUentvars_s@@@Z 1000cf40 f i aflock.obj
 0001:0000bf50       ?IsTriggered@CBaseEntity@@UAEHPAV1@@Z 1000cf50 f i aflock.obj
 0001:0000bf60       ?MySquadMonsterPointer@CBaseEntity@@UAEPAVCSquadMonster@@XZ 1000cf60 f i aflock.obj
 0001:0000bf70       ?AddPoints@CBaseEntity@@UAEXHH@Z 1000cf70 f i aflock.obj
 0001:0000bf80       ?AddPointsToTeam@CBaseEntity@@UAEXHH@Z 1000cf80 f i aflock.obj
 0001:0000bf90       ?AddPlayerItem@CBaseEntity@@UAEHPAVCBasePlayerItem@@@Z 1000cf90 f i aflock.obj
 0001:0000bfa0       ?RemovePlayerItem@CBaseEntity@@UAEHPAVCBasePlayerItem@@@Z 1000cfa0 f i aflock.obj
 0001:0000bfb0       ?GiveAmmo@CBaseEntity@@UAEHHPADH@Z 1000cfb0 f i aflock.obj
 0001:0000bfc0       ?OverrideReset@CBaseEntity@@UAEXXZ 1000cfc0 f i aflock.obj
 0001:0000bfd0       ?SetToggleState@CBaseEntity@@UAEXH@Z 1000cfd0 f i aflock.obj
 0001:0000bfe0       ?StartSneaking@CBaseEntity@@UAEXXZ 1000cfe0 f i aflock.obj
 0001:0000bff0       ?StopSneaking@CBaseEntity@@UAEXXZ 1000cff0 f i aflock.obj
 0001:0000c000       ?OnControls@CBaseEntity@@UAEHPAUentvars_s@@@Z 1000d000 f i aflock.obj
 0001:0000c010       ?IsSneaking@CBaseEntity@@UAEHXZ 1000d010 f i aflock.obj
 0001:0000c020       ?IsBSPModel@CBaseEntity@@UAEHXZ 1000d020 f i aflock.obj
 0001:0000c040       ?ReflectGauss@CBaseEntity@@UAEHXZ 1000d040 f i aflock.obj
 0001:0000c070       ?HasTarget@CBaseEntity@@UAEHH@Z 1000d070 f i aflock.obj
 0001:0000c0d0       ?IsPlayer@CBaseEntity@@UAEHXZ 1000d0d0 f i aflock.obj
 0001:0000c0e0       ?IsNetClient@CBaseEntity@@UAEHXZ 1000d0e0 f i aflock.obj
 0001:0000c0f0       ?TeamID@CBaseEntity@@UAEPBDXZ 1000d0f0 f i aflock.obj
 0001:0000c100       ?Think@CBaseEntity@@UAEXXZ 1000d100 f i aflock.obj
 0001:0000c110       ?Touch@CBaseEntity@@UAEXPAV1@@Z 1000d110 f i aflock.obj
 0001:0000c130       ?Use@CBaseEntity@@UAEXPAV1@0W4USE_TYPE@@M@Z 1000d130 f i aflock.obj
 0001:0000c160       ?Blocked@CBaseEntity@@UAEXPAV1@@Z 1000d160 f i aflock.obj
 0001:0000c180       ?Respawn@CBaseEntity@@UAEPAV1@XZ 1000d180 f i aflock.obj
 0001:0000c190       ?UpdateOwner@CBaseEntity@@UAEXXZ 1000d190 f i aflock.obj
 0001:0000c1a0       ?Center@CBaseEntity@@UAE?AVVector@@XZ 1000d1a0 f i aflock.obj
 0001:0000c200       ?EyePosition@CBaseEntity@@UAE?AVVector@@XZ 1000d200 f i aflock.obj
 0001:0000c230       ?EarPosition@CBaseEntity@@UAE?AVVector@@XZ 1000d230 f i aflock.obj
 0001:0000c260       ?Illumination@CBaseEntity@@UAEHXZ 1000d260 f i aflock.obj
 0001:0000c280       ?HandleEventQueueEvent@CBaseAnimating@@UAEXH@Z 1000d280 f i aflock.obj
 0001:0000c290       ?GetToggleState@CBaseToggle@@UAEHXZ 1000d290 f i aflock.obj
 0001:0000c2a0       ?GetDelay@CBaseToggle@@UAEMXZ 1000d2a0 f i aflock.obj
 0001:0000c2b0       ?skipSpawnStuckCheck@CBaseMonster@@UAEHXZ 1000d2b0 f i aflock.obj
 0001:0000c2c0       ?BloodColor@CBaseMonster@@UAEHXZ 1000d2c0 f i aflock.obj
 0001:0000c2d0       ?MyMonsterPointer@CBaseMonster@@UAEPAV1@XZ 1000d2d0 f i aflock.obj
 0001:0000c2e0       ?IsAlive@CBaseMonster@@UAEHXZ 1000d2e0 f i aflock.obj
 0001:0000c300       ?IsAlive_FromAI@CBaseMonster@@UAEHPAV1@@Z 1000d300 f i aflock.obj
 0001:0000c340       ?GetStoppedActivity@CBaseMonster@@UAE?AW4Activity@@XZ 1000d340 f i aflock.obj
 0001:0000c350       ?Stop@CBaseMonster@@UAEXXZ 1000d350 f i aflock.obj
 0001:0000c370       ?CanPlaySentence@CBaseMonster@@UAEHH@Z 1000d370 f i aflock.obj
 0001:0000c380       ?SetYawSpeed@CBaseMonster@@UAEXXZ 1000d380 f i aflock.obj
 0001:0000c390       ?FValidateCover@CBaseMonster@@UAEHABVVector@@@Z 1000d390 f i aflock.obj
 0001:0000c3a0       ?CoverRadius@CBaseMonster@@UAEMXZ 1000d3a0 f i aflock.obj
 0001:0000c3b0       ?CheckAmmo@CBaseMonster@@UAEXXZ 1000d3b0 f i aflock.obj
 0001:0000c3c0       ?HearingSensitivity@CBaseMonster@@UAEMXZ 1000d3c0 f i aflock.obj
 0001:0000c3d0       ?PrescheduleThink@CBaseMonster@@UAEXXZ 1000d3d0 f i aflock.obj
 0001:0000c3e0       ?BodyTarget@CBaseMonster@@UAE?AVVector@@ABV2@@Z 1000d3e0 f i aflock.obj
 0001:0000c470       ?BodyTargetMod@CBaseMonster@@UAE?AVVector@@ABV2@@Z 1000d470 f i aflock.obj
 0001:0000c500       ?IsMoving@CBaseMonster@@UAEHXZ 1000d500 f i aflock.obj
 0001:0000c510       ?DeathSound@CBaseMonster@@UAEXXZ 1000d510 f i aflock.obj
 0001:0000c520       ?AlertSound@CBaseMonster@@UAEXXZ 1000d520 f i aflock.obj
 0001:0000c530       ?IdleSound@CBaseMonster@@UAEXXZ 1000d530 f i aflock.obj
 0001:0000c540       ?PainSound@CBaseMonster@@UAEXXZ 1000d540 f i aflock.obj
 0001:0000c550       ?StopFollowing@CBaseMonster@@UAEXH@Z 1000d550 f i aflock.obj
 0001:0000c560       ??0CFlockingFlyerFlock@@QAE@XZ 1000d560 f i aflock.obj
 0001:0000c580       ?Precache@CFlockingFlyerFlock@@UAEXXZ 1000d580 f   aflock.obj
 0001:0000c5a0       ?FPathBlocked@CFlockingFlyer@@QAEHXZ 1000d5a0 f   aflock.obj
 0001:0000c8b0       ?FlockLeaderThink@CFlockingFlyer@@QAEXXZ 1000d8b0 f   aflock.obj
 0001:0000ccf0       ?FlockFollowerThink@CFlockingFlyer@@QAEXXZ 1000dcf0 f   aflock.obj
 0001:0000cfe0       ?SquadRemove@CFlockingFlyer@@QAEXPAV1@@Z 1000dfe0 f   aflock.obj
 0001:0000d090       ??$GetClassPtr@VCFlockingFlyer@@@@YAPAVCFlockingFlyer@@PAV0@@Z 1000e090 f i aflock.obj
 0001:0000d140       ??$GetClassPtr@VCFlockingFlyerFlock@@@@YAPAVCFlockingFlyerFlock@@PAV0@@Z 1000e140 f i aflock.obj
 0001:0000d1f0       _monster_flyer             1000e1f0 f   aflock.obj
 0001:0000d200       _monster_flyer_flock       1000e200 f   aflock.obj
 0001:0000d210       _flyer                     1000e210 f   aflock.obj
 0001:0000d220       _flyer_flock               1000e220 f   aflock.obj
 0001:0000d230       _alien_flyer               1000e230 f   aflock.obj
 0001:0000d240       _alien_flyer_flock         1000e240 f   aflock.obj
 0001:0000d250       _monster_alien_flyer       1000e250 f   aflock.obj
 0001:0000d260       _monster_alien_flyer_flock 1000e260 f   aflock.obj
 0001:0000d270       ?Killed@CFlockingFlyer@@UAEXPAUentvars_s@@0H@Z 1000e270 f   aflock.obj
 0001:0000d340       ?Start@CFlockingFlyer@@QAEXXZ 1000e340 f   aflock.obj
 0001:0000d3c0       ?Killed@CFlockingFlyer@@UAEXPAUentvars_s@@H@Z 1000e3c0 f   aflock.obj
 0001:0000d3e0       ?IdleThink@CFlockingFlyer@@QAEXXZ 1000e3e0 f   aflock.obj
 0001:0000d460       ?FormFlock@CFlockingFlyer@@QAEXXZ 1000e460 f   aflock.obj
 0001:0000d570       ?SpawnFlock@CFlockingFlyerFlock@@QAEXXZ 1000e570 f   aflock.obj
 0001:0000d700       ?Spawn@CFlockingFlyer@@UAEXXZ 1000e700 f   aflock.obj
 0001:0000d770       ?Spawn@CFlockingFlyerFlock@@UAEXXZ 1000e770 f   aflock.obj
 0001:0000d7b0       ??0Vector@@QAE@ABV0@@Z     1000e7b0 f i agrunt.obj
 0001:0000d7d0       ??BVector@@QAEPAMXZ        1000e7d0 f i agrunt.obj
 0001:0000d7e0       ?Instance@CBaseEntity@@SAPAV1@PAUedict_s@@@Z 1000e7e0 f i agrunt.obj
 0001:0000d800       ?Instance@CBaseEntity@@SAPAV1@PAUentvars_s@@@Z 1000e800 f i agrunt.obj
 0001:0000d830       ?GetMonsterPointer@CBaseEntity@@QAEPAVCBaseMonster@@XZ 1000e830 f i agrunt.obj
 0001:0000d860       ?SetConditions@CBaseMonster@@QAEXH@Z 1000e860 f i agrunt.obj
 0001:0000d870       ?HasConditions@CBaseMonster@@QAEHH@Z 1000e870 f i agrunt.obj
 0001:0000d890       ?Save@CAGrunt@@UAEHAAVCSave@@@Z 1000e890 f   agrunt.obj
 0001:0000d8d0       ?Restore@CAGrunt@@UAEHAAVCRestore@@@Z 1000e8d0 f   agrunt.obj
 0001:0000d910       ?MonsterThink@CAGrunt@@UAEXXZ 1000e910 f   agrunt.obj
 0001:0000daf0       ?setPoweredUpOff@CAGrunt@@UAEXXZ 1000eaf0 f   agrunt.obj
 0001:0000dc20       ?setPoweredUpOn@CAGrunt@@UAEXPAVCBaseMonster@@M@Z 1000ec20 f   agrunt.obj
 0001:0000de50       ?IRelationship@CAGrunt@@UAEHPAVCBaseEntity@@@Z 1000ee50 f   agrunt.obj
 0001:0000dee0       ?ISoundMask@CAGrunt@@UAEHXZ 1000eee0 f   agrunt.obj
 0001:0000def0       ?TraceAttack@CAGrunt@@UAEXPAUentvars_s@@MVVector@@PAUTraceResult@@HHHPAH@Z 1000eef0 f   agrunt.obj
 0001:0000e120       ?StopTalking@CAGrunt@@QAEXXZ 1000f120 f   agrunt.obj
 0001:0000e160       ?ShouldSpeak@CAGrunt@@QAEHXZ 1000f160 f   agrunt.obj
 0001:0000e1b0       ?PrescheduleThink@CAGrunt@@UAEXXZ 1000f1b0 f   agrunt.obj
 0001:0000e270       ?DeathSound@CAGrunt@@UAEXXZ 1000f270 f   agrunt.obj
 0001:0000e2c0       ?AlertSound@CAGrunt@@UAEXXZ 1000f2c0 f   agrunt.obj
 0001:0000e310       ?AttackSound@CAGrunt@@QAEXXZ 1000f310 f   agrunt.obj
 0001:0000e360       ?PainSound@CAGrunt@@UAEXXZ 1000f360 f   agrunt.obj
 0001:0000e3d0       ?Classify@CAGrunt@@UAEHXZ  1000f3d0 f   agrunt.obj
 0001:0000e3e0       ?isOrganic@CAGrunt@@UAEHXZ 1000f3e0 f   agrunt.obj
 0001:0000e3f0       ?SetYawSpeed@CAGrunt@@UAEXXZ 1000f3f0 f   agrunt.obj
 0001:0000e490       ?HandleAnimEvent@CAGrunt@@UAEXPAUMonsterEvent_t@@@Z 1000f490 f   agrunt.obj
 0001:0000ec40       ??0CAGrunt@@QAE@XZ         1000fc40 f   agrunt.obj
 0001:0000ecc0       ?MySquadMonsterPointer@CSquadMonster@@UAEPAV1@XZ 1000fcc0 f i agrunt.obj
 0001:0000ecd0       ?SetObjectCollisionBox@CAGrunt@@UAEXXZ 1000fcd0 f i agrunt.obj
 0001:0000edc0       ?Spawn@CAGrunt@@UAEXXZ     1000fdc0 f   agrunt.obj
 0001:0000ef00       ?Precache@CAGrunt@@UAEXXZ  1000ff00 f   agrunt.obj
 0001:0000f040       ?ScheduleFromName@CAGrunt@@UAEPAUSchedule_t@@PBD@Z 10010040 f   agrunt.obj
 0001:0000f070       ?FCanCheckAttacks@CAGrunt@@UAEHXZ 10010070 f   agrunt.obj
 0001:0000f080       ?CheckMeleeAttack1@CAGrunt@@UAEHMM@Z 10010080 f   agrunt.obj
 0001:0000f0d0       ?GetSchedule@CAGrunt@@UAEPAUSchedule_t@@XZ 100100d0 f   agrunt.obj
 0001:0000f210       ?GetScheduleOfType@CAGrunt@@UAEPAUSchedule_t@@H@Z 10010210 f   agrunt.obj
 0001:0000f2e0       ?Killed@CAGrunt@@UAEXPAUentvars_s@@0H@Z 100102e0 f   agrunt.obj
 0001:0000f310       ?canResetBlend0@CAGrunt@@UAEHXZ 10010310 f   agrunt.obj
 0001:0000f320       ?onResetBlend0@CAGrunt@@UAEHXZ 10010320 f   agrunt.obj
 0001:0000f420       ?getMonsterBlockIdleAutoUpdate@CAGrunt@@UAEHXZ 10010420 f   agrunt.obj
 0001:0000f430       ?forceIdleFrameReset@CAGrunt@@UAEHXZ 10010430 f   agrunt.obj
 0001:0000f440       ?usesAdvancedAnimSystem@CAGrunt@@UAEHXZ 10010440 f   agrunt.obj
 0001:0000f450       ?tryActivitySubstitute@CAGrunt@@UAEHH@Z 10010450 f   agrunt.obj
 0001:0000f460       ?HandleEventQueueEvent@CAGrunt@@UAEXH@Z 10010460 f   agrunt.obj
 0001:0000f470       ?setChaseSpeed@CAGrunt@@QAEXXZ 10010470 f   agrunt.obj
 0001:0000f4b0       ?TakeDamage@CAGrunt@@UAEHPAUentvars_s@@0MHH@Z 100104b0 f   agrunt.obj
 0001:0000f580       ?forgetForcedEnemy@CAGrunt@@UAEXPAVCBaseMonster@@H@Z 10010580 f   agrunt.obj
 0001:0000f5e0       ?ReportAIState@CAGrunt@@UAEXXZ 100105e0 f   agrunt.obj
 0001:0000f690       ?GetGunPosition@CAGrunt@@UAE?AVVector@@XZ 10010690 f   agrunt.obj
 0001:0000f6b0       ?GetGunPositionAI@CAGrunt@@UAE?AVVector@@XZ 100106b0 f   agrunt.obj
 0001:0000f6d0       ??$GetClassPtr@VCAGrunt@@@@YAPAVCAGrunt@@PAV0@@Z 100106d0 f i agrunt.obj
 0001:0000f770       ?TaskComplete@CBaseMonster@@QAEXXZ 10010770 f i agrunt.obj
 0001:0000f790       ?TaskFail@CBaseMonster@@QAEXXZ 10010790 f i agrunt.obj
 0001:0000f7a0       _monster_alien_grunt       100107a0 f   agrunt.obj
 0001:0000f7b0       _agrunt                    100107b0 f   agrunt.obj
 0001:0000f7c0       _alien_grunt               100107c0 f   agrunt.obj
 0001:0000f7d0       ?TraceAttack@CAGrunt@@UAEXPAUentvars_s@@MVVector@@PAUTraceResult@@H@Z 100107d0 f   agrunt.obj
 0001:0000f810       ?TraceAttack@CAGrunt@@UAEXPAUentvars_s@@MVVector@@PAUTraceResult@@HH@Z 10010810 f   agrunt.obj
 0001:0000f850       ?TraceAttack@CAGrunt@@UAEXPAUentvars_s@@MVVector@@PAUTraceResult@@HHH@Z 10010850 f   agrunt.obj
 0001:0000f890       ?CheckRangeAttack1@CAGrunt@@UAEHMM@Z 10010890 f   agrunt.obj
 0001:0000fa10       ?StartTask@CAGrunt@@UAEXPAUTask_t@@@Z 10010a10 f   agrunt.obj
 0001:0000feb0       ?Killed@CAGrunt@@UAEXPAUentvars_s@@H@Z 10010eb0 f   agrunt.obj
 0001:0000fed0       ?LookupActivityHard@CAGrunt@@UAEHH@Z 10010ed0 f   agrunt.obj
 0001:00010030       ?TakeDamage@CAGrunt@@UAEHPAUentvars_s@@0MH@Z 10011030 f   agrunt.obj
 0001:00010060       ?forceNewEnemy@CAGrunt@@UAEXPAVCBaseEntity@@0H@Z 10011060 f   agrunt.obj
 0001:000102c0       ?Save@CAirtank@@EAEHAAVCSave@@@Z 100112c0 f   airtank.obj
 0001:00010300       ?Restore@CAirtank@@EAEHAAVCRestore@@@Z 10011300 f   airtank.obj
 0001:00010340       ?Precache@CAirtank@@EAEXXZ 10011340 f   airtank.obj
 0001:00010350       ?Killed@CAirtank@@EAEXPAUentvars_s@@0H@Z 10011350 f   airtank.obj
 0001:00010370       ?TankThink@CAirtank@@AAEXXZ 10011370 f   airtank.obj
 0001:00010390       ?TankTouch@CAirtank@@AAEXPAVCBaseEntity@@@Z 10011390 f   airtank.obj
 0001:000104b0       ??0CGrenade@@QAE@XZ        100114b0 f i airtank.obj
 0001:000104d0       ?Precache@CBaseEntity@@UAEXXZ 100114d0 f i airtank.obj
 0001:000104e0       ?BloodColor@CGrenade@@UAEHXZ 100114e0 f i airtank.obj
 0001:000104f0       ?Spawn@CAirtank@@EAEXXZ    100114f0 f   airtank.obj
 0001:000105d0       ?Killed@CAirtank@@EAEXPAUentvars_s@@H@Z 100115d0 f   airtank.obj
 0001:000105f0       ??0CAirtank@@QAE@XZ        100115f0 f i airtank.obj
 0001:00010610       ?BloodColor@CAirtank@@EAEHXZ 10011610 f i airtank.obj
 0001:00010620       ??$GetClassPtr@VCAirtank@@@@YAPAVCAirtank@@PAV0@@Z 10011620 f i airtank.obj
 0001:000106d0       _item_airtank              100116d0 f   airtank.obj
 0001:000106e0       _cosf                      100116e0 f i animating.obj
 0001:00010700       _sinf                      10011700 f i animating.obj
 0001:00010720       ?cos@@YAMM@Z               10011720 f i animating.obj
 0001:00010740       ?sin@@YAMM@Z               10011740 f i animating.obj
 0001:00010760       ?Save@CBaseAnimating@@UAEHAAVCSave@@@Z 10011760 f   animating.obj
 0001:000107a0       ?Restore@CBaseAnimating@@UAEHAAVCRestore@@@Z 100117a0 f   animating.obj
 0001:00010810       ??0CBaseDelay@@QAE@XZ      10011810 f i animating.obj
 0001:00010830       ??8Vector@@QBEHABV0@@Z     10011830 f i animating.obj
 0001:00010870       ??9Vector@@QBEHABV0@@Z     10011870 f i animating.obj
 0001:000108d0       ?Activate@CBaseEntity@@UAEXXZ 100118d0 f i animating.obj
 0001:000108e0       ?BloodColor@CBaseEntity@@UAEHXZ 100118e0 f i animating.obj
 0001:000108f0       ?MyMonsterPointer@CBaseEntity@@UAEPAVCBaseMonster@@XZ 100118f0 f i animating.obj
 0001:00010900       ?GetToggleState@CBaseEntity@@UAEHXZ 10011900 f i animating.obj
 0001:00010910       ?GetDelay@CBaseEntity@@UAEMXZ 10011910 f i animating.obj
 0001:00010920       ?IsMoving@CBaseEntity@@UAEHXZ 10011920 f i animating.obj
 0001:00010980       ?IsAlive@CBaseEntity@@UAEHXZ 10011980 f i animating.obj
 0001:000109b0       ?IsAlive_FromAI@CBaseEntity@@UAEHPAVCBaseMonster@@@Z 100119b0 f i animating.obj
 0001:000109f0       ?FBecomeProne@CBaseEntity@@UAEHXZ 100119f0 f i animating.obj
 0001:00010a00       ?BodyTarget@CBaseEntity@@UAE?AVVector@@ABV2@@Z 10011a00 f i animating.obj
 0001:00010a20       ?BodyTargetMod@CBaseEntity@@UAE?AVVector@@ABV2@@Z 10011a20 f i animating.obj
 0001:00010a40       ?onAnimationLoop@CBaseAnimating@@UAEXXZ 10011a40 f   animating.obj
 0001:00010a50       ?checkEndOfAnimation@CBaseAnimating@@QAEXXZ 10011a50 f   animating.obj
 0001:00010c80       ?resetFrame@CBaseAnimating@@QAEXXZ 10011c80 f   animating.obj
 0001:00010cb0       ?queuedAnimPush@CBaseAnimating@@QAEXPADMMM@Z 10011cb0 f   animating.obj
 0001:00010d00       ?queuedAnimClear@CBaseAnimating@@QAEXXZ 10011d00 f   animating.obj
 0001:00010d10       ?resetEventQueue@CBaseAnimating@@QAEXXZ 10011d10 f   animating.obj
 0001:00010d30       ?animEventQueuePush@CBaseAnimating@@QAEXMM@Z 10011d30 f   animating.obj
 0001:00010da0       ?StudioFrameAdvance@CBaseAnimating@@QAEMM@Z 10011da0 f   animating.obj
 0001:00010ec0       ?LookupActivity@CBaseAnimating@@UAEHH@Z 10011ec0 f   animating.obj
 0001:00010ef0       ?LookupActivityHard@CBaseAnimating@@UAEHH@Z 10011ef0 f   animating.obj
 0001:00010f20       ?tryActivitySubstitute@CBaseAnimating@@UAEHH@Z 10011f20 f   animating.obj
 0001:00010f50       ?LookupActivityHeaviest@CBaseAnimating@@UAEHH@Z 10011f50 f   animating.obj
 0001:00010f80       ?LookupSequence@CBaseAnimating@@QAEHPBD@Z 10011f80 f   animating.obj
 0001:00010fb0       ?onResetBlend0@CBaseAnimating@@UAEHXZ 10011fb0 f   animating.obj
 0001:00010fc0       ?onResetBlend1@CBaseAnimating@@UAEHXZ 10011fc0 f   animating.obj
 0001:00010fd0       ?onResetBlend2@CBaseAnimating@@UAEHXZ 10011fd0 f   animating.obj
 0001:00010fe0       ?canResetBlend0@CBaseAnimating@@UAEHXZ 10011fe0 f   animating.obj
 0001:00010ff0       ?canResetBlend1@CBaseAnimating@@UAEHXZ 10011ff0 f   animating.obj
 0001:00011000       ?canResetBlend2@CBaseAnimating@@UAEHXZ 10012000 f   animating.obj
 0001:00011010       ?GetSequenceFlags@CBaseAnimating@@QAEHXZ 10012010 f   animating.obj
 0001:00011040       ?DispatchAnimEvents@CBaseAnimating@@QAEXM@Z 10012040 f   animating.obj
 0001:00011210       ?showHitboxInfoAll@CBaseAnimating@@QAEXXZ 10012210 f   animating.obj
 0001:00011240       ?showHitboxInfoOfBone@CBaseAnimating@@QAEXH@Z 10012240 f   animating.obj
 0001:00011270       ?showHitboxInfoOfGroup@CBaseAnimating@@QAEXH@Z 10012270 f   animating.obj
 0001:000112a0       ?showHitboxInfoNumber@CBaseAnimating@@QAEXH@Z 100122a0 f   animating.obj
 0001:000112d0       ?getHitboxInfoAll@CBaseAnimating@@QAEXPAUmstudiobbox_t@@AAH@Z 100122d0 f   animating.obj
 0001:00011300       ?getHitboxInfoOfBone@CBaseAnimating@@QAEXPAUmstudiobbox_t@@AAHH@Z 10012300 f   animating.obj
 0001:00011340       ?getHitboxInfoOfGroup@CBaseAnimating@@QAEXPAUmstudiobbox_t@@AAHH@Z 10012340 f   animating.obj
 0001:00011380       ?getHitboxInfoNumber@CBaseAnimating@@QAEXAAPAUmstudiobbox_t@@H@Z 10012380 f   animating.obj
 0001:000113b0       ?getHitboxCount@CBaseAnimating@@QAEXAAH@Z 100123b0 f   animating.obj
 0001:000113e0       ?SetBoneController@CBaseAnimating@@QAEMHM@Z 100123e0 f   animating.obj
 0001:00011420       ?SetBoneControllerUnsafe@CBaseAnimating@@QAEMHM@Z 10012420 f   animating.obj
 0001:00011460       ?InitBoneControllers@CBaseAnimating@@QAEXXZ 10012460 f   animating.obj
 0001:000114e0       ?SetBlending@CBaseAnimating@@QAEMHM@Z 100124e0 f   animating.obj
 0001:00011520       ?GetBonePosition@CBaseAnimating@@QAEXHAAVVector@@0@Z 10012520 f   animating.obj
 0001:00011550       ?GetAttachment@CBaseAnimating@@QAEXHAAVVector@@0@Z 10012550 f   animating.obj
 0001:00011580       ?FindTransition@CBaseAnimating@@QAEHHHPAH@Z 10012580 f   animating.obj
 0001:000115e0       ?GetAutomovement@CBaseAnimating@@QAEXAAVVector@@0M@Z 100125e0 f   animating.obj
 0001:000115f0       ?getNumberOfBodyParts@CBaseEntity@@QAEHXZ 100125f0 f   animating.obj
 0001:00011610       ?getNumberOfSkins@CBaseEntity@@QAEHXZ 10012610 f   animating.obj
 0001:00011630       ?SetBodygroup@CBaseAnimating@@QAEXHH@Z 10012630 f   animating.obj
 0001:00011660       ?GetBodygroup@CBaseAnimating@@QAEHH@Z 10012660 f   animating.obj
 0001:00011690       ?ExtractBbox@CBaseAnimating@@QAEHHPAM0@Z 10012690 f   animating.obj
 0001:000116c0       ??_H@YGXPAXIHP6EPAX0@Z@Z   100126c0 f i animating.obj
 0001:000116f0       ??0CBaseAnimating@@QAE@XZ  100126f0 f   animating.obj
 0001:00011760       ?HandleAnimEvent@CBaseAnimating@@UAEXPAUMonsterEvent_t@@@Z 10012760 f i animating.obj
 0001:00011770       ?applyAnimationQueueSuggestion@CBaseAnimating@@QAEXXZ 10012770 f   animating.obj
 0001:00011820       ?ResetSequenceInfo@CBaseAnimating@@QAEXXZ 10012820 f   animating.obj
 0001:00011a60       ?ResetSequenceInfoSafe@CBaseAnimating@@QAEXXZ 10012a60 f   animating.obj
 0001:00011c20       ?SetSequenceBox@CBaseAnimating@@QAEXXZ 10012c20 f   animating.obj
 0001:00011e50       ?ExtractBbox@@YAHPAXHPAM1@Z 10012e50 f   animation.obj
 0001:00011eb0       ?LookupActivity@@YAHPAXPAUentvars_s@@H@Z 10012eb0 f   animation.obj
 0001:00011f30       ?LookupActivityHeaviest@@YAHPAXPAUentvars_s@@H@Z 10012f30 f   animation.obj
 0001:00011f90       ?GetEyePosition@@YAXPAXPAM@Z 10012f90 f   animation.obj
 0001:00011fd0       ?LookupSequence@@YAHPAXPBD@Z 10012fd0 f   animation.obj
 0001:00012030       ?IsSoundEvent@@YAHH@Z      10013030 f   animation.obj
 0001:00012050       ?SequencePrecache@@YAXPAXPBD@Z 10013050 f   animation.obj
 0001:00012130       ?UTIL_VarArgsANIMATION@@YAPADPADZZ 10013130 f   animation.obj
 0001:00012150       ?UTIL_VarArgsVAANIMATION@@YAPADPBDPAD@Z 10013150 f   animation.obj
 0001:00012170       ?GetSequenceInfo@@YAXPAXPAUentvars_s@@PAM2@Z 10013170 f   animation.obj
 0001:00012220       ?GetSequenceInfoSafe@@YAXPAXPAMPAUentvars_s@@@Z 10013220 f   animation.obj
 0001:00012280       ?GetSequenceFlags@@YAHPAXPAUentvars_s@@@Z 10013280 f   animation.obj
 0001:000122c0       ?GetAnimationEvent@@YAHPAXPAUentvars_s@@PAUMonsterEvent_t@@MMHH@Z 100132c0 f   animation.obj
 0001:00012480       ?printHitboxInfo@@YAXPAUmstudiobbox_t@@H@Z 10013480 f   animation.obj
 0001:000124d0       ?showHitboxInfoAll@@YAXPAXPAUentvars_s@@@Z 100134d0 f   animation.obj
 0001:00012510       ?showHitboxInfoOfBone@@YAXPAXPAUentvars_s@@H@Z 10013510 f   animation.obj
 0001:00012570       ?showHitboxInfoOfGroup@@YAXPAXPAUentvars_s@@H@Z 10013570 f   animation.obj
 0001:000125d0       ?showHitboxInfoNumber@@YAXPAXPAUentvars_s@@H@Z 100135d0 f   animation.obj
 0001:00012620       ?getHitboxInfoAll@@YAXPAXPAUentvars_s@@PAUmstudiobbox_t@@AAH@Z 10013620 f   animation.obj
 0001:00012670       ?getHitboxInfoOfBone@@YAXPAXPAUentvars_s@@PAUmstudiobbox_t@@AAHH@Z 10013670 f   animation.obj
 0001:000126f0       ?getHitboxInfoOfGroup@@YAXPAXPAUentvars_s@@PAUmstudiobbox_t@@AAHH@Z 100136f0 f   animation.obj
 0001:00012770       ?getHitboxInfoNumber@@YAXPAXPAUentvars_s@@AAPAUmstudiobbox_t@@H@Z 10013770 f   animation.obj
 0001:000127d0       ?getHitboxCount@@YAXPAXPAUentvars_s@@AAH@Z 100137d0 f   animation.obj
 0001:000127f0       ?SetController@@YAMPAXPAUentvars_s@@HM@Z 100137f0 f   animation.obj
 0001:00012980       ?SetControllerUnsafe@@YAMPAXPAUentvars_s@@HM@Z 10013980 f   animation.obj
 0001:000129f0       ?SetBlending@@YAMPAXPAUentvars_s@@HM@Z 100139f0 f   animation.obj
 0001:00012b40       ?FindTransition@@YAHPAXHHPAH@Z 10013b40 f   animation.obj
 0001:00012c40       ?getNumberOfBodyParts@@YAHPAXPAUentvars_s@@@Z 10013c40 f   animation.obj
 0001:00012c60       ?getNumberOfSkins@@YAHPAXPAUentvars_s@@@Z 10013c60 f   animation.obj
 0001:00012c80       ?SetBodygroup@@YAXPAXPAUentvars_s@@HH@Z 10013c80 f   animation.obj
 0001:00012ce0       ?GetBodygroup@@YAHPAXPAUentvars_s@@H@Z 10013ce0 f   animation.obj
 0001:00012d30       ?GetAnimationEvent@@YAHPAXPAUentvars_s@@PAUMonsterEvent_t@@MMH@Z 10013d30 f   animation.obj
 0001:00012d60       ??D@YA?AVVector@@MABV0@@Z  10013d60 f i apache.obj
 0001:00012d90       ?DotProduct@@YAMABVVector@@0@Z 10013d90 f i apache.obj
 0001:00012dc0       ?FStringNull@@YAHH@Z       10013dc0 f i apache.obj
 0001:00012dd0       ?STOP_SOUND@@YAXPAUedict_s@@HPBD@Z 10013dd0 f i apache.obj
 0001:00012e00       ?STOP_SOUND_FILTERED@@YAXPAUedict_s@@HPBD@Z 10013e00 f i apache.obj
 0001:00012e30       ?entindex@CBaseEntity@@QAEHXZ 10013e30 f i apache.obj
 0001:00012e50       ?Save@CApache@@UAEHAAVCSave@@@Z 10013e50 f   apache.obj
 0001:00012e90       ?Restore@CApache@@UAEHAAVCRestore@@@Z 10013e90 f   apache.obj
 0001:00012ed0       ??0CApache@@QAE@XZ         10013ed0 f   apache.obj
 0001:00012ef0       ?Classify@CApache@@UAEHXZ  10013ef0 f i apache.obj
 0001:00012f00       ?BloodColor@CApache@@UAEHXZ 10013f00 f i apache.obj
 0001:00012f10       ?SetObjectCollisionBox@CApache@@UAEXXZ 10013f10 f i apache.obj
 0001:00012fa0       ?Precache@CApache@@UAEXXZ  10013fa0 f   apache.obj
 0001:00013050       ?NullThink@CApache@@QAEXXZ 10014050 f   apache.obj
 0001:00013090       ?isOrganic@CApache@@UAEHXZ 10014090 f   apache.obj
 0001:000130a0       ?DyingThink@CApache@@QAEXXZ 100140a0 f   apache.obj
 0001:00013960       ??0TraceResult@@QAE@ABU0@@Z 10014960 f i apache.obj
 0001:000139c0       ?CrashTouch@CApache@@QAEXPAVCBaseEntity@@@Z 100149c0 f   apache.obj
 0001:00013a00       ?GibMonster@CApache@@UAEXH@Z 10014a00 f   apache.obj
 0001:00013a10       ?Flight@CApache@@QAEXXZ    10014a10 f   apache.obj
 0001:00014140       ?FireRocket@CApache@@QAEXXZ 10015140 f   apache.obj
 0001:00014450       ?FireGun@CApache@@QAEHXZ   10015450 f   apache.obj
 0001:000147e0       ?ShowDamage@CApache@@QAEXXZ 100157e0 f   apache.obj
 0001:000148c0       ?TakeDamage@CApache@@UAEHPAUentvars_s@@0MHH@Z 100158c0 f   apache.obj
 0001:00014910       ?TraceAttack@CApache@@UAEXPAUentvars_s@@MVVector@@PAUTraceResult@@HHHPAH@Z 10015910 f   apache.obj
 0001:000149a0       ?Save@CApacheHVR@@UAEHAAVCSave@@@Z 100159a0 f   apache.obj
 0001:000149e0       ?Restore@CApacheHVR@@UAEHAAVCRestore@@@Z 100159e0 f   apache.obj
 0001:00014a20       ?usesSoundSentenceSave@CApacheHVR@@UAEHXZ 10015a20 f   apache.obj
 0001:00014a30       ?CustomHVRExplodeTouch@CApacheHVR@@QAEXPAVCBaseEntity@@@Z 10015a30 f   apache.obj
 0001:00014a70       ?Precache@CApacheHVR@@UAEXXZ 10015a70 f   apache.obj
 0001:00014ac0       ?AccelerateThink@CApacheHVR@@QAEXXZ 10015ac0 f   apache.obj
 0001:00014c10       ??$GetClassPtr@VCApache@@@@YAPAVCApache@@PAV0@@Z 10015c10 f i apache.obj
 0001:00014cb0       _monster_apache            10015cb0 f   apache.obj
 0001:00014cc0       _apache                    10015cc0 f   apache.obj
 0001:00014cd0       _helicopter                10015cd0 f   apache.obj
 0001:00014ce0       ?Killed@CApache@@UAEXPAUentvars_s@@0H@Z 10015ce0 f   apache.obj
 0001:00014df0       ?FlyTouch@CApache@@QAEXPAVCBaseEntity@@@Z 10015df0 f   apache.obj
 0001:00014ec0       ?GibMonster@CApache@@UAEXXZ 10015ec0 f   apache.obj
 0001:00014ed0       ?HuntThink@CApache@@QAEXXZ 10015ed0 f   apache.obj
 0001:00015690       ?TakeDamage@CApache@@UAEHPAUentvars_s@@0MH@Z 10016690 f   apache.obj
 0001:000156c0       ?TraceAttack@CApache@@UAEXPAUentvars_s@@MVVector@@PAUTraceResult@@H@Z 100166c0 f   apache.obj
 0001:00015700       ?TraceAttack@CApache@@UAEXPAUentvars_s@@MVVector@@PAUTraceResult@@HH@Z 10016700 f   apache.obj
 0001:00015740       ?TraceAttack@CApache@@UAEXPAUentvars_s@@MVVector@@PAUTraceResult@@HHH@Z 10016740 f   apache.obj
 0001:00015780       ??0CApacheHVR@@QAE@XZ      10016780 f   apache.obj
 0001:000157a0       ?IgniteThink@CApacheHVR@@QAEXXZ 100167a0 f   apache.obj
 0001:00015900       ??$GetClassPtr@VCApacheHVR@@@@YAPAVCApacheHVR@@PAV0@@Z 10016900 f i apache.obj
 0001:000159a0       ?StartupUse@CApache@@QAEXPAVCBaseEntity@@0W4USE_TYPE@@M@Z 100169a0 f   apache.obj
 0001:000159f0       ?Killed@CApache@@UAEXPAUentvars_s@@H@Z 100169f0 f   apache.obj
 0001:00015a10       _hvr_rocket                10016a10 f   apache.obj
 0001:00015a20       ?Spawn@CApacheHVR@@UAEXXZ  10016a20 f   apache.obj
 0001:00015b20       ?Spawn@CApache@@UAEXXZ     10016b20 f   apache.obj
 0001:00015ce0       ?StopAnimation@CBaseMonster@@QAEXXZ 10016ce0 f i barnacle.obj
 0001:00015cf0       ??0CBarnacle@@QAE@XZ       10016cf0 f   barnacle.obj
 0001:00015d30       ?BarnacleGetStandardGibSpawnID@CBarnacle@@SAHXZ 10016d30 f   barnacle.obj
 0001:00015dc0       ?SetActivity@CBarnacle@@UAEXW4Activity@@@Z 10016dc0 f   barnacle.obj
 0001:00015de0       ?getTentacleSuddenAnimFrameRate@CBarnacle@@QAEMXZ 10016de0 f   barnacle.obj
 0001:00015e00       ?Save@CBarnacle@@UAEHAAVCSave@@@Z 10016e00 f   barnacle.obj
 0001:00015e40       ?Restore@CBarnacle@@UAEHAAVCRestore@@@Z 10016e40 f   barnacle.obj
 0001:00015e80       ?Classify@CBarnacle@@UAEHXZ 10016e80 f   barnacle.obj
 0001:00015e90       ?HandleAnimEvent@CBarnacle@@UAEXPAUMonsterEvent_t@@@Z 10016e90 f   barnacle.obj
 0001:00015ed0       ?TraceAttack@CBarnacle@@UAEXPAUentvars_s@@MVVector@@PAUTraceResult@@HHHPAH@Z 10016ed0 f   barnacle.obj
 0001:00015f20       ?TakeDamage@CBarnacle@@UAEHPAUentvars_s@@0MHH@Z 10016f20 f   barnacle.obj
 0001:00015f60       ?GibMonster@CBarnacle@@UAEXH@Z 10016f60 f   barnacle.obj
 0001:00015f70       ?GibMonsterGib@CBarnacle@@UAEHH@Z 10016f70 f   barnacle.obj
 0001:00016010       ?WaitTillDead@CBarnacle@@QAEXXZ 10017010 f   barnacle.obj
 0001:00016080       ?Precache@CBarnacle@@UAEXXZ 10017080 f   barnacle.obj
 0001:00016130       ??$GetClassPtr@VCBarnacle@@@@YAPAVCBarnacle@@PAV0@@Z 10017130 f i barnacle.obj
 0001:000161d0       _monster_barnacle          100171d0 f   barnacle.obj
 0001:000161e0       _barnacle                  100171e0 f   barnacle.obj
 0001:000161f0       ?TraceAttack@CBarnacle@@UAEXPAUentvars_s@@MVVector@@PAUTraceResult@@H@Z 100171f0 f   barnacle.obj
 0001:00016230       ?TraceAttack@CBarnacle@@UAEXPAUentvars_s@@MVVector@@PAUTraceResult@@HH@Z 10017230 f   barnacle.obj
 0001:00016270       ?TraceAttack@CBarnacle@@UAEXPAUentvars_s@@MVVector@@PAUTraceResult@@HHH@Z 10017270 f   barnacle.obj
 0001:000162b0       ?TakeDamage@CBarnacle@@UAEHPAUentvars_s@@0MH@Z 100172b0 f   barnacle.obj
 0001:000162e0       ?GibMonster@CBarnacle@@UAEXXZ 100172e0 f   barnacle.obj
 0001:000162f0       ?Killed@CBarnacle@@UAEXPAUentvars_s@@0H@Z 100172f0 f   barnacle.obj
 0001:00016550       ?TongueTouchEnt@CBarnacle@@QAEPAVCBaseEntity@@PAM0@Z 10017550 f   barnacle.obj
 0001:00016900       ?Killed@CBarnacle@@UAEXPAUentvars_s@@H@Z 10017900 f   barnacle.obj
 0001:00016920       ?TongueTouchEnt@CBarnacle@@QAEPAVCBaseEntity@@PAM@Z 10017920 f   barnacle.obj
 0001:00016940       ?BarnacleThink@CBarnacle@@QAEXXZ 10017940 f   barnacle.obj
 0001:000174f0       ?Spawn@CBarnacle@@UAEXXZ   100184f0 f   barnacle.obj
 0001:00017640       ?ClearConditions@CBaseMonster@@QAEXH@Z 10018640 f i barney.obj
 0001:00017660       ?IsFollowing@CTalkMonster@@QAEHXZ 10018660 f i barney.obj
 0001:000176a0       ?DeclineFollowingProvoked@CBarney@@UAEXPAVCBaseEntity@@@Z 100186a0 f   barney.obj
 0001:00017720       ?SayProvoked@CBarney@@UAEXXZ 10018720 f   barney.obj
 0001:000177a0       ?SaySuspicious@CBarney@@UAEXXZ 100187a0 f   barney.obj
 0001:00017820       ?getMadInterSentencesMax@CBarney@@UAEHXZ 10018820 f   barney.obj
 0001:00017840       ?getMadSentencesMax@CBarney@@UAEHXZ 10018840 f   barney.obj
 0001:00017860       ?Save@CBarney@@UAEHAAVCSave@@@Z 10018860 f   barney.obj
 0001:000178a0       ?Restore@CBarney@@UAEHAAVCRestore@@@Z 100188a0 f   barney.obj
 0001:000178e0       ?ScheduleFromName@CBarney@@UAEPAUSchedule_t@@PBD@Z 100188e0 f   barney.obj
 0001:00017910       ?StartTask@CBarney@@UAEXPAUTask_t@@@Z 10018910 f   barney.obj
 0001:00017940       ?RunTask@CBarney@@UAEXPAUTask_t@@@Z 10018940 f   barney.obj
 0001:000179b0       ?ISoundMask@CBarney@@UAEHXZ 100189b0 f   barney.obj
 0001:000179c0       ?Classify@CBarney@@UAEHXZ  100189c0 f   barney.obj
 0001:000179d0       ?getGermanModelRequirement@CBarney@@UAEHXZ 100189d0 f   barney.obj
 0001:000179e0       ?getGermanModel@CBarney@@UAEPBDXZ 100189e0 f   barney.obj
 0001:000179f0       ?getNormalModel@CBarney@@UAEPBDXZ 100189f0 f   barney.obj
 0001:00017a00       ?IRelationship@CBarney@@UAEHPAVCBaseEntity@@@Z 10018a00 f   barney.obj
 0001:00017a40       ?AlertSound@CBarney@@UAEXXZ 10018a40 f   barney.obj
 0001:00017b00       ?SetYawSpeed@CBarney@@UAEXXZ 10018b00 f   barney.obj
 0001:00017bd0       ?BarneyFirePistol@CBarney@@QAEXXZ 10018bd0 f   barney.obj
 0001:00017d40       ?SetActivity@CBarney@@UAEXW4Activity@@@Z 10018d40 f   barney.obj
 0001:00017d90       ?HandleAnimEvent@CBarney@@UAEXPAUMonsterEvent_t@@@Z 10018d90 f   barney.obj
 0001:00017e00       ?CheckAmmo@CBarney@@UAEXXZ 10018e00 f   barney.obj
 0001:00017e20       ??0CBarney@@QAE@XZ         10018e20 f   barney.obj
 0001:00017e60       ?FriendNumber@CTalkMonster@@UAEHH@Z 10018e60 f i barney.obj
 0001:00017e70       ?isOrganic@CBarney@@UAEHXZ 10018e70 f i barney.obj
 0001:00017e80       ?ObjectCaps@CBarney@@UAEHXZ 10018e80 f i barney.obj
 0001:00017e90       ?SetObjectCollisionBox@CBarney@@UAEXXZ 10018e90 f i barney.obj
 0001:00017f30       ?Spawn@CBarney@@UAEXXZ     10018f30 f   barney.obj
 0001:000180c0       ?TalkInit@CBarney@@QAEXXZ  100190c0 f   barney.obj
 0001:000181b0       ?TakeDamage@CBarney@@UAEHPAUentvars_s@@0MHH@Z 100191b0 f   barney.obj
 0001:000181e0       ?PainSound@CBarney@@QAEXH@Z 100191e0 f   barney.obj
 0001:00018310       ?DeathSound@CBarney@@UAEXXZ 10019310 f   barney.obj
 0001:000183e0       ?TraceAttack@CBarney@@UAEXPAUentvars_s@@MVVector@@PAUTraceResult@@HHHPAH@Z 100193e0 f   barney.obj
 0001:00018490       ?Killed@CBarney@@UAEXPAUentvars_s@@0H@Z 10019490 f   barney.obj
 0001:00018560       ?GetScheduleOfType@CBarney@@UAEPAUSchedule_t@@H@Z 10019560 f   barney.obj
 0001:000186b0       ?womboCombo@CBarney@@QAEXXZ 100196b0 f   barney.obj
 0001:000188a0       ?GetSchedule@CBarney@@UAEPAUSchedule_t@@XZ 100198a0 f   barney.obj
 0001:00018c70       ?GetIdealState@CBarney@@UAE?AW4MONSTERSTATE@@XZ 10019c70 f   barney.obj
 0001:00018c80       ?DeclineFollowing@CBarney@@UAEXXZ 10019c80 f   barney.obj
 0001:00018cd0       ?KeyValue@CDeadBarney@@UAEXPAUKeyValueData_s@@@Z 10019cd0 f   barney.obj
 0001:00018d40       ??0CDeadBarney@@QAE@XZ     10019d40 f   barney.obj
 0001:00018d60       ?Classify@CDeadBarney@@UAEHXZ 10019d60 f i barney.obj
 0001:00018d70       ?isOrganic@CDeadBarney@@UAEHXZ 10019d70 f i barney.obj
 0001:00018d80       ?getGermanModelRequirement@CDeadBarney@@UAEHXZ 10019d80 f   barney.obj
 0001:00018d90       ?getGermanModel@CDeadBarney@@UAEPBDXZ 10019d90 f   barney.obj
 0001:00018da0       ?getNormalModel@CDeadBarney@@UAEPBDXZ 10019da0 f   barney.obj
 0001:00018db0       ?Spawn@CDeadBarney@@UAEXXZ 10019db0 f   barney.obj
 0001:00018eb0       ?HandleEventQueueEvent@CBarney@@UAEXH@Z 10019eb0 f   barney.obj
 0001:00018ed0       ?usesAdvancedAnimSystem@CBarney@@UAEHXZ 10019ed0 f   barney.obj
 0001:00018ee0       ?ReportAIState@CBarney@@UAEXXZ 10019ee0 f   barney.obj
 0001:00018f10       ?LookupActivityHard@CBarney@@UAEHH@Z 10019f10 f   barney.obj
 0001:00018fd0       ?tryActivitySubstitute@CBarney@@UAEHH@Z 10019fd0 f   barney.obj
 0001:00019030       ?canResetBlend0@CBarney@@UAEHXZ 1001a030 f   barney.obj
 0001:00019040       ?onResetBlend0@CBarney@@UAEHXZ 1001a040 f   barney.obj
 0001:000190f0       ??$GetClassPtr@VCBarney@@@@YAPAVCBarney@@PAV0@@Z 1001a0f0 f i barney.obj
 0001:00019190       ??$GetClassPtr@VCDeadBarney@@@@YAPAVCDeadBarney@@PAV0@@Z 1001a190 f i barney.obj
 0001:00019230       _monster_barney            1001a230 f   barney.obj
 0001:00019240       _barney                    1001a240 f   barney.obj
 0001:00019250       ?SayLeaderDied@CBarney@@UAEXXZ 1001a250 f   barney.obj
 0001:00019260       ?CheckRangeAttack1@CBarney@@UAEHMM@Z 1001a260 f   barney.obj
 0001:000193e0       ?MonsterThink@CBarney@@UAEXXZ 1001a3e0 f   barney.obj
 0001:000195f0       ?Precache@CBarney@@UAEXXZ  1001a5f0 f   barney.obj
 0001:00019680       ?TakeDamage@CBarney@@UAEHPAUentvars_s@@0MH@Z 1001a680 f   barney.obj
 0001:000196b0       ?PainSound@CBarney@@UAEXXZ 1001a6b0 f   barney.obj
 0001:000196c0       ?TraceAttack@CBarney@@UAEXPAUentvars_s@@MVVector@@PAUTraceResult@@H@Z 1001a6c0 f   barney.obj
 0001:00019700       ?TraceAttack@CBarney@@UAEXPAUentvars_s@@MVVector@@PAUTraceResult@@HH@Z 1001a700 f   barney.obj
 0001:00019740       ?TraceAttack@CBarney@@UAEXPAUentvars_s@@MVVector@@PAUTraceResult@@HHH@Z 1001a740 f   barney.obj
 0001:00019780       ?Killed@CBarney@@UAEXPAUentvars_s@@H@Z 1001a780 f   barney.obj
 0001:000197a0       _monster_barney_dead       1001a7a0 f   barney.obj
 0001:000197b0       _barney_dead               1001a7b0 f   barney.obj
 0001:000197c0       _fabsf                     1001a7c0 f i basemonster.obj
 0001:000197d0       _atanf                     1001a7d0 f i basemonster.obj
 0001:000197f0       ?abs@@YAMM@Z               1001a7f0 f i basemonster.obj
 0001:00019800       ?atan@@YAMM@Z              1001a800 f i basemonster.obj
 0001:00019820       ??0Vector2D@@QAE@XZ        1001a820 f i basemonster.obj
 0001:00019830       ??0Vector2D@@QAE@MM@Z      1001a830 f i basemonster.obj
 0001:00019850       ?Length@Vector2D@@QBEMXZ   1001a850 f i basemonster.obj
 0001:00019880       ?Normalize@Vector2D@@QBE?AV1@XZ 1001a880 f i basemonster.obj
 0001:000198f0       ?DotProduct@@YAMABVVector2D@@0@Z 1001a8f0 f i basemonster.obj
 0001:00019910       ??GVector@@QBE?AV0@XZ      1001a910 f i basemonster.obj
 0001:00019930       ?Make2D@Vector@@QBE?AVVector2D@@XZ 1001a930 f i basemonster.obj
 0001:00019950       ?Length2D@Vector@@QBEMXZ   1001a950 f i basemonster.obj
 0001:00019980       ?CrossProduct@@YA?AVVector@@ABV1@0@Z 1001a980 f i basemonster.obj
 0001:000199c0       ?FNullEnt@@YAHPAUentvars_s@@@Z 1001a9c0 f i basemonster.obj
 0001:000199f0       ?FIND_ENTITY_BY_TARGETNAME@@YAPAUedict_s@@PAU1@PBD@Z 1001a9f0 f i basemonster.obj
 0001:00019a10       ?IsLockedByMaster@CBaseEntity@@QAEHXZ 1001aa10 f i basemonster.obj
 0001:00019a20       ?GetMonsterPointer@CBaseEntity@@QAEPAVCBaseMonster@@PAUedict_s@@@Z 1001aa20 f i basemonster.obj
 0001:00019a60       ?MovementIsComplete@CBaseMonster@@QAEHXZ 1001aa60 f i basemonster.obj
 0001:00019a70       ?Remember@CBaseMonster@@QAEXH@Z 1001aa70 f i basemonster.obj
 0001:00019a80       ?Forget@CBaseMonster@@QAEXH@Z 1001aa80 f i basemonster.obj
 0001:00019aa0       ?HasMemory@CBaseMonster@@QAEHH@Z 1001aaa0 f i basemonster.obj
 0001:00019ac0       ?Node@CGraph@@QAEAAVCNode@@H@Z 1001aac0 f i basemonster.obj
 0001:00019ad0       ?InSquad@CSquadMonster@@QAEHXZ 1001aad0 f i basemonster.obj
 0001:00019af0       ?IsLeader@CSquadMonster@@QAEHXZ 1001aaf0 f i basemonster.obj
 0001:00019b10       ?CallGoDown@CFuncPlat@@QAEXXZ 1001ab10 f i basemonster.obj
 0001:00019b20       ?CallHitTop@CFuncPlat@@QAEXXZ 1001ab20 f i basemonster.obj
 0001:00019b30       ?CallHitBottom@CFuncPlat@@QAEXXZ 1001ab30 f i basemonster.obj
 0001:00019b40       ??0CBaseToggle@@QAE@XZ     1001ab40 f i basemonster.obj
 0001:00019b60       ??0WayPoint_t@@QAE@XZ      1001ab60 f i basemonster.obj
 0001:00019b70       ?usesSoundSentenceSave@CBaseMonster@@UAEHXZ 1001ab70 f   basemonster.obj
 0001:00019b80       ?isSizeGiant@CBaseMonster@@UAEHXZ 1001ab80 f   basemonster.obj
 0001:00019b90       ?getBarnaclePulledTopOffset@CBaseMonster@@UAEMXZ 1001ab90 f   basemonster.obj
 0001:00019ba0       ?getBarnacleForwardOffset@CBaseMonster@@UAEMXZ 1001aba0 f   basemonster.obj
 0001:00019bb0       ?getBarnacleAnimationFactor@CBaseMonster@@UAEMXZ 1001abb0 f   basemonster.obj
 0001:00019bc0       ?setAnimation@CBaseMonster@@QAEXPADHHH@Z 1001abc0 f   basemonster.obj
 0001:00019c90       ?setAnimationSmart@CBaseMonster@@UAEXPBD@Z 1001ac90 f   basemonster.obj
 0001:00019cb0       ?setAnimationSmart@CBaseMonster@@UAEXPBDM@Z 1001acb0 f   basemonster.obj
 0001:00019ce0       ?setAnimationSmart@CBaseMonster@@UAEXHM@Z 1001ace0 f   basemonster.obj
 0001:00019d70       ?setAnimationSmartAndStop@CBaseMonster@@UAEXPBD@Z 1001ad70 f   basemonster.obj
 0001:00019d90       ?setAnimationSmartAndStop@CBaseMonster@@UAEXPBDM@Z 1001ad90 f   basemonster.obj
 0001:00019dc0       ?setAnimationSmartAndStop@CBaseMonster@@UAEXHM@Z 1001adc0 f   basemonster.obj
 0001:00019e50       ?Save@CBaseMonster@@UAEHAAVCSave@@@Z 1001ae50 f   basemonster.obj
 0001:00019e90       ?PostRestore@CBaseMonster@@QAEXXZ 1001ae90 f   basemonster.obj
 0001:00019ea0       ?Eat@CBaseMonster@@QAEXM@Z 1001aea0 f   basemonster.obj
 0001:00019ec0       ?FShouldEat@CBaseMonster@@QAEHXZ 1001aec0 f   basemonster.obj
 0001:00019ee0       ?BarnacleVictimBitten@CBaseMonster@@UAEXPAUentvars_s@@@Z 1001aee0 f   basemonster.obj
 0001:00019f00       ?BarnacleVictimReleased@CBaseMonster@@UAEXXZ 1001af00 f   basemonster.obj
 0001:00019f40       ?testMethod@CBaseMonster@@UAEXXZ 1001af40 f   basemonster.obj
 0001:00019f50       ?interestedInBait@CBaseMonster@@UAEHH@Z 1001af50 f   basemonster.obj
 0001:00019f90       ?getHeardBaitSoundSchedule@CBaseMonster@@UAE?AW4SCHEDULE_TYPE@@PAVCSound@@@Z 1001af90 f   basemonster.obj
 0001:00019fd0       ?_getHeardBaitSoundSchedule@CBaseMonster@@UAE?AW4SCHEDULE_TYPE@@PAVCSound@@@Z 1001afd0 f   basemonster.obj
 0001:0001a130       ?getHeardBaitSoundSchedule@CBaseMonster@@UAE?AW4SCHEDULE_TYPE@@XZ 1001b130 f   basemonster.obj
 0001:0001a180       ?Listen@CBaseMonster@@QAEXXZ 1001b180 f   basemonster.obj
 0001:0001a320       ?FLSoundVolume@CBaseMonster@@QAEMPAVCSound@@@Z 1001b320 f   basemonster.obj
 0001:0001a390       ?FValidateHintType@CBaseMonster@@UAEHF@Z 1001b390 f   basemonster.obj
 0001:0001a3a0       ?Look@CBaseMonster@@UAEXH@Z 1001b3a0 f   basemonster.obj
 0001:0001a6b0       ?ISoundMask@CBaseMonster@@UAEHXZ 1001b6b0 f   basemonster.obj
 0001:0001a6c0       ?PBestSound@CBaseMonster@@UAEPAVCSound@@XZ 1001b6c0 f   basemonster.obj
 0001:0001a7b0       ?PBestScent@CBaseMonster@@UAEPAVCSound@@XZ 1001b7b0 f   basemonster.obj
 0001:0001a890       ?heardBulletHit@CBaseMonster@@UAEXPAUentvars_s@@@Z 1001b890 f   basemonster.obj
 0001:0001a950       ?wanderAway@CBaseMonster@@UAEXABVVector@@@Z 1001b950 f   basemonster.obj
 0001:0001a980       ?convert_itbd_to_damage@CBaseMonster@@QAEHH@Z 1001b980 f   basemonster.obj
 0001:0001a9c0       ?CheckTimeBasedDamage@CBaseMonster@@UAEXXZ 1001b9c0 f   basemonster.obj
 0001:0001ad90       ?forceIdleFrameReset@CBaseMonster@@UAEHXZ 1001bd90 f   basemonster.obj
 0001:0001ada0       ?onNewRouteNode@CBaseMonster@@UAEXXZ 1001bda0 f   basemonster.obj
 0001:0001adb0       ?MonsterThinkPreMOD@CBaseMonster@@UAEXXZ 1001bdb0 f   basemonster.obj
 0001:0001adc0       ?usesAdvancedAnimSystem@CBaseMonster@@UAEHXZ 1001bdc0 f   basemonster.obj
 0001:0001add0       ?getGermanModelRequirement@CBaseMonster@@UAEHXZ 1001bdd0 f   basemonster.obj
 0001:0001ade0       ?getGermanModel@CBaseMonster@@UAEPBDXZ 1001bde0 f   basemonster.obj
 0001:0001adf0       ?getNormalModel@CBaseMonster@@UAEPBDXZ 1001bdf0 f   basemonster.obj
 0001:0001ae00       ?setModel@CBaseMonster@@UAEXPBD@Z 1001be00 f   basemonster.obj
 0001:0001af10       ?getMonsterBlockIdleAutoUpdate@CBaseMonster@@UAEHXZ 1001bf10 f   basemonster.obj
 0001:0001af20       ?MonsterUse@CBaseMonster@@QAEXPAVCBaseEntity@@0W4USE_TYPE@@M@Z 1001bf20 f   basemonster.obj
 0001:0001af30       ?IgnoreConditions@CBaseMonster@@UAEHXZ 1001bf30 f   basemonster.obj
 0001:0001af70       ?RouteNew@CBaseMonster@@QAEXXZ 1001bf70 f   basemonster.obj
 0001:0001af80       ?FRouteClear@CBaseMonster@@QAEHXZ 1001bf80 f   basemonster.obj
 0001:0001afb0       ?MoveToEnemy@CBaseMonster@@QAEHW4Activity@@M@Z 1001bfb0 f   basemonster.obj
 0001:0001afe0       ?MoveToLocation@CBaseMonster@@QAEHW4Activity@@MABVVector@@@Z 1001bfe0 f   basemonster.obj
 0001:0001b030       ?MoveToTarget@CBaseMonster@@QAEHW4Activity@@M@Z 1001c030 f   basemonster.obj
 0001:0001b060       ?MoveToNode@CBaseMonster@@QAEHW4Activity@@MABVVector@@@Z 1001c060 f   basemonster.obj
 0001:0001b0b0       ?DrawRoute@CBaseMonster@@SAXPAUentvars_s@@PAUWayPoint_t@@HHHH@Z 1001c0b0 f   basemonster.obj
 0001:0001b2c0       ?ShouldSimplify@@YAHH@Z    1001c2c0 f   basemonster.obj
 0001:0001b2f0       ?RouteSimplify@CBaseMonster@@QAEXPAVCBaseEntity@@@Z 1001c2f0 f   basemonster.obj
 0001:0001b7b0       ?FBecomeProne@CBaseMonster@@UAEHXZ 1001c7b0 f   basemonster.obj
 0001:0001b7e0       ?CheckRangeAttack1@CBaseMonster@@UAEHMM@Z 1001c7e0 f   basemonster.obj
 0001:0001b830       ?CheckRangeAttack2@CBaseMonster@@UAEHMM@Z 1001c830 f   basemonster.obj
 0001:0001b880       ?CheckMeleeAttack1@CBaseMonster@@UAEHMM@Z 1001c880 f   basemonster.obj
 0001:0001b8e0       ?CheckMeleeAttack2@CBaseMonster@@UAEHMM@Z 1001c8e0 f   basemonster.obj
 0001:0001b920       ?CheckAttacks@CBaseMonster@@QAEXPAVCBaseEntity@@M@Z 1001c920 f   basemonster.obj
 0001:0001bab0       ?FCanCheckAttacks@CBaseMonster@@UAEHXZ 1001cab0 f   basemonster.obj
 0001:0001bad0       ?CheckEnemy@CBaseMonster@@UAEHPAVCBaseEntity@@@Z 1001cad0 f   basemonster.obj
 0001:0001c050       ?refreshStack@CBaseMonster@@QAEXXZ 1001d050 f   basemonster.obj
 0001:0001c110       ?PushEnemy@CBaseMonster@@QAEXPAVCBaseEntity@@AAVVector@@@Z 1001d110 f   basemonster.obj
 0001:0001c1f0       ?PopEnemy@CBaseMonster@@QAEHXZ 1001d1f0 f   basemonster.obj
 0001:0001c260       ?DrawFieldOfVision@CBaseMonster@@QAEXXZ 1001d260 f   basemonster.obj
 0001:0001c450       ?allowedToSetActivity@CBaseMonster@@UAEHXZ 1001d450 f   basemonster.obj
 0001:0001c460       ?tryGetTaskID@CBaseMonster@@QAEHXZ 1001d460 f   basemonster.obj
 0001:0001c480       ?tryGetScheduleName@CBaseMonster@@QAEPBDXZ 1001d480 f   basemonster.obj
 0001:0001c4a0       ?SetActivity@CBaseMonster@@UAEXW4Activity@@@Z 1001d4a0 f   basemonster.obj
 0001:0001c5b0       ?SetSequenceByIndex@CBaseMonster@@QAEXHH@Z 1001d5b0 f   basemonster.obj
 0001:0001c650       ?SetSequenceByName@CBaseMonster@@QAEXPADH@Z 1001d650 f   basemonster.obj
 0001:0001c670       ?SetSequenceByIndex@CBaseMonster@@QAEXHMH@Z 1001d670 f   basemonster.obj
 0001:0001c690       ?SetSequenceByName@CBaseMonster@@QAEXPADMH@Z 1001d690 f   basemonster.obj
 0001:0001c6b0       ?SetSequenceByIndexForceLoops@CBaseMonster@@QAEXHH@Z 1001d6b0 f   basemonster.obj
 0001:0001c6d0       ?SetSequenceByNameForceLoops@CBaseMonster@@QAEXPADH@Z 1001d6d0 f   basemonster.obj
 0001:0001c6f0       ?SetSequenceByIndexForceLoops@CBaseMonster@@QAEXHMH@Z 1001d6f0 f   basemonster.obj
 0001:0001c720       ?SetSequenceByNameForceLoops@CBaseMonster@@QAEXPADMH@Z 1001d720 f   basemonster.obj
 0001:0001c750       ?SetSequenceByIndexForceLoops@CBaseMonster@@QAEXHHH@Z 1001d750 f   basemonster.obj
 0001:0001c780       ?SetSequenceByNameForceLoops@CBaseMonster@@QAEXPADHH@Z 1001d780 f   basemonster.obj
 0001:0001c7b0       ?SetSequenceByIndexForceLoops@CBaseMonster@@QAEXHMHH@Z 1001d7b0 f   basemonster.obj
 0001:0001c7e0       ?SetSequenceByNameForceLoops@CBaseMonster@@QAEXPADMHH@Z 1001d7e0 f   basemonster.obj
 0001:0001c810       ?getHasPathFindingModA@CBaseMonster@@UAEHXZ 1001d810 f   basemonster.obj
 0001:0001c820       ?getHasPathFindingMod@CBaseMonster@@UAEHXZ 1001d820 f   basemonster.obj
 0001:0001c830       ?CheckLocalMoveHull@CBaseMonster@@UAEHABVVector@@0PAVCBaseEntity@@PAM@Z 1001d830 f   basemonster.obj
 0001:0001c840       ?CheckLocalMove@CBaseMonster@@UAEHABVVector@@0PAVCBaseEntity@@PAM@Z 1001d840 f   basemonster.obj
 0001:0001cff0       ?OpenDoorAndWait@CBaseMonster@@QAEMPAUentvars_s@@@Z 1001dff0 f   basemonster.obj
 0001:0001d100       ?RouteClassify@CBaseMonster@@QAEHH@Z 1001e100 f   basemonster.obj
 0001:0001d150       ?InsertWaypoint@CBaseMonster@@QAEXVVector@@H@Z 1001e150 f   basemonster.obj
 0001:0001d300       ?FTriangulate@CBaseMonster@@UAEHABVVector@@0MPAVCBaseEntity@@PAV2@@Z 1001e300 f   basemonster.obj
 0001:0001dbf0       ?hasSeeEnemyFix@CBaseMonster@@UAEHXZ 1001ebf0 f   basemonster.obj
 0001:0001dc00       ?getForceAllowNewEnemy@CBaseMonster@@UAEHPAVCBaseEntity@@@Z 1001ec00 f   basemonster.obj
 0001:0001dc10       ?ShouldAdvanceRoute@CBaseMonster@@UAEHMM@Z 1001ec10 f   basemonster.obj
 0001:0001dcd0       ?MoveExecute@CBaseMonster@@UAEXPAVCBaseEntity@@ABVVector@@M@Z 1001ecd0 f   basemonster.obj
 0001:0001dd80       ?MonsterInitThink@CBaseMonster@@QAEXXZ 1001ed80 f   basemonster.obj
 0001:0001dd90       ?StartMonster@CBaseMonster@@UAEXXZ 1001ed90 f   basemonster.obj
 0001:0001e060       ?TaskIsRunning@CBaseMonster@@QAEHXZ 1001f060 f   basemonster.obj
 0001:0001e080       ?IRelationship@CBaseMonster@@UAEHPAVCBaseEntity@@@Z 1001f080 f   basemonster.obj
 0001:0001e0d0       ?FindCover@CBaseMonster@@UAEHVVector@@0MM@Z 1001f0d0 f   basemonster.obj
 0001:0001e380       ?BestVisibleEnemy@CBaseMonster@@UAEPAVCBaseEntity@@XZ 1001f380 f   basemonster.obj
 0001:0001e550       ?MakeIdealYaw@CBaseMonster@@UAEXVVector@@@Z 1001f550 f   basemonster.obj
 0001:0001e640       ?FlYawDiff@CBaseMonster@@QAEMXZ 1001f640 f   basemonster.obj
 0001:0001e6a0       ?ChangeYaw@CBaseMonster@@UAEMH@Z 1001f6a0 f   basemonster.obj
 0001:0001e830       ?VecToYaw@CBaseMonster@@QAEMVVector@@@Z 1001f830 f   basemonster.obj
 0001:0001e880       ?SetEyePosition@CBaseMonster@@QAEXXZ 1001f880 f   basemonster.obj
 0001:0001e930       ?HandleAnimEvent@CBaseMonster@@UAEXPAUMonsterEvent_t@@@Z 1001f930 f   basemonster.obj
 0001:0001ec20       ?GetGunPosition@CBaseMonster@@UAE?AVVector@@XZ 1001fc20 f   basemonster.obj
 0001:0001ed10       ?GetGunPositionAI@CBaseMonster@@UAE?AVVector@@XZ 1001fd10 f   basemonster.obj
 0001:0001ee00       ?FGetNodeRoute@CBaseMonster@@QAEHVVector@@@Z 1001fe00 f   basemonster.obj
 0001:0001ef30       ?FindHintNode@CBaseMonster@@QAEHXZ 1001ff30 f   basemonster.obj
 0001:0001f0a0       ?reportNetName@CBaseMonster@@QAEXXZ 100200a0 f   basemonster.obj
 0001:0001f100       ?ReportAIState@CBaseMonster@@UAEXXZ 10020100 f   basemonster.obj
 0001:0001f800       ?KeyValue@CBaseMonster@@UAEXPAUKeyValueData_s@@@Z 10020800 f   basemonster.obj
 0001:0001f8c0       ?FCheckAITrigger@CBaseMonster@@QAEHXZ 100208c0 f   basemonster.obj
 0001:0001fa60       ?CanPlaySequence@CBaseMonster@@UAEHHH@Z 10020a60 f   basemonster.obj
 0001:0001fad0       ?FindLateralCover@CBaseMonster@@QAEHABVVector@@0@Z 10020ad0 f   basemonster.obj
 0001:0001fd60       ?ShootAtEnemy@CBaseMonster@@QAE?AVVector@@ABV2@@Z 10020d60 f   basemonster.obj
 0001:0001fe30       ?ShootAtEnemyMod@CBaseMonster@@QAE?AVVector@@ABV2@@Z 10020e30 f   basemonster.obj
 0001:0001ff00       ?FacingIdeal@CBaseMonster@@QAEHXZ 10020f00 f   basemonster.obj
 0001:0001ff40       ?FacingIdeal@CBaseMonster@@QAEHM@Z 10020f40 f   basemonster.obj
 0001:0001ff90       ?FCanActiveIdle@CBaseMonster@@UAEHXZ 10020f90 f   basemonster.obj
 0001:0001ffa0       ?PlaySentence@CBaseMonster@@UAEXPBDMMM@Z 10020fa0 f   basemonster.obj
 0001:00020010       ?PlayScriptedSentence@CBaseMonster@@UAEXPBDMMMHPAVCBaseEntity@@@Z 10021010 f   basemonster.obj
 0001:00020040       ?SentenceStop@CBaseMonster@@UAEXXZ 10021040 f   basemonster.obj
 0001:00020070       ?CorpseFallThink@CBaseMonster@@QAEXXZ 10021070 f   basemonster.obj
 0001:000200c0       ?MonsterInitDead@CBaseMonster@@UAEXXZ 100210c0 f   basemonster.obj
 0001:000201a0       ?BBoxFlat@CBaseMonster@@QAEHXZ 100211a0 f   basemonster.obj
 0001:00020470       ?GetEnemy@CBaseMonster@@QAEHXZ 10021470 f   basemonster.obj
 0001:00020630       ?DropItem@CBaseMonster@@QAEPAVCBaseEntity@@PADABVVector@@1@Z 10021630 f   basemonster.obj
 0001:00020700       ?ShouldFadeOnDeath@CBaseMonster@@UAEHXZ 10021700 f   basemonster.obj
 0001:00020730       ?setPhysicalHitboxForDeath@CBaseMonster@@UAEXXZ 10021730 f   basemonster.obj
 0001:00020810       ?DeathAnimationEnd@CBaseMonster@@UAEXXZ 10021810 f   basemonster.obj
 0001:000208c0       ?onDeathAnimationEnd@CBaseMonster@@UAEXXZ 100218c0 f   basemonster.obj
 0001:000208d0       ?isOrganic@CBaseMonster@@UAEHXZ 100218d0 f   basemonster.obj
 0001:000208e0       ?Activate@CBaseMonster@@UAEXXZ 100218e0 f   basemonster.obj
 0001:00020900       ?Spawn@CBaseMonster@@UAEXXZ 10021900 f   basemonster.obj
 0001:00020910       ?LookupActivityFiltered@CBaseMonster@@UAEHH@Z 10021910 f   basemonster.obj
 0001:00020950       ?LookupActivity@CBaseMonster@@UAEHH@Z 10021950 f   basemonster.obj
 0001:00020990       ?LookupActivityHeaviest@CBaseMonster@@UAEHH@Z 10021990 f   basemonster.obj
 0001:000209d0       ?OnTakeDamageSetConditions@CBaseMonster@@UAEXPAUentvars_s@@0MHH@Z 100219d0 f   basemonster.obj
 0001:00020a10       ?removeFromPoweredUpCommandList@CBaseMonster@@UAEXPAV1@@Z 10021a10 f   basemonster.obj
 0001:00020a20       ?setPoweredUpOff@CBaseMonster@@UAEXXZ 10021a20 f   basemonster.obj
 0001:00020a30       ?setPoweredUpOn@CBaseMonster@@UAEXPAV1@M@Z 10021a30 f   basemonster.obj
 0001:00020a40       ?forgetForcedEnemy@CBaseMonster@@UAEXPAV1@H@Z 10021a40 f   basemonster.obj
 0001:00020a50       ?startReanimation@CBaseMonster@@UAEXXZ 10021a50 f   basemonster.obj
 0001:00020ad0       ?EndOfRevive@CBaseMonster@@UAEXH@Z 10021ad0 f   basemonster.obj
 0001:00020b30       ?MoveYawDegreeTolerance@CBaseMonster@@UAEMXZ 10021b30 f   basemonster.obj
 0001:00020b40       ?BloodColorRedFilter@CBaseMonster@@QAEHXZ 10021b40 f   basemonster.obj
 0001:00020b60       ?CanUseGermanModel@CBaseMonster@@QAEHXZ 10021b60 f   basemonster.obj
 0001:00020b90       ?GetGoalNode@CBaseMonster@@QAEPAUWayPoint_t@@XZ 10021b90 f   basemonster.obj
 0001:00020bc0       ?ReportGeneric@CBaseMonster@@UAEXXZ 10021bc0 f   basemonster.obj
 0001:00020be0       ?NoFriendlyFireImp@CBaseMonster@@UAEHABVVector@@0@Z 10021be0 f   basemonster.obj
 0001:00020cf0       ??0CBaseMonster@@QAE@XZ    10021cf0 f   basemonster.obj
 0001:00020db0       ?setAnimation@CBaseMonster@@QAEXPAD@Z 10021db0 f   basemonster.obj
 0001:00020dd0       ?setAnimation@CBaseMonster@@QAEXPADH@Z 10021dd0 f   basemonster.obj
 0001:00020df0       ?setAnimation@CBaseMonster@@QAEXPADHH@Z 10021df0 f   basemonster.obj
 0001:00020e10       ?MonsterThink@CBaseMonster@@UAEXXZ 10021e10 f   basemonster.obj
 0001:00021490       ?setModel@CBaseMonster@@UAEXXZ 10022490 f   basemonster.obj
 0001:000214a0       ?RouteClear@CBaseMonster@@QAEXXZ 100224a0 f   basemonster.obj
 0001:000214d0       ?SetSequenceByIndex@CBaseMonster@@QAEXH@Z 100224d0 f   basemonster.obj
 0001:000214f0       ?SetSequenceByName@CBaseMonster@@QAEXPAD@Z 100224f0 f   basemonster.obj
 0001:00021510       ?SetSequenceByIndex@CBaseMonster@@QAEXHM@Z 10022510 f   basemonster.obj
 0001:00021530       ?SetSequenceByName@CBaseMonster@@QAEXPADM@Z 10022530 f   basemonster.obj
 0001:00021550       ?BuildRoute@CBaseMonster@@QAEHABVVector@@HPAVCBaseEntity@@@Z 10022550 f   basemonster.obj
 0001:00022170       ?BuildRouteSimple@CBaseMonster@@QAEHABVVector@@HPAVCBaseEntity@@@Z 10023170 f   basemonster.obj
 0001:000222d0       ?MonsterInit@CBaseMonster@@UAEXXZ 100232d0 f   basemonster.obj
 0001:00022470       ?MovementComplete@CBaseMonster@@QAEXXZ 10023470 f   basemonster.obj
 0001:00022520       ?BuildNearestRoute@CBaseMonster@@UAEHVVector@@0MM@Z 10023520 f   basemonster.obj
 0001:00022790       ?BuildNearestRouteSimple@CBaseMonster@@UAEHVVector@@0MM@Z 10023790 f   basemonster.obj
 0001:00022a00       ?DeathAnimationStart@CBaseMonster@@UAEXXZ 10023a00 f   basemonster.obj
 0001:00022a70       ?forceNewEnemy@CBaseMonster@@UAEXPAVCBaseEntity@@0H@Z 10023a70 f   basemonster.obj
 0001:00022ac0       ?Restore@CBaseMonster@@UAEHAAVCRestore@@@Z 10023ac0 f   basemonster.obj
 0001:00022b30       ?FRefreshRouteChaseEnemySmart@CBaseMonster@@UAEHXZ 10023b30 f   basemonster.obj
 0001:00022c70       ?FRefreshRoute@CBaseMonster@@UAEHXZ 10023c70 f   basemonster.obj
 0001:00022e50       ?AdvanceRoute@CBaseMonster@@QAEXMM@Z 10023e50 f   basemonster.obj
 0001:00022ff0       ?Move@CBaseMonster@@UAEXM@Z 10023ff0 f   basemonster.obj
 0001:00023bb0       ??BVector@@QBEPBMXZ        10024bb0 f i bigmomma.obj
 0001:00023bc0       ?UTIL_MakeVectorsPrivate@@YAXABVVector@@PAM11@Z 10024bc0 f i bigmomma.obj
 0001:00023bd0       ?KeyValue@CBaseEntity@@UAEXPAUKeyValueData_s@@@Z 10024bd0 f i bigmomma.obj
 0001:00023bf0       ?Save@CInfoBM@@UAEHAAVCSave@@@Z 10024bf0 f   bigmomma.obj
 0001:00023c30       ?Restore@CInfoBM@@UAEHAAVCRestore@@@Z 10024c30 f   bigmomma.obj
 0001:00023c70       ?Spawn@CInfoBM@@UAEXXZ     10024c70 f   bigmomma.obj
 0001:00023c80       ?KeyValue@CInfoBM@@UAEXPAUKeyValueData_s@@@Z 10024c80 f   bigmomma.obj
 0001:00023e20       ??0CBMortar@@QAE@XZ        10024e20 f   bigmomma.obj
 0001:00023e40       ?Save@CBMortar@@UAEHAAVCSave@@@Z 10024e40 f   bigmomma.obj
 0001:00023e80       ?Restore@CBMortar@@UAEHAAVCRestore@@@Z 10024e80 f   bigmomma.obj
 0001:00023ec0       ?GetNodeSequence@CBigMomma@@QAEHXZ 10024ec0 f i bigmomma.obj
 0001:00023ee0       ?GetNodePresequence@CBigMomma@@QAEHXZ 10024ee0 f i bigmomma.obj
 0001:00023f00       ?GetNodeDelay@CBigMomma@@QAEMXZ 10024f00 f i bigmomma.obj
 0001:00023f20       ?GetNodeRange@CBigMomma@@QAEMXZ 10024f20 f i bigmomma.obj
 0001:00023f40       ?GetNodeYaw@CBigMomma@@QAEMXZ 10024f40 f i bigmomma.obj
 0001:00023f70       ?CanLayCrab@CBigMomma@@QAEHXZ 10024f70 f i bigmomma.obj
 0001:00024030       ?Save@CBigMomma@@UAEHAAVCSave@@@Z 10025030 f   bigmomma.obj
 0001:00024070       ?Restore@CBigMomma@@UAEHAAVCRestore@@@Z 10025070 f   bigmomma.obj
 0001:000240b0       ?KeyValue@CBigMomma@@UAEXPAUKeyValueData_s@@@Z 100250b0 f   bigmomma.obj
 0001:000240c0       ?Classify@CBigMomma@@UAEHXZ 100250c0 f   bigmomma.obj
 0001:000240d0       ?SetYawSpeed@CBigMomma@@UAEXXZ 100250d0 f   bigmomma.obj
 0001:00024100       ?TraceAttack@CBigMomma@@UAEXPAUentvars_s@@MVVector@@PAUTraceResult@@HHHPAH@Z 10025100 f   bigmomma.obj
 0001:00024260       ?TakeDamage@CBigMomma@@UAEHPAUentvars_s@@0MHH@Z 10025260 f   bigmomma.obj
 0001:000242e0       ?DeathNotice@CBigMomma@@UAEXPAUentvars_s@@@Z 100252e0 f   bigmomma.obj
 0001:00024360       ??0CBigMomma@@QAE@XZ       10025360 f   bigmomma.obj
 0001:00024380       ?OverrideReset@CBigMomma@@UAEXXZ 10025380 f i bigmomma.obj
 0001:00024390       ?SetObjectCollisionBox@CBigMomma@@UAEXXZ 10025390 f i bigmomma.obj
 0001:00024430       ?Spawn@CBigMomma@@UAEXXZ   10025430 f   bigmomma.obj
 0001:00024540       ?Precache@CBigMomma@@UAEXXZ 10025540 f   bigmomma.obj
 0001:000246e0       ?Activate@CBigMomma@@UAEXXZ 100256e0 f   bigmomma.obj
 0001:00024700       ?NodeStart@CBigMomma@@QAEXH@Z 10025700 f   bigmomma.obj
 0001:00024790       ?NodeReach@CBigMomma@@QAEXXZ 10025790 f   bigmomma.obj
 0001:00024870       ?CheckMeleeAttack1@CBigMomma@@UAEHMM@Z 10025870 f   bigmomma.obj
 0001:000248b0       ?CheckMeleeAttack2@CBigMomma@@UAEHMM@Z 100258b0 f   bigmomma.obj
 0001:000248c0       ?ScheduleFromName@CBigMomma@@UAEPAUSchedule_t@@PBD@Z 100258c0 f   bigmomma.obj
 0001:000248f0       ?GetScheduleOfType@CBigMomma@@UAEPAUSchedule_t@@H@Z 100258f0 f   bigmomma.obj
 0001:00024920       ?ShouldGoToNode@CBigMomma@@QAEHXZ 10025920 f   bigmomma.obj
 0001:00024950       ?GetSchedule@CBigMomma@@UAEPAUSchedule_t@@XZ 10025950 f   bigmomma.obj
 0001:00024970       ?VecCheckSplatToss@@YA?AVVector@@PAUentvars_s@@ABV1@V1@M@Z 10025970 f   bigmomma.obj
 0001:00024b00       ?MortarSpray@@YAXABVVector@@0HH@Z 10025b00 f   bigmomma.obj
 0001:00024ba0       ?Spawn@CBMortar@@UAEXXZ    10025ba0 f   bigmomma.obj
 0001:00024ca0       ?Animate@CBMortar@@QAEXXZ  10025ca0 f   bigmomma.obj
 0001:00024d90       ?Touch@CBMortar@@UAEXPAVCBaseEntity@@@Z 10025d90 f   bigmomma.obj
 0001:00024fc0       ??$GetClassPtr@VCBMortar@@@@YAPAVCBMortar@@PAV0@@Z 10025fc0 f i bigmomma.obj
 0001:00025060       ??$GetClassPtr@VCBigMomma@@@@YAPAVCBigMomma@@PAV0@@Z 10026060 f i bigmomma.obj
 0001:00025100       ??0CInfoBM@@QAE@XZ         10026100 f i bigmomma.obj
 0001:00025120       ?ObjectCaps@CPointEntity@@UAEHXZ 10026120 f i bigmomma.obj
 0001:00025130       _bmortar                   10026130 f   bigmomma.obj
 0001:00025140       _monster_bigmomma          10026140 f   bigmomma.obj
 0001:00025150       _bigmomma                  10026150 f   bigmomma.obj
 0001:00025160       _gonarch                   10026160 f   bigmomma.obj
 0001:00025170       _monster_gonarch           10026170 f   bigmomma.obj
 0001:00025180       ?TraceAttack@CBigMomma@@UAEXPAUentvars_s@@MVVector@@PAUTraceResult@@H@Z 10026180 f   bigmomma.obj
 0001:000251c0       ?TraceAttack@CBigMomma@@UAEXPAUentvars_s@@MVVector@@PAUTraceResult@@HH@Z 100261c0 f   bigmomma.obj
 0001:00025200       ?TraceAttack@CBigMomma@@UAEXPAUentvars_s@@MVVector@@PAUTraceResult@@HHH@Z 10026200 f   bigmomma.obj
 0001:00025240       ?TakeDamage@CBigMomma@@UAEHPAUentvars_s@@0MH@Z 10026240 f   bigmomma.obj
 0001:00025270       ?LayHeadcrab@CBigMomma@@QAEXXZ 10026270 f   bigmomma.obj
 0001:000253c0       ?CheckRangeAttack1@CBigMomma@@UAEHMM@Z 100263c0 f   bigmomma.obj
 0001:000254c0       ?StartTask@CBigMomma@@UAEXPAUTask_t@@@Z 100264c0 f   bigmomma.obj
 0001:00025900       ?RunTask@CBigMomma@@UAEXPAUTask_t@@@Z 10026900 f   bigmomma.obj
 0001:00025aa0       ?Shoot@CBMortar@@SAPAV1@PAUedict_s@@VVector@@1@Z 10026aa0 f   bigmomma.obj
 0001:00025b30       ??$GetClassPtr@VCInfoBM@@@@YAPAVCInfoBM@@PAV0@@Z 10026b30 f i bigmomma.obj
 0001:00025be0       _info_bigmomma             10026be0 f   bigmomma.obj
 0001:00025bf0       ?LaunchMortar@CBigMomma@@QAEXXZ 10026bf0 f   bigmomma.obj
 0001:00025d00       ?HandleAnimEvent@CBigMomma@@UAEXPAUMonsterEvent_t@@@Z 10026d00 f   bigmomma.obj
 0001:000264e0       ?Classify@CBloater@@UAEHXZ 100274e0 f   bloater.obj
 0001:000264f0       ?SetYawSpeed@CBloater@@UAEXXZ 100274f0 f   bloater.obj
 0001:00026500       ?TraceAttack@CBloater@@UAEXPAUentvars_s@@MVVector@@PAUTraceResult@@HHHPAH@Z 10027500 f   bloater.obj
 0001:00026550       ?TakeDamage@CBloater@@UAEHPAUentvars_s@@0MHH@Z 10027550 f   bloater.obj
 0001:00026590       ?PainSound@CBloater@@UAEXXZ 10027590 f   bloater.obj
 0001:000265a0       ?AlertSound@CBloater@@UAEXXZ 100275a0 f   bloater.obj
 0001:000265b0       ?IdleSound@CBloater@@UAEXXZ 100275b0 f   bloater.obj
 0001:000265c0       ?AttackSnd@CBloater@@QAEXXZ 100275c0 f   bloater.obj
 0001:000265d0       ?HandleAnimEvent@CBloater@@UAEXPAUMonsterEvent_t@@@Z 100275d0 f   bloater.obj
 0001:000265f0       ??0CBloater@@QAE@XZ        100275f0 f   bloater.obj
 0001:00026610       ?CheckRangeAttack1@CBloater@@UAEHMM@Z 10027610 f i bloater.obj
 0001:00026620       ?CheckRangeAttack2@CBloater@@UAEHMM@Z 10027620 f i bloater.obj
 0001:00026630       ?Spawn@CBloater@@UAEXXZ    10027630 f   bloater.obj
 0001:00026740       ?Precache@CBloater@@UAEXXZ 10027740 f   bloater.obj
 0001:00026760       ??$GetClassPtr@VCBloater@@@@YAPAVCBloater@@PAV0@@Z 10027760 f i bloater.obj
 0001:00026800       _monster_bloater           10027800 f   bloater.obj
 0001:00026810       _bloater                   10027810 f   bloater.obj
 0001:00026820       ?TraceAttack@CBloater@@UAEXPAUentvars_s@@MVVector@@PAUTraceResult@@H@Z 10027820 f   bloater.obj
 0001:00026860       ?TraceAttack@CBloater@@UAEXPAUentvars_s@@MVVector@@PAUTraceResult@@HH@Z 10027860 f   bloater.obj
 0001:000268a0       ?TraceAttack@CBloater@@UAEXPAUentvars_s@@MVVector@@PAUTraceResult@@HHH@Z 100278a0 f   bloater.obj
 0001:000268e0       ?TakeDamage@CBloater@@UAEHPAUentvars_s@@0MH@Z 100278e0 f   bloater.obj
 0001:00026910       ?VecBModelOrigin@@YA?AVVector@@PAUentvars_s@@@Z 10027910 f   bmodels.obj
 0001:00026970       ?Spawn@CFuncWall@@UAEXXZ   10027970 f   bmodels.obj
 0001:000269e0       ?IsWorldAffiliated@CFuncWall@@UAEHXZ 100279e0 f   bmodels.obj
 0001:000269f0       ?Use@CFuncWall@@UAEXPAVCBaseEntity@@0W4USE_TYPE@@M@Z 100279f0 f   bmodels.obj
 0001:00026a30       ?IsWorldAffiliated@CFuncWallToggle@@UAEHXZ 10027a30 f   bmodels.obj
 0001:00026a40       ?TurnOff@CFuncWallToggle@@QAEXXZ 10027a40 f   bmodels.obj
 0001:00026a70       ?TurnOn@CFuncWallToggle@@QAEXXZ 10027a70 f   bmodels.obj
 0001:00026aa0       ?IsOn@CFuncWallToggle@@QAEHXZ 10027aa0 f   bmodels.obj
 0001:00026ac0       ?Use@CFuncWallToggle@@UAEXPAVCBaseEntity@@0W4USE_TYPE@@M@Z 10027ac0 f   bmodels.obj
 0001:00026b00       ?UpdateSpeed@CFuncConveyor@@QAEXM@Z 10027b00 f   bmodels.obj
 0001:00026b80       ?Use@CFuncConveyor@@UAEXPAVCBaseEntity@@0W4USE_TYPE@@M@Z 10027b80 f   bmodels.obj
 0001:00026bb0       ?KeyValue@CFuncIllusionary@@UAEXPAUKeyValueData_s@@@Z 10027bb0 f   bmodels.obj
 0001:00026c20       ?IsWorldAffiliated@CFuncIllusionary@@UAEHXZ 10027c20 f   bmodels.obj
 0001:00026c30       ?Spawn@CFuncIllusionary@@UAEXXZ 10027c30 f   bmodels.obj
 0001:00026c90       ?Spawn@CFuncMonsterClip@@UAEXXZ 10027c90 f   bmodels.obj
 0001:00026cd0       ?Save@CFuncRotating@@UAEHAAVCSave@@@Z 10027cd0 f   bmodels.obj
 0001:00026d10       ?Restore@CFuncRotating@@UAEHAAVCRestore@@@Z 10027d10 f   bmodels.obj
 0001:00026d50       ?KeyValue@CFuncRotating@@UAEXPAUKeyValueData_s@@@Z 10027d50 f   bmodels.obj
 0001:00026f10       ?IsWorldAffiliated@CFuncRotating@@UAEHXZ 10027f10 f   bmodels.obj
 0001:00026f20       ?HurtTouch@CFuncRotating@@QAEXPAVCBaseEntity@@@Z 10027f20 f   bmodels.obj
 0001:00027020       ?RampPitchVol@CFuncRotating@@QAEXH@Z 10028020 f   bmodels.obj
 0001:00027150       ?Rotate@CFuncRotating@@QAEXXZ 10028150 f   bmodels.obj
 0001:00027170       ?Blocked@CFuncRotating@@UAEXPAVCBaseEntity@@@Z 10028170 f   bmodels.obj
 0001:000271a0       ?Save@CPendulum@@UAEHAAVCSave@@@Z 100281a0 f   bmodels.obj
 0001:000271e0       ?Restore@CPendulum@@UAEHAAVCRestore@@@Z 100281e0 f   bmodels.obj
 0001:00027220       ?KeyValue@CPendulum@@UAEXPAUKeyValueData_s@@@Z 10028220 f   bmodels.obj
 0001:000272f0       ?IsWorldAffiliated@CPendulum@@UAEHXZ 100282f0 f   bmodels.obj
 0001:00027300       ?Stop@CPendulum@@QAEXXZ    10028300 f   bmodels.obj
 0001:00027360       ?Blocked@CPendulum@@UAEXPAVCBaseEntity@@@Z 10028360 f   bmodels.obj
 0001:00027370       ?Swing@CPendulum@@QAEXXZ   10028370 f   bmodels.obj
 0001:00027580       ?Touch@CPendulum@@UAEXPAVCBaseEntity@@@Z 10028580 f   bmodels.obj
 0001:00027680       ?RopeTouch@CPendulum@@QAEXPAVCBaseEntity@@@Z 10028680 f   bmodels.obj
 0001:00027700       ??0CFuncWall@@QAE@XZ       10028700 f i bmodels.obj
 0001:00027720       ?ObjectCaps@CFuncWall@@UAEHXZ 10028720 f i bmodels.obj
 0001:00027730       ??0CFuncWallToggle@@QAE@XZ 10028730 f i bmodels.obj
 0001:00027750       ??0CFuncConveyor@@QAE@XZ   10028750 f i bmodels.obj
 0001:00027770       ??0CFuncMonsterClip@@QAE@XZ 10028770 f i bmodels.obj
 0001:00027790       ?Use@CFuncMonsterClip@@UAEXPAVCBaseEntity@@0W4USE_TYPE@@M@Z 10028790 f i bmodels.obj
 0001:000277a0       ??0CFuncRotating@@QAE@XZ   100287a0 f i bmodels.obj
 0001:000277c0       ?ObjectCaps@CFuncRotating@@UAEHXZ 100287c0 f i bmodels.obj
 0001:000277d0       ??0CPendulum@@QAE@XZ       100287d0 f i bmodels.obj
 0001:000277f0       ?ObjectCaps@CPendulum@@UAEHXZ 100287f0 f i bmodels.obj
 0001:00027800       ?Spawn@CFuncWallToggle@@UAEXXZ 10028800 f   bmodels.obj
 0001:00027820       ?Spawn@CFuncConveyor@@UAEXXZ 10028820 f   bmodels.obj
 0001:000278a0       ?SpinUp@CFuncRotating@@QAEXXZ 100288a0 f   bmodels.obj
 0001:00027a60       ?SpinDown@CFuncRotating@@QAEXXZ 10028a60 f   bmodels.obj
 0001:00027c40       ?RotatingUse@CFuncRotating@@QAEXPAVCBaseEntity@@0W4USE_TYPE@@M@Z 10028c40 f   bmodels.obj
 0001:00027dd0       ?PendulumUse@CPendulum@@QAEXPAVCBaseEntity@@0W4USE_TYPE@@M@Z 10028dd0 f   bmodels.obj
 0001:00027ef0       ??$GetClassPtr@VCFuncWall@@@@YAPAVCFuncWall@@PAV0@@Z 10028ef0 f i bmodels.obj
 0001:00027fa0       ??$GetClassPtr@VCFuncWallToggle@@@@YAPAVCFuncWallToggle@@PAV0@@Z 10028fa0 f i bmodels.obj
 0001:00028050       ??$GetClassPtr@VCFuncConveyor@@@@YAPAVCFuncConveyor@@PAV0@@Z 10029050 f i bmodels.obj
 0001:00028100       ??$GetClassPtr@VCFuncMonsterClip@@@@YAPAVCFuncMonsterClip@@PAV0@@Z 10029100 f i bmodels.obj
 0001:000281b0       ??$GetClassPtr@VCFuncRotating@@@@YAPAVCFuncRotating@@PAV0@@Z 100291b0 f i bmodels.obj
 0001:00028260       ??$GetClassPtr@VCPendulum@@@@YAPAVCPendulum@@PAV0@@Z 10029260 f i bmodels.obj
 0001:00028310       ??0CFuncIllusionary@@QAE@XZ 10029310 f i bmodels.obj
 0001:00028330       ?ObjectCaps@CFuncIllusionary@@UAEHXZ 10029330 f i bmodels.obj
 0001:00028340       _func_wall                 10029340 f   bmodels.obj
 0001:00028350       _func_wall_toggle          10029350 f   bmodels.obj
 0001:00028360       _func_conveyor             10029360 f   bmodels.obj
 0001:00028370       _func_monsterclip          10029370 f   bmodels.obj
 0001:00028380       _func_rotating             10029380 f   bmodels.obj
 0001:00028390       ?Spawn@CFuncRotating@@UAEXXZ 10029390 f   bmodels.obj
 0001:000285b0       ?Precache@CFuncRotating@@UAEXXZ 100295b0 f   bmodels.obj
 0001:00028740       _func_pendulum             10029740 f   bmodels.obj
 0001:00028750       ?Spawn@CPendulum@@UAEXXZ   10029750 f   bmodels.obj
 0001:00028910       ??$GetClassPtr@VCFuncIllusionary@@@@YAPAVCFuncIllusionary@@PAV0@@Z 10029910 f i bmodels.obj
 0001:000289c0       _func_illusionary          100299c0 f   bmodels.obj
 0001:000289d0       _powf                      100299d0 f i bullsquid.obj
 0001:000289f0       ?pow@@YAMMM@Z              100299f0 f i bullsquid.obj
 0001:00028a10       ?TraceAttack@CSquidSpit@@UAEXPAUentvars_s@@MVVector@@PAUTraceResult@@H@Z 10029a10 f   bullsquid.obj
 0001:00028a20       ?TraceAttack@CSquidSpit@@UAEXPAUentvars_s@@MVVector@@PAUTraceResult@@HH@Z 10029a20 f   bullsquid.obj
 0001:00028a30       ?TraceAttack@CSquidSpit@@UAEXPAUentvars_s@@MVVector@@PAUTraceResult@@HHH@Z 10029a30 f   bullsquid.obj
 0001:00028a40       ?TraceAttack@CSquidSpit@@UAEXPAUentvars_s@@MVVector@@PAUTraceResult@@HHHPAH@Z 10029a40 f   bullsquid.obj
 0001:00028a50       ?TakeDamage@CSquidSpit@@UAEHPAUentvars_s@@0MH@Z 10029a50 f   bullsquid.obj
 0001:00028a60       ?TakeDamage@CSquidSpit@@UAEHPAUentvars_s@@0MHH@Z 10029a60 f   bullsquid.obj
 0001:00028a70       ?Save@CSquidSpit@@UAEHAAVCSave@@@Z 10029a70 f   bullsquid.obj
 0001:00028ab0       ?Restore@CSquidSpit@@UAEHAAVCRestore@@@Z 10029ab0 f   bullsquid.obj
 0001:00028af0       ??0CSquidSpit@@QAE@XZ      10029af0 f   bullsquid.obj
 0001:00028b10       ?usesSoundSentenceSave@CSquidSpit@@UAEHXZ 10029b10 f   bullsquid.obj
 0001:00028b20       ?getParticleDir@@YA?AVVector@@ABV1@@Z 10029b20 f   bullsquid.obj
 0001:00028b90       ?Spawn@CSquidSpit@@UAEXXZ  10029b90 f   bullsquid.obj
 0001:00028c90       ?Animate@CSquidSpit@@QAEXXZ 10029c90 f   bullsquid.obj
 0001:00028d50       ?Save@CBullsquid@@UAEHAAVCSave@@@Z 10029d50 f   bullsquid.obj
 0001:00028d90       ?Restore@CBullsquid@@UAEHAAVCRestore@@@Z 10029d90 f   bullsquid.obj
 0001:00028dd0       ?IgnoreConditions@CBullsquid@@UAEHXZ 10029dd0 f   bullsquid.obj
 0001:00028e70       ?IRelationship@CBullsquid@@UAEHPAVCBaseEntity@@@Z 10029e70 f   bullsquid.obj
 0001:00028ee0       ?TraceAttack@CBullsquid@@UAEXPAUentvars_s@@MVVector@@PAUTraceResult@@HHHPAH@Z 10029ee0 f   bullsquid.obj
 0001:00028f30       ?TakeDamage@CBullsquid@@UAEHPAUentvars_s@@0MHH@Z 10029f30 f   bullsquid.obj
 0001:00029110       ?CheckRangeAttack1@CBullsquid@@UAEHMM@Z 1002a110 f   bullsquid.obj
 0001:00029270       ?CheckMeleeAttack1@CBullsquid@@UAEHMM@Z 1002a270 f   bullsquid.obj
 0001:000292d0       ?CheckMeleeAttack2@CBullsquid@@UAEHMM@Z 1002a2d0 f   bullsquid.obj
 0001:00029310       ?FValidateHintType@CBullsquid@@UAEHF@Z 1002a310 f   bullsquid.obj
 0001:00029350       ?ISoundMask@CBullsquid@@UAEHXZ 1002a350 f   bullsquid.obj
 0001:00029360       ?Classify@CBullsquid@@UAEHXZ 1002a360 f   bullsquid.obj
 0001:00029370       ?IdleSound@CBullsquid@@UAEXXZ 1002a370 f   bullsquid.obj
 0001:00029480       ?PainSound@CBullsquid@@UAEXXZ 1002a480 f   bullsquid.obj
 0001:00029570       ?AlertSound@CBullsquid@@UAEXXZ 1002a570 f   bullsquid.obj
 0001:00029600       ?SetYawSpeed@CBullsquid@@UAEXXZ 1002a600 f   bullsquid.obj
 0001:00029620       ??0CBullsquid@@QAE@XZ      1002a620 f   bullsquid.obj
 0001:00029640       ?Spawn@CBullsquid@@UAEXXZ  1002a640 f   bullsquid.obj
 0001:00029730       ?Precache@CBullsquid@@UAEXXZ 1002a730 f   bullsquid.obj
 0001:00029870       ?DeathSound@CBullsquid@@UAEXXZ 1002a870 f   bullsquid.obj
 0001:00029920       ?AttackSound@CBullsquid@@QAEXXZ 1002a920 f   bullsquid.obj
 0001:000299a0       ?RunAI@CBullsquid@@UAEXXZ  1002a9a0 f   bullsquid.obj
 0001:00029a60       ?ScheduleFromName@CBullsquid@@UAEPAUSchedule_t@@PBD@Z 1002aa60 f   bullsquid.obj
 0001:00029a90       ?GetSchedule@CBullsquid@@UAEPAUSchedule_t@@XZ 1002aa90 f   bullsquid.obj
 0001:00029c70       ?GetScheduleOfType@CBullsquid@@UAEPAUSchedule_t@@H@Z 1002ac70 f   bullsquid.obj
 0001:00029da0       ?RunTask@CBullsquid@@UAEXPAUTask_t@@@Z 1002ada0 f   bullsquid.obj
 0001:00029e20       ?GetIdealState@CBullsquid@@UAE?AW4MONSTERSTATE@@XZ 1002ae20 f   bullsquid.obj
 0001:00029ea0       ??$GetClassPtr@VCSquidSpit@@@@YAPAVCSquidSpit@@PAV0@@Z 1002aea0 f i bullsquid.obj
 0001:00029f40       ??$GetClassPtr@VCBullsquid@@@@YAPAVCBullsquid@@PAV0@@Z 1002af40 f i bullsquid.obj
 0001:00029fe0       _squidspit                 1002afe0 f   bullsquid.obj
 0001:00029ff0       ?Shoot@CSquidSpit@@SAXPAUentvars_s@@VVector@@1ABV3@22@Z 1002aff0 f   bullsquid.obj
 0001:0002a570       ?Touch@CSquidSpit@@UAEXPAVCBaseEntity@@@Z 1002b570 f   bullsquid.obj
 0001:0002a860       _monster_bullchicken       1002b860 f   bullsquid.obj
 0001:0002a870       _bullchicken               1002b870 f   bullsquid.obj
 0001:0002a880       _bullsquid                 1002b880 f   bullsquid.obj
 0001:0002a890       _monster_bullsquid         1002b890 f   bullsquid.obj
 0001:0002a8a0       _monster_bull              1002b8a0 f   bullsquid.obj
 0001:0002a8b0       _bull                      1002b8b0 f   bullsquid.obj
 0001:0002a8c0       ?TraceAttack@CBullsquid@@UAEXPAUentvars_s@@MVVector@@PAUTraceResult@@H@Z 1002b8c0 f   bullsquid.obj
 0001:0002a900       ?TraceAttack@CBullsquid@@UAEXPAUentvars_s@@MVVector@@PAUTraceResult@@HH@Z 1002b900 f   bullsquid.obj
 0001:0002a940       ?TraceAttack@CBullsquid@@UAEXPAUentvars_s@@MVVector@@PAUTraceResult@@HHH@Z 1002b940 f   bullsquid.obj
 0001:0002a980       ?TakeDamage@CBullsquid@@UAEHPAUentvars_s@@0MH@Z 1002b980 f   bullsquid.obj
 0001:0002a9b0       ?HandleAnimEvent@CBullsquid@@UAEXPAUMonsterEvent_t@@@Z 1002b9b0 f   bullsquid.obj
 0001:0002b1a0       ?StartTask@CBullsquid@@UAEXPAUTask_t@@@Z 1002c1a0 f   bullsquid.obj
 0001:0002b310       ?EntityInTable@CGlobalState@@QAEHH@Z 1002c310 f i buttons.obj
 0001:0002b330       ?Save@CEnvGlobal@@UAEHAAVCSave@@@Z 1002c330 f   buttons.obj
 0001:0002b370       ?Restore@CEnvGlobal@@UAEHAAVCRestore@@@Z 1002c370 f   buttons.obj
 0001:0002b3b0       ?KeyValue@CEnvGlobal@@UAEXPAUKeyValueData_s@@@Z 1002c3b0 f   buttons.obj
 0001:0002b4c0       ?IsWorldAffiliated@CEnvGlobal@@UAEHXZ 1002c4c0 f   buttons.obj
 0001:0002b4d0       ?Spawn@CEnvGlobal@@UAEXXZ  1002c4d0 f   buttons.obj
 0001:0002b540       ?Use@CEnvGlobal@@UAEXPAVCBaseEntity@@0W4USE_TYPE@@M@Z 1002c540 f   buttons.obj
 0001:0002b5d0       ?Save@CMultiSource@@UAEHAAVCSave@@@Z 1002c5d0 f   buttons.obj
 0001:0002b610       ?Restore@CMultiSource@@UAEHAAVCRestore@@@Z 1002c610 f   buttons.obj
 0001:0002b650       ?KeyValue@CMultiSource@@UAEXPAUKeyValueData_s@@@Z 1002c650 f   buttons.obj
 0001:0002b780       ?IsWorldAffiliated@CMultiSource@@UAEHXZ 1002c780 f   buttons.obj
 0001:0002b790       ?Use@CMultiSource@@UAEXPAVCBaseEntity@@0W4USE_TYPE@@M@Z 1002c790 f   buttons.obj
 0001:0002b870       ?IsTriggered@CMultiSource@@UAEHPAVCBaseEntity@@@Z 1002c870 f   buttons.obj
 0001:0002b8d0       ?Register@CMultiSource@@QAEXXZ 1002c8d0 f   buttons.obj
 0001:0002ba10       ?Save@CBaseButton@@UAEHAAVCSave@@@Z 1002ca10 f   buttons.obj
 0001:0002ba50       ?Restore@CBaseButton@@UAEHAAVCRestore@@@Z 1002ca50 f   buttons.obj
 0001:0002ba90       ?KeyValue@CBaseButton@@UAEXPAUKeyValueData_s@@@Z 1002ca90 f   buttons.obj
 0001:0002bcc0       ?IsWorldAffiliated@CBaseButton@@UAEHXZ 1002ccc0 f   buttons.obj
 0001:0002bcd0       ?TraceAttack@CBaseButton@@UAEXPAUentvars_s@@MVVector@@PAUTraceResult@@HHHPAH@Z 1002ccd0 f   buttons.obj
 0001:0002bd20       ?ButtonSound@@YAPADH@Z     1002cd20 f   buttons.obj
 0001:0002be30       ?DoSpark@@YAXPAUentvars_s@@ABVVector@@M@Z 1002ce30 f   buttons.obj
 0001:0002c020       ?DoSpark@@YAXPAUentvars_s@@ABVVector@@@Z 1002d020 f   buttons.obj
 0001:0002c040       ?ButtonSpark@CBaseButton@@QAEXXZ 1002d040 f   buttons.obj
 0001:0002c0b0       ?ButtonResponseToTouch@CBaseButton@@QAE?AW4BUTTON_CODE@1@XZ 1002d0b0 f   buttons.obj
 0001:0002c110       ?Instance@CMomentaryRotButton@@SAPAV1@PAUedict_s@@@Z 1002d110 f i buttons.obj
 0001:0002c130       ?Save@CMomentaryRotButton@@UAEHAAVCSave@@@Z 1002d130 f   buttons.obj
 0001:0002c170       ?Restore@CMomentaryRotButton@@UAEHAAVCRestore@@@Z 1002d170 f   buttons.obj
 0001:0002c1b0       ?Spawn@CMomentaryRotButton@@UAEXXZ 1002d1b0 f   buttons.obj
 0001:0002c390       ?KeyValue@CMomentaryRotButton@@UAEXPAUKeyValueData_s@@@Z 1002d390 f   buttons.obj
 0001:0002c4a0       ?IsWorldAffiliated@CMomentaryRotButton@@UAEHXZ 1002d4a0 f   buttons.obj
 0001:0002c4b0       ?PlaySound@CMomentaryRotButton@@QAEXXZ 1002d4b0 f   buttons.obj
 0001:0002c4f0       ?UpdateTarget@CMomentaryRotButton@@QAEXM@Z 1002d4f0 f   buttons.obj
 0001:0002c570       ?Off@CMomentaryRotButton@@QAEXXZ 1002d570 f   buttons.obj
 0001:0002c5f0       ?UpdateSelfReturn@CMomentaryRotButton@@QAEXM@Z 1002d5f0 f   buttons.obj
 0001:0002c6c0       ?Save@CEnvSpark@@UAEHAAVCSave@@@Z 1002d6c0 f   buttons.obj
 0001:0002c700       ?Restore@CEnvSpark@@UAEHAAVCRestore@@@Z 1002d700 f   buttons.obj
 0001:0002c740       ?Precache@CEnvSpark@@UAEXXZ 1002d740 f   buttons.obj
 0001:0002c780       ?KeyValue@CEnvSpark@@UAEXPAUKeyValueData_s@@@Z 1002d780 f   buttons.obj
 0001:0002c8a0       ?IsWorldAffiliated@CEnvSpark@@UAEHXZ 1002d8a0 f   buttons.obj
 0001:0002c8b0       ?SparkThink@CEnvSpark@@QAEXXZ 1002d8b0 f   buttons.obj
 0001:0002c950       ?SparkStart@CEnvSpark@@QAEXPAVCBaseEntity@@0W4USE_TYPE@@M@Z 1002d950 f   buttons.obj
 0001:0002c9b0       ?SparkStop@CEnvSpark@@QAEXPAVCBaseEntity@@0W4USE_TYPE@@M@Z 1002d9b0 f   buttons.obj
 0001:0002c9d0       ?Spawn@CButtonTarget@@UAEXXZ 1002d9d0 f   buttons.obj
 0001:0002ca40       ?Use@CButtonTarget@@UAEXPAVCBaseEntity@@0W4USE_TYPE@@M@Z 1002da40 f   buttons.obj
 0001:0002cac0       ?IsWorldAffiliated@CButtonTarget@@UAEHXZ 1002dac0 f   buttons.obj
 0001:0002cad0       ?ObjectCaps@CButtonTarget@@UAEHXZ 1002dad0 f   buttons.obj
 0001:0002caf0       ?TraceAttack@CButtonTarget@@UAEXPAUentvars_s@@MVVector@@PAUTraceResult@@HHHPAH@Z 1002daf0 f   buttons.obj
 0001:0002cb40       ?TakeDamage@CButtonTarget@@UAEHPAUentvars_s@@0MHH@Z 1002db40 f   buttons.obj
 0001:0002cb90       ??0CEnvGlobal@@QAE@XZ      1002db90 f i buttons.obj
 0001:0002cbb0       ??0CMultiSource@@QAE@XZ    1002dbb0 f i buttons.obj
 0001:0002cbd0       ?ObjectCaps@CMultiSource@@UAEHXZ 1002dbd0 f i buttons.obj
 0001:0002cbe0       ??0CBaseButton@@QAE@XZ     1002dbe0 f i buttons.obj
 0001:0002cc00       ?ObjectCaps@CBaseButton@@UAEHXZ 1002dc00 f i buttons.obj
 0001:0002cc20       ??0CRotButton@@QAE@XZ      1002dc20 f i buttons.obj
 0001:0002cc40       ??0CEnvSpark@@QAE@XZ       1002dc40 f i buttons.obj
 0001:0002cc60       ??0CButtonTarget@@QAE@XZ   1002dc60 f i buttons.obj
 0001:0002cc80       ??_9CBaseButton@@$BBNI@AE  1002dc80 f i buttons.obj
 0001:0002cc90       ?Spawn@CMultiSource@@UAEXXZ 1002dc90 f   buttons.obj
 0001:0002cce0       ?Precache@CBaseButton@@UAEXXZ 1002dce0 f   buttons.obj
 0001:0002cf50       ?TraceAttack@CBaseButton@@UAEXPAUentvars_s@@MVVector@@PAUTraceResult@@H@Z 1002df50 f   buttons.obj
 0001:0002cf90       ?TraceAttack@CBaseButton@@UAEXPAUentvars_s@@MVVector@@PAUTraceResult@@HH@Z 1002df90 f   buttons.obj
 0001:0002cfd0       ?TraceAttack@CBaseButton@@UAEXPAUentvars_s@@MVVector@@PAUTraceResult@@HHH@Z 1002dfd0 f   buttons.obj
 0001:0002d010       ?ButtonBackHome@CBaseButton@@QAEXXZ 1002e010 f   buttons.obj
 0001:0002d160       ??0CMomentaryRotButton@@QAE@XZ 1002e160 f   buttons.obj
 0001:0002d180       ?ObjectCaps@CMomentaryRotButton@@UAEHXZ 1002e180 f i buttons.obj
 0001:0002d1a0       ?UpdateSelf@CMomentaryRotButton@@QAEXM@Z 1002e1a0 f   buttons.obj
 0001:0002d330       ?Spawn@CEnvSpark@@UAEXXZ   1002e330 f   buttons.obj
 0001:0002d3e0       ?TraceAttack@CButtonTarget@@UAEXPAUentvars_s@@MVVector@@PAUTraceResult@@H@Z 1002e3e0 f   buttons.obj
 0001:0002d420       ?TraceAttack@CButtonTarget@@UAEXPAUentvars_s@@MVVector@@PAUTraceResult@@HH@Z 1002e420 f   buttons.obj
 0001:0002d460       ?TraceAttack@CButtonTarget@@UAEXPAUentvars_s@@MVVector@@PAUTraceResult@@HHH@Z 1002e460 f   buttons.obj
 0001:0002d4a0       ?TakeDamage@CButtonTarget@@UAEHPAUentvars_s@@0MH@Z 1002e4a0 f   buttons.obj
 0001:0002d4d0       ??$GetClassPtr@VCEnvGlobal@@@@YAPAVCEnvGlobal@@PAV0@@Z 1002e4d0 f i buttons.obj
 0001:0002d580       ??$GetClassPtr@VCMultiSource@@@@YAPAVCMultiSource@@PAV0@@Z 1002e580 f i buttons.obj
 0001:0002d630       ??$GetClassPtr@VCBaseButton@@@@YAPAVCBaseButton@@PAV0@@Z 1002e630 f i buttons.obj
 0001:0002d6e0       ??$GetClassPtr@VCRotButton@@@@YAPAVCRotButton@@PAV0@@Z 1002e6e0 f i buttons.obj
 0001:0002d790       ??$GetClassPtr@VCMomentaryRotButton@@@@YAPAVCMomentaryRotButton@@PAV0@@Z 1002e790 f i buttons.obj
 0001:0002d830       ??$GetClassPtr@VCEnvSpark@@@@YAPAVCEnvSpark@@PAV0@@Z 1002e830 f i buttons.obj
 0001:0002d8e0       ??$GetClassPtr@VCButtonTarget@@@@YAPAVCButtonTarget@@PAV0@@Z 1002e8e0 f i buttons.obj
 0001:0002d990       _env_global                1002e990 f   buttons.obj
 0001:0002d9a0       _multisource               1002e9a0 f   buttons.obj
 0001:0002d9b0       _func_button               1002e9b0 f   buttons.obj
 0001:0002d9c0       ?ButtonReturn@CBaseButton@@QAEXXZ 1002e9c0 f   buttons.obj
 0001:0002da60       _func_rot_button           1002ea60 f   buttons.obj
 0001:0002da70       _momentary_rot_button      1002ea70 f   buttons.obj
 0001:0002da80       ?UpdateAllButtons@CMomentaryRotButton@@QAEXMH@Z 1002ea80 f   buttons.obj
 0001:0002db40       ?Return@CMomentaryRotButton@@QAEXXZ 1002eb40 f   buttons.obj
 0001:0002dbb0       _env_spark                 1002ebb0 f   buttons.obj
 0001:0002dbc0       _env_debris                1002ebc0 f   buttons.obj
 0001:0002dbd0       _button_target             1002ebd0 f   buttons.obj
 0001:0002dbe0       ?TriggerAndWait@CBaseButton@@QAEXXZ 1002ebe0 f   buttons.obj
 0001:0002dc90       ?Use@CMomentaryRotButton@@UAEXPAVCBaseEntity@@0W4USE_TYPE@@M@Z 1002ec90 f   buttons.obj
 0001:0002dd30       ?ButtonActivate@CBaseButton@@QAEXXZ 1002ed30 f   buttons.obj
 0001:0002de40       ?TakeDamage@CBaseButton@@UAEHPAUentvars_s@@0MHH@Z 1002ee40 f   buttons.obj
 0001:0002df30       ?ButtonUse@CBaseButton@@QAEXPAVCBaseEntity@@0W4USE_TYPE@@M@Z 1002ef30 f   buttons.obj
 0001:0002dfd0       ?ButtonTouch@CBaseButton@@UAEXPAVCBaseEntity@@@Z 1002efd0 f   buttons.obj
 0001:0002e100       ?Spawn@CRotButton@@UAEXXZ  1002f100 f   buttons.obj
 0001:0002e310       ?TakeDamage@CBaseButton@@UAEHPAUentvars_s@@0MH@Z 1002f310 f   buttons.obj
 0001:0002e340       ?Spawn@CBaseButton@@UAEXXZ 1002f340 f   buttons.obj
 0001:0002e640       ??0CSave@@QAE@PAUsaverestore_s@@@Z 1002f640 f i cbase.obj
 0001:0002e660       ??0CRestore@@QAE@PAUsaverestore_s@@@Z 1002f660 f i cbase.obj
 0001:0002e690       ?SetGlobalMode@CRestore@@QAEXH@Z 1002f690 f i cbase.obj
 0001:0002e6a0       ?PrecacheMode@CRestore@@QAEXH@Z 1002f6a0 f i cbase.obj
 0001:0002e6b0       _GetEntityAPI              1002f6b0 f   cbase.obj
 0001:0002e6e0       _GetEntityAPI2             1002f6e0 f   cbase.obj
 0001:0002e720       ?DispatchKeyValue@@YAXPAUedict_s@@PAUKeyValueData_s@@@Z 1002f720 f   cbase.obj
 0001:0002e770       ?DispatchTouch@@YAXPAUedict_s@@0@Z 1002f770 f   cbase.obj
 0001:0002e7d0       ?DispatchUse@@YAXPAUedict_s@@0@Z 1002f7d0 f   cbase.obj
 0001:0002e820       ?DispatchThink@@YAXPAUedict_s@@@Z 1002f820 f   cbase.obj
 0001:0002e880       ?DispatchBlocked@@YAXPAUedict_s@@0@Z 1002f880 f   cbase.obj
 0001:0002e8b0       ??1CSave@@QAE@XZ           1002f8b0 f i cbase.obj
 0001:0002e8c0       ?FindGlobalEntity@@YAPAVCBaseEntity@@HH@Z 1002f8c0 f   cbase.obj
 0001:0002e970       ??0entvars_s@@QAE@XZ       1002f970 f i cbase.obj
 0001:0002e980       ??1CRestore@@QAE@XZ        1002f980 f i cbase.obj
 0001:0002e990       ?SaveWriteFields@@YAXPAUsaverestore_s@@PBDPAXPAUTYPEDESCRIPTION@@H@Z 1002f990 f   cbase.obj
 0001:0002ea00       ?SaveReadFields@@YAXPAUsaverestore_s@@PBDPAXPAUTYPEDESCRIPTION@@H@Z 1002fa00 f   cbase.obj
 0001:0002ea80       ?Get@EHANDLE@@QAEPAUedict_s@@XZ 1002fa80 f   cbase.obj
 0001:0002eaa0       ?Set@EHANDLE@@QAEPAUedict_s@@PAU2@@Z 1002faa0 f   cbase.obj
 0001:0002eac0       ??BEHANDLE@@QAEPAVCBaseEntity@@XZ 1002fac0 f   cbase.obj
 0001:0002ead0       ??4EHANDLE@@QAEPAVCBaseEntity@@PAV1@@Z 1002fad0 f   cbase.obj
 0001:0002eb10       ??BEHANDLE@@QAEHXZ         1002fb10 f   cbase.obj
 0001:0002eb20       ??CEHANDLE@@QAEPAVCBaseEntity@@XZ 1002fb20 f   cbase.obj
 0001:0002eb30       ??0CBaseEntity@@QAE@XZ     1002fb30 f   cbase.obj
 0001:0002eb60       ?usesSoundSentenceSave@CBaseEntity@@UAEHXZ 1002fb60 f   cbase.obj
 0001:0002eb70       ?isOrganic@CBaseEntity@@UAEHXZ 1002fb70 f   cbase.obj
 0001:0002eb80       ?onForceDelete@CBaseEntity@@UAEXXZ 1002fb80 f   cbase.obj
 0001:0002eb90       ?getClassname@CBaseEntity@@QAEPBDXZ 1002fb90 f   cbase.obj
 0001:0002ebb0       ?getClassnameShort@CBaseEntity@@QAEPBDXZ 1002fbb0 f   cbase.obj
 0001:0002ec40       ?Spawn@CBaseEntity@@UAEXXZ 1002fc40 f   cbase.obj
 0001:0002ec50       ?DefaultSpawnNotice@CBaseEntity@@UAEXXZ 1002fc50 f   cbase.obj
 0001:0002ec70       ?ForceSpawnFlag@CBaseEntity@@UAEXH@Z 1002fc70 f   cbase.obj
 0001:0002eca0       ?SetEternalThink@CBaseEntity@@QAEXXZ 1002fca0 f   cbase.obj
 0001:0002ecf0       ?SetNextThink@CBaseEntity@@UAEXMH@Z 1002fcf0 f   cbase.obj
 0001:0002ed90       ?AbsoluteNextThink@CBaseEntity@@UAEXMH@Z 1002fd90 f   cbase.obj
 0001:0002ede0       ?GetNextTarget@CBaseEntity@@UAEPAV1@XZ 1002fde0 f   cbase.obj
 0001:0002ee30       ?playAmmoPickupSound@CBaseEntity@@UAEXXZ 1002fe30 f   cbase.obj
 0001:0002ee40       ?playAmmoPickupSound@CBaseEntity@@UAEXPAUentvars_s@@@Z 1002fe40 f   cbase.obj
 0001:0002ef40       ?playGunPickupSound@CBaseEntity@@UAEXXZ 1002ff40 f   cbase.obj
 0001:0002ef50       ?playGunPickupSound@CBaseEntity@@UAEXPAUentvars_s@@@Z 1002ff50 f   cbase.obj
 0001:0002f040       ?precacheAmmoPickupSound@CBaseEntity@@UAEXXZ 10030040 f   cbase.obj
 0001:0002f090       ?precacheGunPickupSound@CBaseEntity@@UAEXXZ 10030090 f   cbase.obj
 0001:0002f0d0       ?Save@CBaseEntity@@UAEHAAVCSave@@@Z 100300d0 f   cbase.obj
 0001:0002f110       ?Restore@CBaseEntity@@UAEHAAVCRestore@@@Z 10030110 f   cbase.obj
 0001:0002f200       ?PostRestore@CBaseEntity@@QAEXXZ 10030200 f   cbase.obj
 0001:0002f210       ?IsWorld@CBaseEntity@@UAEHXZ 10030210 f   cbase.obj
 0001:0002f220       ?IsWorldAffiliated@CBaseEntity@@UAEHXZ 10030220 f   cbase.obj
 0001:0002f230       ?IsBreakable@CBaseEntity@@UAEHXZ 10030230 f   cbase.obj
 0001:0002f4f0       ?getIsBarnacleVictimException@CBaseEntity@@UAEHXZ 100304f0 f   cbase.obj
 0001:0002f500       ?isBreakableOrchild@CBaseEntity@@UAEHXZ 10030500 f   cbase.obj
 0001:0002f510       ?isDestructibleInanimate@CBaseEntity@@UAEHXZ 10030510 f   cbase.obj
 0001:0002f520       ?isTalkMonster@CBaseEntity@@UAEHXZ 10030520 f   cbase.obj
 0001:0002f530       ?isProvokable@CBaseEntity@@UAEHXZ 10030530 f   cbase.obj
 0001:0002f540       ?isProvoked@CBaseEntity@@UAEHXZ 10030540 f   cbase.obj
 0001:0002f550       ?SetObjectCollisionBox@CBaseEntity@@UAEXXZ 10030550 f   cbase.obj
 0001:0002f560       ?setModel@CBaseEntity@@UAEXPBD@Z 10030560 f   cbase.obj
 0001:0002f580       ?isForceHated@CBaseEntity@@UAEHPAV1@@Z 10030580 f   cbase.obj
 0001:0002f5a0       ?forcedRelationshipWith@CBaseEntity@@UAEHPAV1@@Z 100305a0 f   cbase.obj
 0001:0002f5b0       ?getHeardBaitSoundSchedule@CBaseEntity@@UAE?AW4SCHEDULE_TYPE@@PAVCSound@@@Z 100305b0 f   cbase.obj
 0001:0002f5c0       ?_getHeardBaitSoundSchedule@CBaseEntity@@UAE?AW4SCHEDULE_TYPE@@PAVCSound@@@Z 100305c0 f   cbase.obj
 0001:0002f5d0       ?getHeardBaitSoundSchedule@CBaseEntity@@UAE?AW4SCHEDULE_TYPE@@XZ 100305d0 f   cbase.obj
 0001:0002f5e0       ?Intersects@CBaseEntity@@QAEHPAV1@@Z 100305e0 f   cbase.obj
 0001:0002f680       ?MakeDormant@CBaseEntity@@QAEXXZ 10030680 f   cbase.obj
 0001:0002f6d0       ?IsDormant@CBaseEntity@@QAEHXZ 100306d0 f   cbase.obj
 0001:0002f6e0       ?IsInWorld@CBaseEntity@@UAEHXZ 100306e0 f   cbase.obj
 0001:0002f7a0       ?ShouldToggle@CBaseEntity@@QAEHW4USE_TYPE@@H@Z 100307a0 f   cbase.obj
 0001:0002f7d0       ?DamageDecal@CBaseEntity@@UAEHHH@Z 100307d0 f   cbase.obj
 0001:0002f800       ?CreateManual@CBaseEntity@@SAPAV1@PBDABVVector@@1PAUedict_s@@@Z 10030800 f   cbase.obj
 0001:0002f890       ?ReportGeneric@CBaseEntity@@UAEXXZ 10030890 f   cbase.obj
 0001:0002f9d0       ?GetAbsVelocity@CBaseEntity@@QAE?AVVector@@XZ 100309d0 f   cbase.obj
 0001:0002f9f0       ?GetAbsOrigin@CBaseEntity@@QAE?AVVector@@XZ 100309f0 f   cbase.obj
 0001:0002fa10       ?SetAbsOrigin@CBaseEntity@@QAEXABVVector@@@Z 10030a10 f   cbase.obj
 0001:0002fa30       ?GetAbsAngles@CBaseEntity@@QAE?AVVector@@XZ 10030a30 f   cbase.obj
 0001:0002fa50       ?SetAbsAngles@CBaseEntity@@QAEXABVVector@@@Z 10030a50 f   cbase.obj
 0001:0002fa70       ?DispatchSpawn@@YAHPAUedict_s@@@Z 10030a70 f   cbase.obj
 0001:0002fbb0       ?DispatchSave@@YAXPAUedict_s@@PAUsaverestore_s@@@Z 10030bb0 f   cbase.obj
 0001:0002fcc0       ?DispatchRestore@@YAHPAUedict_s@@PAUsaverestore_s@@H@Z 10030cc0 f   cbase.obj
 0001:00030070       ?DispatchObjectCollsionBox@@YAXPAUedict_s@@@Z 10031070 f   cbase.obj
 0001:000300a0       ?setModel@CBaseEntity@@UAEXXZ 100310a0 f   cbase.obj
 0001:000300b0       ?DamageDecal@CBaseEntity@@UAEHH@Z 100310b0 f   cbase.obj
 0001:000300d0       ?Create@CBaseEntity@@SAPAV1@PBDABVVector@@1HPAUedict_s@@@Z 100310d0 f   cbase.obj
 0001:00030120       ?Create@CBaseEntity@@SAPAV1@PBDABVVector@@1PAUedict_s@@@Z 10031120 f   cbase.obj
 0001:00030160       ?ScheduleFromName@CChumToad@@UAEPAUSchedule_t@@PBD@Z 10031160 f   chumtoad.obj
 0001:00030190       ??0CChumToad@@QAE@XZ       10031190 f   chumtoad.obj
 0001:00030210       ?CheckRangeAttack1@CChumToad@@UAEHMM@Z 10031210 f i chumtoad.obj
 0001:00030220       ?CheckRangeAttack2@CChumToad@@UAEHMM@Z 10031220 f i chumtoad.obj
 0001:00030230       ?CheckMeleeAttack1@CChumToad@@UAEHMM@Z 10031230 f i chumtoad.obj
 0001:00030240       ?CheckMeleeAttack2@CChumToad@@UAEHMM@Z 10031240 f i chumtoad.obj
 0001:00030250       ?Save@CChumToad@@UAEHAAVCSave@@@Z 10031250 f   chumtoad.obj
 0001:00030290       ?Restore@CChumToad@@UAEHAAVCRestore@@@Z 10031290 f   chumtoad.obj
 0001:000302d0       ?SetYawSpeed@CChumToad@@UAEXXZ 100312d0 f   chumtoad.obj
 0001:000302e0       ?forceIdleFrameReset@CChumToad@@UAEHXZ 100312e0 f   chumtoad.obj
 0001:000302f0       ?usesAdvancedAnimSystem@CChumToad@@UAEHXZ 100312f0 f   chumtoad.obj
 0001:00030300       ?getMonsterBlockIdleAutoUpdate@CChumToad@@UAEHXZ 10031300 f   chumtoad.obj
 0001:00030320       ?Precache@CChumToad@@UAEXXZ 10031320 f   chumtoad.obj
 0001:00030370       ?setModel@CChumToad@@UAEXPBD@Z 10031370 f   chumtoad.obj
 0001:000303e0       ?SetActivity@CChumToad@@UAEXW4Activity@@@Z 100313e0 f   chumtoad.obj
 0001:000303f0       ?DeathSound@CChumToad@@UAEXXZ 100313f0 f   chumtoad.obj
 0001:00030450       ?PainSound@CChumToad@@UAEXXZ 10031450 f   chumtoad.obj
 0001:000304c0       ?AlertSound@CChumToad@@UAEXXZ 100314c0 f   chumtoad.obj
 0001:00030520       ?canListenHandle_ChumToad_Bait@@YAHPAVCBaseEntity@@@Z 10031520 f   chumtoad.obj
 0001:00030570       ?IdleSound@CChumToad@@UAEXXZ 10031570 f   chumtoad.obj
 0001:00030670       ?GetSchedule@CChumToad@@UAEPAUSchedule_t@@XZ 10031670 f   chumtoad.obj
 0001:00030a00       ?GetScheduleOfType@CChumToad@@UAEPAUSchedule_t@@H@Z 10031a00 f   chumtoad.obj
 0001:00030b30       ?HandleEventQueueEvent@CChumToad@@UAEXH@Z 10031b30 f   chumtoad.obj
 0001:00030b40       ?setAnimationSmart@CChumToad@@UAEXPBD@Z 10031b40 f   chumtoad.obj
 0001:00030b60       ?setAnimationSmart@CChumToad@@UAEXPBDM@Z 10031b60 f   chumtoad.obj
 0001:00030b90       ?setAnimationSmart@CChumToad@@UAEXHM@Z 10031b90 f   chumtoad.obj
 0001:00030bc0       ?setAnimationSmartAndStop@CChumToad@@UAEXPBD@Z 10031bc0 f   chumtoad.obj
 0001:00030be0       ?setAnimationSmartAndStop@CChumToad@@UAEXPBDM@Z 10031be0 f   chumtoad.obj
 0001:00030c10       ?setAnimationSmartAndStop@CChumToad@@UAEXHM@Z 10031c10 f   chumtoad.obj
 0001:00030c40       ?TraceAttack@CChumToad@@UAEXPAUentvars_s@@MVVector@@PAUTraceResult@@HHHPAH@Z 10031c40 f   chumtoad.obj
 0001:00030c90       ?TakeDamage@CChumToad@@UAEHPAUentvars_s@@0MHH@Z 10031c90 f   chumtoad.obj
 0001:00030e40       ?MonsterThink@CChumToad@@UAEXXZ 10031e40 f   chumtoad.obj
 0001:00030f50       ?Land@CChumToad@@QAEXXZ    10031f50 f   chumtoad.obj
 0001:00031030       ?forwardHop@CChumToad@@QAEXXZ 10032030 f   chumtoad.obj
 0001:00031090       ?aimlessHop@CChumToad@@QAEXXZ 10032090 f   chumtoad.obj
 0001:00031110       ?randomDelay@CChumToad@@QAEXXZ 10032110 f   chumtoad.obj
 0001:000311c0       ?ReportAIState@CChumToad@@UAEXXZ 100321c0 f   chumtoad.obj
 0001:00031230       ?isForceHated@CChumToad@@UAEHPAVCBaseEntity@@@Z 10032230 f   chumtoad.obj
 0001:00031250       ?forcedRelationshipWith@CChumToad@@UAEHPAVCBaseEntity@@@Z 10032250 f   chumtoad.obj
 0001:00031390       ?IRelationship@CChumToad@@UAEHPAVCBaseEntity@@@Z 10032390 f   chumtoad.obj
 0001:000314e0       ?Classify@CChumToad@@UAEHXZ 100324e0 f   chumtoad.obj
 0001:000314f0       ?playDeadFooling@CChumToad@@QAEHPAVCBaseEntity@@@Z 100324f0 f   chumtoad.obj
 0001:000315b0       ?LookupActivityHard@CChumToad@@UAEHH@Z 100325b0 f   chumtoad.obj
 0001:000316e0       ?tryActivitySubstitute@CChumToad@@UAEHH@Z 100326e0 f   chumtoad.obj
 0001:00031730       ?DeadTakeDamage@CChumToad@@UAEHPAUentvars_s@@0MHH@Z 10032730 f   chumtoad.obj
 0001:00031760       ?GibMonster@CChumToad@@UAEXH@Z 10032760 f   chumtoad.obj
 0001:00031770       ?GibMonsterGib@CChumToad@@UAEHH@Z 10032770 f   chumtoad.obj
 0001:000317c0       ?Killed@CChumToad@@UAEXPAUentvars_s@@0H@Z 100327c0 f   chumtoad.obj
 0001:000317e0       ?onPlayDead@CChumToad@@QAEXXZ 100327e0 f   chumtoad.obj
 0001:000317f0       ?playDeadSendMonstersAway@CChumToad@@QAEXXZ 100327f0 f   chumtoad.obj
 0001:00031940       ?onDeathAnimationEnd@CChumToad@@UAEXXZ 10032940 f   chumtoad.obj
 0001:00031950       ??$GetClassPtr@VCChumToad@@@@YAPAVCChumToad@@PAV0@@Z 10032950 f i chumtoad.obj
 0001:000319f0       ?setModel@CChumToad@@UAEXXZ 100329f0 f   chumtoad.obj
 0001:00031a00       ?Spawn@CChumToad@@UAEXXZ   10032a00 f   chumtoad.obj
 0001:00031c50       _monster_chumtoad          10032c50 f   chumtoad.obj
 0001:00031c60       _chumtoad                  10032c60 f   chumtoad.obj
 0001:00031c70       ?TraceAttack@CChumToad@@UAEXPAUentvars_s@@MVVector@@PAUTraceResult@@H@Z 10032c70 f   chumtoad.obj
 0001:00031cb0       ?TraceAttack@CChumToad@@UAEXPAUentvars_s@@MVVector@@PAUTraceResult@@HH@Z 10032cb0 f   chumtoad.obj
 0001:00031cf0       ?TraceAttack@CChumToad@@UAEXPAUentvars_s@@MVVector@@PAUTraceResult@@HHH@Z 10032cf0 f   chumtoad.obj
 0001:00031d30       ?TakeDamage@CChumToad@@UAEHPAUentvars_s@@0MH@Z 10032d30 f   chumtoad.obj
 0001:00031d60       ?RunTask@CChumToad@@UAEXPAUTask_t@@@Z 10032d60 f   chumtoad.obj
 0001:00032200       ?firstLand@CChumToad@@QAEXXZ 10033200 f   chumtoad.obj
 0001:00032210       ?IsAlive_FromAI@CChumToad@@UAEHPAVCBaseMonster@@@Z 10033210 f   chumtoad.obj
 0001:000322c0       ?getForceAllowNewEnemy@CChumToad@@UAEHPAVCBaseEntity@@@Z 100332c0 f   chumtoad.obj
 0001:000322e0       ?DeadTakeDamage@CChumToad@@UAEHPAUentvars_s@@0MH@Z 100332e0 f   chumtoad.obj
 0001:00032310       ?GibMonster@CChumToad@@UAEXXZ 10033310 f   chumtoad.obj
 0001:00032320       ?Killed@CChumToad@@UAEXPAUentvars_s@@H@Z 10033320 f   chumtoad.obj
 0001:00032340       ?StartTask@CChumToad@@UAEXPAUTask_t@@@Z 10033340 f   chumtoad.obj
 0001:00032920       ??0CChumToadWeapon@@QAE@XZ 10033920 f   chumtoadweapon.obj
 0001:00032950       ?weaponCanHaveExtraCheck@CBasePlayerItem@@UAEHPAVCBasePlayer@@@Z 10033950 f i chumtoadweapon.obj
 0001:00032960       ?weaponPlayPickupSoundException@CBasePlayerItem@@UAEHPAVCBasePlayer@@@Z 10033960 f i chumtoadweapon.obj
 0001:00032970       ?CanHolster@CBasePlayerItem@@UAEHXZ 10033970 f i chumtoadweapon.obj
 0001:00032980       ?ItemPreFrameThink@CBasePlayerItem@@UAEXXZ 10033980 f i chumtoadweapon.obj
 0001:00032990       ?ItemPostFrameThink@CBasePlayerItem@@UAEXXZ 10033990 f i chumtoadweapon.obj
 0001:000329a0       ?isBasePlayerWeapon@CBasePlayerWeapon@@UAEHXZ 100339a0 f i chumtoadweapon.obj
 0001:000329b0       ?AddWeapon@CBasePlayerWeapon@@UAEHXZ 100339b0 f i chumtoadweapon.obj
 0001:000329d0       ?UpdateItemInfo@CBasePlayerWeapon@@UAEXXZ 100339d0 f i chumtoadweapon.obj
 0001:000329e0       ?Reload@CBasePlayerWeapon@@UAEXXZ 100339e0 f i chumtoadweapon.obj
 0001:000329f0       ?ShouldWeaponIdle@CBasePlayerWeapon@@UAEHXZ 100339f0 f i chumtoadweapon.obj
 0001:00032a00       ?PrimaryNotHeld@CBasePlayerWeapon@@UAEXXZ 10033a00 f i chumtoadweapon.obj
 0001:00032a10       ?SecondaryNotHeld@CBasePlayerWeapon@@UAEXXZ 10033a10 f i chumtoadweapon.obj
 0001:00032a20       ?NeitherHeld@CBasePlayerWeapon@@UAEXXZ 10033a20 f i chumtoadweapon.obj
 0001:00032a30       ?BothHeld@CBasePlayerWeapon@@UAEXXZ 10033a30 f i chumtoadweapon.obj
 0001:00032a40       ?GetWeaponPtr@CBasePlayerWeapon@@UAEPAVCBasePlayerItem@@XZ 10033a40 f i chumtoadweapon.obj
 0001:00032a50       ?iItemSlot@CChumToadWeapon@@UAEHXZ 10033a50 f i chumtoadweapon.obj
 0001:00032a60       ?UseDecrement@CChumToadWeapon@@UAEHXZ 10033a60 f i chumtoadweapon.obj
 0001:00032a70       ?usesSoundSentenceSave@CChumToadWeapon@@UAEHXZ 10033a70 f   chumtoadweapon.obj
 0001:00032a80       ?customAttachToPlayer@CChumToadWeapon@@UAEXPAVCBasePlayer@@@Z 10033a80 f   chumtoadweapon.obj
 0001:00032a90       ?GetPickupWalkerName@CChumToadWeapon@@UAEPBDXZ 10033a90 f   chumtoadweapon.obj
 0001:00032aa0       ?Spawn@CChumToadWeapon@@UAEXXZ 10033aa0 f   chumtoadweapon.obj
 0001:00032b60       ?ItemRotate@CChumToadWeapon@@QAEXXZ 10033b60 f   chumtoadweapon.obj
 0001:00032bf0       ?Precache@CChumToadWeapon@@UAEXXZ 10033bf0 f   chumtoadweapon.obj
 0001:00032c80       ?setModel@CChumToadWeapon@@UAEXPBD@Z 10033c80 f   chumtoadweapon.obj
 0001:00032c90       ?GetItemInfo@CChumToadWeapon@@UAEHPAUItemInfo@@@Z 10033c90 f   chumtoadweapon.obj
 0001:00032d00       ?Deploy@CChumToadWeapon@@UAEHXZ 10033d00 f   chumtoadweapon.obj
 0001:00032dd0       ?Holster@CChumToadWeapon@@UAEXH@Z 10033dd0 f   chumtoadweapon.obj
 0001:00032ec0       ?ThrowChumtoad@CChumToadWeapon@@QAEXVVector@@@Z 10033ec0 f   chumtoadweapon.obj
 0001:00033020       ?SecondaryAttack@CChumToadWeapon@@UAEXXZ 10034020 f   chumtoadweapon.obj
 0001:00033030       ?randomIdleAnimationDelay@CChumToadWeapon@@UAEMXZ 10034030 f   chumtoadweapon.obj
 0001:00033040       ?WeaponIdle@CChumToadWeapon@@UAEXXZ 10034040 f   chumtoadweapon.obj
 0001:00033200       ??$GetClassPtr@VCChumToadWeapon@@@@YAPAVCChumToadWeapon@@PAV0@@Z 10034200 f i chumtoadweapon.obj
 0001:000332a0       _weapon_chumtoad           100342a0 f   chumtoadweapon.obj
 0001:000332b0       ?FallThinkCustom@CChumToadWeapon@@QAEXXZ 100342b0 f   chumtoadweapon.obj
 0001:00033370       ?setModel@CChumToadWeapon@@UAEXXZ 10034370 f   chumtoadweapon.obj
 0001:00033380       ?checkThrowValid@CChumToadWeapon@@QAEHVVector@@PAM@Z 10034380 f   chumtoadweapon.obj
 0001:00033fe0       ?PrimaryAttack@CChumToadWeapon@@UAEXXZ 10034fe0 f   chumtoadweapon.obj
 0001:000341b0       ?ItemPostFrame@CChumToadWeapon@@UAEXXZ 100351b0 f   chumtoadweapon.obj
 0001:00034390       ?FallInit@CChumToadWeapon@@UAEXXZ 10035390 f   chumtoadweapon.obj
 0001:00034420       ?MySquadLeader@CSquadMonster@@QAEPAV1@XZ 10035420 f i client.obj
 0001:00034440       ?MySquadMember@CSquadMonster@@QAEPAV1@H@Z 10035440 f i client.obj
 0001:00034460       ?Link@CGraph@@QAEAAVCLink@@H@Z 10035460 f i client.obj
 0001:00034480       ?NodeLink@CGraph@@QAEAAVCLink@@HH@Z 10035480 f i client.obj
 0001:000344a0       ?debugNodeMode@@YAXXZ      100354a0 f   client.obj
 0001:00034520       ?debugNodeModeWeak@@YAXXZ  10035520 f   client.obj
 0001:00034590       ?debugNodeModeOff@@YAXXZ   10035590 f   client.obj
 0001:00034680       ?attemptParseStringToInt@@YAHPAHPBD11@Z 10035680 f   client.obj
 0001:00034720       ?getPathTrackWithID@@YAPAVCPathTrack@@H@Z 10035720 f   client.obj
 0001:00034770       ?getTrackChangeWithID@@YAPAVCFuncTrackChange@@H@Z 10035770 f   client.obj
 0001:000347c0       ?getMonsterWithID@@YAPAVCBaseMonster@@H@Z 100357c0 f   client.obj
 0001:00034860       ?interpretAsCoords@@YAXPAVCBaseEntity@@PBD@Z 10035860 f   client.obj
 0001:000348b0       ?interpretAsHealth@@YAXPAVCBaseEntity@@PBD1@Z 100358b0 f   client.obj
 0001:00034a20       ?resetPlayerRPGRockets@@YAXPAVCBasePlayer@@@Z 10035a20 f   client.obj
 0001:00034a80       ?resetModCVars@@YAXPAVCBasePlayer@@H@Z 10035a80 f   client.obj
 0001:00034cc0       ?partyStart@@YAXPAVCBasePlayer@@@Z 10035cc0 f   client.obj
 0001:00034e00       ?partyOff@@YAXPAVCBasePlayer@@@Z 10035e00 f   client.obj
 0001:00035040       ?set_suicide_frame@@YAXPAUentvars_s@@@Z 10036040 f   client.obj
 0001:000350c0       ?ClientConnect@@YAHPAUedict_s@@PBD1QAD@Z 100360c0 f   client.obj
 0001:000350f0       ?ClientDisconnect@@YAXPAUedict_s@@@Z 100360f0 f   client.obj
 0001:000351d0       ?ClientKill@@YAXPAUedict_s@@@Z 100361d0 f   client.obj
 0001:00035240       ?stringRemoveConstProperty@@YAPADPBD@Z 10036240 f   client.obj
 0001:000352a0       ?ServerDeactivate@@YAXXZ   100362a0 f   client.obj
 0001:000352c0       ?testcommand@@YAXXZ        100362c0 f   client.obj
 0001:000352d0       ?ServerActivate@@YAXPAUedict_s@@HH@Z 100362d0 f   client.obj
 0001:00035380       ?PlayerPreThink@@YAXPAUedict_s@@@Z 10036380 f   client.obj
 0001:000353f0       ?PlayerPostThink@@YAXPAUedict_s@@@Z 100363f0 f   client.obj
 0001:000354d0       ?ParmsNewLevel@@YAXXZ      100364d0 f   client.obj
 0001:000354e0       ?ParmsChangeLevel@@YAXXZ   100364e0 f   client.obj
 0001:00035510       ?StartFrame@@YAXXZ         10036510 f   client.obj
 0001:00035590       ?GetGameDescription@@YAPBDXZ 10036590 f   client.obj
 0001:000355b0       ?Sys_Error@@YAXPBD@Z       100365b0 f   client.obj
 0001:000355c0       ?PlayerCustomization@@YAXPAUedict_s@@PAUcustomization_s@@@Z 100365c0 f   client.obj
 0001:00035630       ?SpectatorConnect@@YAXPAUedict_s@@@Z 10036630 f   client.obj
 0001:00035650       ?SpectatorDisconnect@@YAXPAUedict_s@@@Z 10036650 f   client.obj
 0001:00035670       ?SpectatorThink@@YAXPAUedict_s@@@Z 10036670 f   client.obj
 0001:00035690       ?SetupVisibility@@YAXPAUedict_s@@0PAPAE1@Z 10036690 f   client.obj
 0001:00035770       ?AddToFullPack@@YAHPAUentity_state_s@@HPAUedict_s@@1HHPAE@Z 10036770 f   client.obj
 0001:00035c10       ?CreateBaseline@@YAXHHPAUentity_state_s@@PAUedict_s@@HVVector@@2@Z 10036c10 f   client.obj
 0001:00035e10       ?Entity_FieldInit@@YAXPAUdelta_s@@@Z 10036e10 f   client.obj
 0001:00035e90       ?Entity_Encode@@YAXPAUdelta_s@@PBE1@Z 10036e90 f   client.obj
 0001:00035ff0       ?Player_FieldInit@@YAXPAUdelta_s@@@Z 10036ff0 f   client.obj
 0001:00036030       ?Player_Encode@@YAXPAUdelta_s@@PBE1@Z 10037030 f   client.obj
 0001:00036120       ?Custom_Entity_FieldInit@@YAXPAUdelta_s@@@Z 10037120 f   client.obj
 0001:000361d0       ?Custom_Encode@@YAXPAUdelta_s@@PBE1@Z 100371d0 f   client.obj
 0001:000362c0       ?RegisterEncoders@@YAXXZ   100372c0 f   client.obj
 0001:00036300       ?GetWeaponData@@YAHPAUedict_s@@PAUweapon_data_s@@@Z 10037300 f   client.obj
 0001:000364b0       ?UpdateClientData@@YAXPBUedict_s@@HPAUclientdata_s@@@Z 100374b0 f   client.obj
 0001:00036770       ?CmdStart@@YAXPBUedict_s@@PBUusercmd_s@@I@Z 10037770 f   client.obj
 0001:000367c0       ?CmdEnd@@YAXPBUedict_s@@@Z 100377c0 f   client.obj
 0001:00036800       ?ConnectionlessPacket@@YAHPBUnetadr_s@@PBDPADPAH@Z 10037800 f   client.obj
 0001:00036810       ?GetHullBounds@@YAHHPAM0@Z 10037810 f   client.obj
 0001:00036830       ??0entity_state_s@@QAE@XZ  10037830 f i client.obj
 0001:00036840       ?InconsistentFile@@YAHPBUedict_s@@PBDPAD@Z 10037840 f   client.obj
 0001:00036880       ?AllowLagCompensation@@YAHXZ 10037880 f   client.obj
 0001:00036890       ??$GetClassPtr@VCBasePlayer@@@@YAPAVCBasePlayer@@PAV0@@Z 10037890 f i client.obj
 0001:00036930       ?respawn@@YAXPAUentvars_s@@H@Z 10037930 f   client.obj
 0001:00036990       ?ClientPutInServer@@YAXPAUedict_s@@@Z 10037990 f   client.obj
 0001:000369d0       ?Host_Say@@YAXPAUedict_s@@H@Z 100379d0 f   client.obj
 0001:00036de0       ?ClientCommand@@YAXPAUedict_s@@@Z 10037de0 f   client.obj
 0001:00057e40       ?ClientUserInfoChanged@@YAXPAUedict_s@@PAD@Z 10058e40 f   client.obj
 0001:00058050       ?CreateInstancedBaselines@@YAXXZ 10059050 f   client.obj
 0001:00058060       ?LinkUserMessages@@YAXXZ   10059060 f   client_message.obj
 0001:000584f0       ?submitJukeboxRequest@@YAXPAUedict_s@@PBD@Z 100594f0 f   client_message.obj
 0001:00058520       ?submitJukeboxOff@@YAXPAUedict_s@@@Z 10059520 f   client_message.obj
 0001:00058550       ?submitUnpauseRequest@@YAXPAUedict_s@@@Z 10059550 f   client_message.obj
 0001:00058580       ?sendTimeWeaponIdleUpdate@@YAXPAUedict_s@@M@Z 10059580 f   client_message.obj
 0001:000585c0       ?sendJustThrown@@YAXPAUedict_s@@H@Z 100595c0 f   client_message.obj
 0001:000585f0       ?message_ymg@@YAXPAUedict_s@@@Z 100595f0 f   client_message.obj
 0001:00058620       ?message_ymg_stop@@YAXPAUedict_s@@@Z 10059620 f   client_message.obj
 0001:00058650       ?submitJukeboxRequest@@YAXPAUentvars_s@@PBD@Z 10059650 f   client_message.obj
 0001:00058670       ?submitJukeboxOff@@YAXPAUentvars_s@@@Z 10059670 f   client_message.obj
 0001:00058690       ?submitUnpauseRequest@@YAXPAUentvars_s@@@Z 10059690 f   client_message.obj
 0001:000586b0       ?EstablishGutLoverGib@@YAXPAVCGib@@PAUentvars_s@@VVector@@1H@Z 100596b0 f   combat.obj
 0001:00058a10       ?LimitVelocity@CGib@@QAEXXZ 10059a10 f   combat.obj
 0001:00058aa0       ?TraceAttack@CGib@@UAEXPAUentvars_s@@MVVector@@PAUTraceResult@@H@Z 10059aa0 f   combat.obj
 0001:00058ab0       ?TraceAttack@CGib@@UAEXPAUentvars_s@@MVVector@@PAUTraceResult@@HH@Z 10059ab0 f   combat.obj
 0001:00058ac0       ?TraceAttack@CGib@@UAEXPAUentvars_s@@MVVector@@PAUTraceResult@@HHH@Z 10059ac0 f   combat.obj
 0001:00058ad0       ?TraceAttack@CGib@@UAEXPAUentvars_s@@MVVector@@PAUTraceResult@@HHHPAH@Z 10059ad0 f   combat.obj
 0001:00058ae0       ?TakeDamage@CGib@@UAEHPAUentvars_s@@0MH@Z 10059ae0 f   combat.obj
 0001:00058af0       ?TakeDamage@CGib@@UAEHPAUentvars_s@@0MHH@Z 10059af0 f   combat.obj
 0001:00058b00       ?HasHumanGibs@CBaseMonster@@UAEHXZ 10059b00 f   combat.obj
 0001:00058b30       ?HasAlienGibs@CBaseMonster@@UAEHXZ 10059b30 f   combat.obj
 0001:00058b70       ?DetermineGibHeadBlock@CBaseMonster@@UAEHXZ 10059b70 f   combat.obj
 0001:00058b80       ?cleanDelete@CBaseMonster@@QAEXXZ 10059b80 f   combat.obj
 0001:00058bd0       ?GibMonster@CBaseMonster@@UAEXH@Z 10059bd0 f   combat.obj
 0001:00058c10       ?GibMonsterSound@CBaseMonster@@UAEXH@Z 10059c10 f   combat.obj
 0001:00058c50       ?GibMonsterEnd@CBaseMonster@@UAEXH@Z 10059c50 f   combat.obj
 0001:00058d20       ?GetDeathActivity@CBaseMonster@@UAE?AW4Activity@@XZ 10059d20 f   combat.obj
 0001:00058f60       ?GetSmallFlinchActivity@CBaseMonster@@QAE?AW4Activity@@XZ 10059f60 f   combat.obj
 0001:00058ff0       ?BecomeDead@CBaseMonster@@UAEXXZ 10059ff0 f   combat.obj
 0001:00059030       ?ShouldGibMonster@CBaseMonster@@QAEHH@Z 1005a030 f   combat.obj
 0001:00059080       ?Killed@CBaseMonster@@UAEXPAUentvars_s@@0H@Z 1005a080 f   combat.obj
 0001:00059200       ?SUB_FadeOut@CBaseEntity@@QAEXXZ 1005a200 f   combat.obj
 0001:00059290       ?BounceGibTouch@CGib@@QAEXPAVCBaseEntity@@@Z 1005a290 f   combat.obj
 0001:00059430       ?StickyGibTouch@CGib@@QAEXPAVCBaseEntity@@@Z 1005a430 f   combat.obj
 0001:000595e0       ?CheckTraceHullAttack@CBaseMonster@@QAEPAVCBaseEntity@@VVector@@MHHH@Z 1005a5e0 f   combat.obj
 0001:000599e0       ?FInViewCone@CBaseMonster@@UAEHPAVCBaseEntity@@@Z 1005a9e0 f   combat.obj
 0001:00059a90       ?FInViewCone@CBaseMonster@@UAEHPAVVector@@@Z 1005aa90 f   combat.obj
 0001:00059b40       ?FVisible@CBaseEntity@@UAEHPAV1@@Z 1005ab40 f   combat.obj
 0001:00059c20       ?FVisible@CBaseEntity@@UAEHABVVector@@@Z 1005ac20 f   combat.obj
 0001:00059c90       ?TraceAttack@CBaseEntity@@UAEXPAUentvars_s@@MVVector@@PAUTraceResult@@HHHPAH@Z 1005ac90 f   combat.obj
 0001:00059d30       ?TakeDamage@CBaseEntity@@UAEHPAUentvars_s@@0MHH@Z 1005ad30 f   combat.obj
 0001:0005a0d0       ?TakeHealth@CBaseEntity@@UAEHMH@Z 1005b0d0 f   combat.obj
 0001:0005a150       ?Killed@CBaseEntity@@UAEXPAUentvars_s@@0H@Z 1005b150 f   combat.obj
 0001:0005a180       ?DrawAlphaBlood@CBaseEntity@@UAEXMABVVector@@H@Z 1005b180 f   combat.obj
 0001:0005a1c0       ?DrawAlphaBloodSlash@CBaseEntity@@UAEXMABVVector@@0@Z 1005b1c0 f   combat.obj
 0001:0005a1f0       ?DrawAlphaBloodSlash@CBaseEntity@@UAEXMABVVector@@0ABH@Z 1005b1f0 f   combat.obj
 0001:0005a310       ?DrawAlphaBlood@CBaseEntity@@UAEXMPAUTraceResult@@@Z 1005b310 f   combat.obj
 0001:0005a330       ?DrawAlphaBlood@CBaseEntity@@UAEXMABVVector@@@Z 1005b330 f   combat.obj
 0001:0005a450       ?TraceAttack@CBaseMonster@@UAEXPAUentvars_s@@MVVector@@PAUTraceResult@@HHHPAH@Z 1005b450 f   combat.obj
 0001:0005a580       ?TakeHealth@CBaseMonster@@UAEHMH@Z 1005b580 f   combat.obj
 0001:0005a5d0       ?attemptResetTimedDamage@CBaseMonster@@QAEXH@Z 1005b5d0 f   combat.obj
 0001:0005a630       ?DeadTakeDamage@CBaseMonster@@UAEHPAUentvars_s@@0MHH@Z 1005b630 f   combat.obj
 0001:0005a790       ?DamageForce@CBaseMonster@@QAEMM@Z 1005b790 f   combat.obj
 0001:0005a7e0       ?RadiusDamageTest@@YAXVVector@@PAUentvars_s@@1MMHHH@Z 1005b7e0 f   combat.obj
 0001:0005abc0       ?RadiusDamage@@YAXVVector@@PAUentvars_s@@1MMHHH@Z 1005bbc0 f   combat.obj
 0001:0005ae70       ?FireBullets@CBaseEntity@@QAEXKVVector@@00MHHHPAUentvars_s@@@Z 1005be70 f   combat.obj
 0001:0005b5a0       ?FireBulletsPlayer@CBaseEntity@@QAE?AVVector@@KV2@00MHHHPAUentvars_s@@H@Z 1005c5a0 f   combat.obj
 0001:0005bba0       ?TraceBleed@CBaseEntity@@UAEXMVVector@@PAUTraceResult@@H@Z 1005cba0 f   combat.obj
 0001:0005bbe0       ?TraceBleed@CBaseEntity@@UAEXMVVector@@PAUTraceResult@@HH@Z 1005cbe0 f   combat.obj
 0001:0005bda0       ?MakeDamageBloodDecal@CBaseMonster@@QAEXHMPAUTraceResult@@ABVVector@@@Z 1005cda0 f   combat.obj
 0001:0005bef0       ??0CGib@@QAE@XZ            1005cef0 f i combat.obj
 0001:0005bf10       ?ObjectCaps@CGib@@UAEHXZ   1005cf10 f i combat.obj
 0001:0005bf20       ?EstablishGutLoverGib@@YAXPAVCGib@@PAUentvars_s@@1H@Z 1005cf20 f   combat.obj
 0001:0005bf80       ?GibMonster@CBaseMonster@@UAEXXZ 1005cf80 f   combat.obj
 0001:0005bf90       ?Killed@CBaseMonster@@UAEXPAUentvars_s@@H@Z 1005cf90 f   combat.obj
 0001:0005bfb0       ?SUB_StartFadeOut@CBaseEntity@@QAEXXZ 1005cfb0 f   combat.obj
 0001:0005c030       ?WaitTillLand@CGib@@QAEXXZ 1005d030 f   combat.obj
 0001:0005c0f0       ?Spawn@CGib@@QAEXPBDH@Z    1005d0f0 f   combat.obj
 0001:0005c210       ?CheckTraceHullAttack@CBaseMonster@@QAEPAVCBaseEntity@@MHH@Z 1005d210 f   combat.obj
 0001:0005c240       ?CheckTraceHullAttack@CBaseMonster@@QAEPAVCBaseEntity@@MHHH@Z 1005d240 f   combat.obj
 0001:0005c270       ?CheckTraceHullAttack@CBaseMonster@@QAEPAVCBaseEntity@@VVector@@MHH@Z 1005d270 f   combat.obj
 0001:0005c2b0       ?TraceAttack@CBaseEntity@@UAEXPAUentvars_s@@MVVector@@PAUTraceResult@@H@Z 1005d2b0 f   combat.obj
 0001:0005c2f0       ?TraceAttack@CBaseEntity@@UAEXPAUentvars_s@@MVVector@@PAUTraceResult@@HH@Z 1005d2f0 f   combat.obj
 0001:0005c330       ?TraceAttack@CBaseEntity@@UAEXPAUentvars_s@@MVVector@@PAUTraceResult@@HHH@Z 1005d330 f   combat.obj
 0001:0005c370       ?TakeDamage@CBaseEntity@@UAEHPAUentvars_s@@0MH@Z 1005d370 f   combat.obj
 0001:0005c3a0       ?Killed@CBaseEntity@@UAEXPAUentvars_s@@H@Z 1005d3a0 f   combat.obj
 0001:0005c3c0       ?TraceAttack@CBaseMonster@@UAEXPAUentvars_s@@MVVector@@PAUTraceResult@@H@Z 1005d3c0 f   combat.obj
 0001:0005c400       ?TraceAttack@CBaseMonster@@UAEXPAUentvars_s@@MVVector@@PAUTraceResult@@HH@Z 1005d400 f   combat.obj
 0001:0005c440       ?TraceAttack@CBaseMonster@@UAEXPAUentvars_s@@MVVector@@PAUTraceResult@@HHH@Z 1005d440 f   combat.obj
 0001:0005c480       ?TakeDamage@CBaseMonster@@UAEHPAUentvars_s@@0MHH@Z 1005d480 f   combat.obj
 0001:0005ca90       ?DeadTakeDamage@CBaseMonster@@UAEHPAUentvars_s@@0MH@Z 1005da90 f   combat.obj
 0001:0005cac0       ?RadiusDamageAutoRadius@CBaseMonster@@QAEXPAUentvars_s@@0MHH@Z 1005dac0 f   combat.obj
 0001:0005cb20       ?RadiusDamageAutoRadius@CBaseMonster@@QAEXPAUentvars_s@@0MHHH@Z 1005db20 f   combat.obj
 0001:0005cb80       ?RadiusDamageAutoRadius@@YAXVVector@@PAUentvars_s@@1MHH@Z 1005db80 f   combat.obj
 0001:0005cbd0       ?RadiusDamageAutoRadius@@YAXVVector@@PAUentvars_s@@1MHHH@Z 1005dbd0 f   combat.obj
 0001:0005cc30       ?RadiusDamageAutoRadius@CBaseMonster@@QAEXVVector@@PAUentvars_s@@1MHH@Z 1005dc30 f   combat.obj
 0001:0005cc90       ?RadiusDamageAutoRadius@CBaseMonster@@QAEXVVector@@PAUentvars_s@@1MHHH@Z 1005dc90 f   combat.obj
 0001:0005ccf0       ?RadiusDamage@@YAXVVector@@PAUentvars_s@@1MMHH@Z 1005dcf0 f   combat.obj
 0001:0005cd40       ??$GetClassPtr@VCGib@@@@YAPAVCGib@@PAV0@@Z 1005dd40 f i combat.obj
 0001:0005cdf0       ?SpawnStickyGibs@CGib@@SAXPAUentvars_s@@VVector@@HH@Z 1005ddf0 f   combat.obj
 0001:0005d1b0       ?SpawnHeadGib@CGib@@SAXPAUentvars_s@@VVector@@H@Z 1005e1b0 f   combat.obj
 0001:0005d520       ?SpawnRandomGibs@CGib@@SAXPAUentvars_s@@HPBDHHHH@Z 1005e520 f   combat.obj
 0001:0005d8f0       ?FadeMonster@CBaseMonster@@UAEXXZ 1005e8f0 f   combat.obj
 0001:0005d970       ?Spawn@CGib@@QAEXPBD@Z     1005e970 f   combat.obj
 0001:0005d990       ?TakeDamage@CBaseMonster@@UAEHPAUentvars_s@@0MH@Z 1005e990 f   combat.obj
 0001:0005d9c0       ?SpawnStickyGibs@CGib@@SAXPAUentvars_s@@VVector@@H@Z 1005e9c0 f   combat.obj
 0001:0005d9f0       ?SpawnHeadGib@CGib@@SAXPAUentvars_s@@@Z 1005e9f0 f   combat.obj
 0001:0005da40       ?SpawnHeadGib@CGib@@SAXPAUentvars_s@@H@Z 1005ea40 f   combat.obj
 0001:0005da90       ?SpawnHeadGib@CGib@@SAXPAUentvars_s@@VVector@@@Z 1005ea90 f   combat.obj
 0001:0005dac0       ?SpawnRandomGibs@CGib@@SAXPAUentvars_s@@HHH@Z 1005eac0 f   combat.obj
 0001:0005db00       ?SpawnRandomGibs@CGib@@SAXPAUentvars_s@@HHHH@Z 1005eb00 f   combat.obj
 0001:0005db40       ?SpawnRandomGibs@CGib@@SAXPAUentvars_s@@HABUGibInfo_s@@@Z 1005eb40 f   combat.obj
 0001:0005db70       ?SpawnRandomGibs@CGib@@SAXPAUentvars_s@@HABUGibInfo_s@@H@Z 1005eb70 f   combat.obj
 0001:0005dba0       ?SpawnRandomGibs@CGib@@SAXPAUentvars_s@@HABUGibInfo_s@@HH@Z 1005eba0 f   combat.obj
 0001:0005dbd0       ?SpawnRandomGibs@CGib@@SAXPAUentvars_s@@HPBDHH@Z 1005ebd0 f   combat.obj
 0001:0005dc20       ?SpawnRandomGibs@CGib@@SAXPAUentvars_s@@HPBDHHH@Z 1005ec20 f   combat.obj
 0001:0005dc80       ?GibMonsterGib@CBaseMonster@@UAEHH@Z 1005ec80 f   combat.obj
 0001:0005de10       ?SpawnRandomGibs@CGib@@SAXPAUentvars_s@@HH@Z 1005ee10 f   combat.obj
 0001:0005de30       ?SetAttachment@CSprite@@QAEXPAUedict_s@@H@Z 1005ee30 f i controller.obj
 0001:0005de80       ?SetTransparency@CSprite@@QAEXHHHHHH@Z 1005ee80 f i controller.obj
 0001:0005ded0       ?SetScale@CSprite@@QAEXM@Z 1005eed0 f i controller.obj
 0001:0005def0       ?SetBrightness@CSprite@@QAEXH@Z 1005eef0 f i controller.obj
 0001:0005df10       ?Save@CController@@UAEHAAVCSave@@@Z 1005ef10 f   controller.obj
 0001:0005df50       ?Restore@CController@@UAEHAAVCRestore@@@Z 1005ef50 f   controller.obj
 0001:0005df90       ?Classify@CController@@UAEHXZ 1005ef90 f   controller.obj
 0001:0005dfa0       ?SetYawSpeed@CController@@UAEXXZ 1005efa0 f   controller.obj
 0001:0005dfb0       ?TraceAttack@CController@@UAEXPAUentvars_s@@MVVector@@PAUTraceResult@@HHHPAH@Z 1005efb0 f   controller.obj
 0001:0005e000       ?TakeDamage@CController@@UAEHPAUentvars_s@@0MHH@Z 1005f000 f   controller.obj
 0001:0005e050       ?Killed@CController@@UAEXPAUentvars_s@@0H@Z 1005f050 f   controller.obj
 0001:0005e0a0       ?GibMonster@CController@@UAEXH@Z 1005f0a0 f   controller.obj
 0001:0005e0f0       ?PainSound@CController@@UAEXXZ 1005f0f0 f   controller.obj
 0001:0005e160       ?AlertSound@CController@@UAEXXZ 1005f160 f   controller.obj
 0001:0005e1c0       ?IdleSound@CController@@UAEXXZ 1005f1c0 f   controller.obj
 0001:0005e220       ?AttackSound@CController@@QAEXXZ 1005f220 f   controller.obj
 0001:0005e280       ?DeathSound@CController@@UAEXXZ 1005f280 f   controller.obj
 0001:0005e2e0       ?HandleAnimEvent@CController@@UAEXPAUMonsterEvent_t@@@Z 1005f2e0 f   controller.obj
 0001:0005e660       ??0CController@@QAE@XZ     1005f660 f   controller.obj
 0001:0005e680       ?SetObjectCollisionBox@CController@@UAEXXZ 1005f680 f i controller.obj
 0001:0005e720       ?Spawn@CController@@UAEXXZ 1005f720 f   controller.obj
 0001:0005e830       ?Precache@CController@@UAEXXZ 1005f830 f   controller.obj
 0001:0005e920       ?ScheduleFromName@CController@@UAEPAUSchedule_t@@PBD@Z 1005f920 f   controller.obj
 0001:0005e950       ?LookupFloat@CController@@QAEHXZ 1005f950 f   controller.obj
 0001:0005eb30       ?RunTask@CController@@UAEXPAUTask_t@@@Z 1005fb30 f   controller.obj
 0001:0005f080       ?GetSchedule@CController@@UAEPAUSchedule_t@@XZ 10060080 f   controller.obj
 0001:0005f110       ?GetScheduleOfType@CController@@UAEPAUSchedule_t@@H@Z 10060110 f   controller.obj
 0001:0005f190       ?CheckRangeAttack1@CController@@UAEHMM@Z 10060190 f   controller.obj
 0001:0005f1e0       ?CheckRangeAttack2@CController@@UAEHMM@Z 100601e0 f   controller.obj
 0001:0005f230       ?CheckMeleeAttack1@CController@@UAEHMM@Z 10060230 f   controller.obj
 0001:0005f240       ?SetActivity@CController@@UAEXW4Activity@@@Z 10060240 f   controller.obj
 0001:0005f260       ?RunAI@CController@@UAEXXZ 10060260 f   controller.obj
 0001:0005f4a0       ?Stop@CController@@UAEXXZ  100604a0 f   controller.obj
 0001:0005f4c0       ?ShouldAdvanceRoute@CController@@QAEHM@Z 100604c0 f   controller.obj
 0001:0005f4f0       ?MoveExecute@CController@@UAEXPAVCBaseEntity@@ABVVector@@M@Z 100604f0 f   controller.obj
 0001:0005f640       ??0CControllerHeadBall@@QAE@XZ 10060640 f   controller.obj
 0001:0005f660       ?Precache@CControllerHeadBall@@UAEXXZ 10060660 f   controller.obj
 0001:0005f6a0       ?DieThink@CControllerHeadBall@@QAEXXZ 100606a0 f   controller.obj
 0001:0005f6b0       ?MovetoTarget@CControllerHeadBall@@QAEXVVector@@@Z 100606b0 f   controller.obj
 0001:0005f810       ?Crawl@CControllerHeadBall@@QAEXXZ 10060810 f   controller.obj
 0001:0005f9c0       ??0CControllerZapBall@@QAE@XZ 100609c0 f   controller.obj
 0001:0005f9e0       ?Precache@CControllerZapBall@@UAEXXZ 100609e0 f   controller.obj
 0001:0005fa00       ?AnimateThink@CControllerZapBall@@QAEXXZ 10060a00 f   controller.obj
 0001:0005fac0       ?ExplodeTouch@CControllerZapBall@@QAEXPAVCBaseEntity@@@Z 10060ac0 f   controller.obj
 0001:0005fc20       ??$GetClassPtr@VCController@@@@YAPAVCController@@PAV0@@Z 10060c20 f i controller.obj
 0001:0005fcc0       ??$GetClassPtr@VCControllerHeadBall@@@@YAPAVCControllerHeadBall@@PAV0@@Z 10060cc0 f i controller.obj
 0001:0005fd60       ??$GetClassPtr@VCControllerZapBall@@@@YAPAVCControllerZapBall@@PAV0@@Z 10060d60 f i controller.obj
 0001:0005fe00       _monster_alien_controller  10060e00 f   controller.obj
 0001:0005fe10       _controller                10060e10 f   controller.obj
 0001:0005fe20       _monster_controller        10060e20 f   controller.obj
 0001:0005fe30       _alien_controller          10060e30 f   controller.obj
 0001:0005fe40       ?TraceAttack@CController@@UAEXPAUentvars_s@@MVVector@@PAUTraceResult@@H@Z 10060e40 f   controller.obj
 0001:0005fe80       ?TraceAttack@CController@@UAEXPAUentvars_s@@MVVector@@PAUTraceResult@@HH@Z 10060e80 f   controller.obj
 0001:0005fec0       ?TraceAttack@CController@@UAEXPAUentvars_s@@MVVector@@PAUTraceResult@@HHH@Z 10060ec0 f   controller.obj
 0001:0005ff00       ?TakeDamage@CController@@UAEHPAUentvars_s@@0MH@Z 10060f00 f   controller.obj
 0001:0005ff30       ?Killed@CController@@UAEXPAUentvars_s@@H@Z 10060f30 f   controller.obj
 0001:0005ff50       ?GibMonster@CController@@UAEXXZ 10060f50 f   controller.obj
 0001:0005ff60       ?StartTask@CController@@UAEXPAUTask_t@@@Z 10060f60 f   controller.obj
 0001:00060160       ?Move@CController@@UAEXM@Z 10061160 f   controller.obj
 0001:00060690       ?CheckLocalMove@CController@@UAEHABVVector@@0PAVCBaseEntity@@PAM@Z 10061690 f   controller.obj
 0001:000607b0       _controller_head_ball      100617b0 f   controller.obj
 0001:000607c0       ?HuntThink@CControllerHeadBall@@QAEXXZ 100617c0 f   controller.obj
 0001:00060c50       ?BounceTouch@CControllerHeadBall@@QAEXPAVCBaseEntity@@@Z 10061c50 f   controller.obj
 0001:00060d70       _controller_energy_ball    10061d70 f   controller.obj
 0001:00060d80       ?Spawn@CControllerZapBall@@UAEXXZ 10061d80 f   controller.obj
 0001:00060eb0       ?Spawn@CControllerHeadBall@@UAEXXZ 10061eb0 f   controller.obj
 0001:00061010       ??0CCrossbow@@QAE@XZ       10062010 f   crossbow.obj
 0001:00061030       ?iItemSlot@CCrossbow@@UAEHXZ 10062030 f i crossbow.obj
 0001:00061040       ?UseDecrement@CCrossbow@@UAEHXZ 10062040 f i crossbow.obj
 0001:00061050       ?Spawn@CCrossbow@@UAEXXZ   10062050 f   crossbow.obj
 0001:000610a0       ?AddToPlayer@CCrossbow@@UAEHPAVCBasePlayer@@@Z 100620a0 f   crossbow.obj
 0001:00061100       ?customAttachToPlayer@CCrossbow@@UAEXPAVCBasePlayer@@@Z 10062100 f   crossbow.obj
 0001:00061130       ?Precache@CCrossbow@@UAEXXZ 10062130 f   crossbow.obj
 0001:000611b0       ?GetItemInfo@CCrossbow@@UAEHPAUItemInfo@@@Z 100621b0 f   crossbow.obj
 0001:00061210       ?Deploy@CCrossbow@@UAEHXZ  10062210 f   crossbow.obj
 0001:00061270       ?Holster@CCrossbow@@UAEXH@Z 10062270 f   crossbow.obj
 0001:000612f0       ?FireBolt@CCrossbow@@QAEXXZ 100622f0 f   crossbow.obj
 0001:000616c0       ?SecondaryAttack@CCrossbow@@UAEXXZ 100626c0 f   crossbow.obj
 0001:00061780       ?ItemPostFrameThink@CCrossbow@@UAEXXZ 10062780 f   crossbow.obj
 0001:00061830       ?ItemPostFrame@CCrossbow@@UAEXXZ 10062830 f   crossbow.obj
 0001:00061840       ?Reload@CCrossbow@@UAEXXZ  10062840 f   crossbow.obj
 0001:000618c0       ?WeaponIdle@CCrossbow@@UAEXXZ 100628c0 f   crossbow.obj
 0001:00061a10       ??$GetClassPtr@VCCrossbow@@@@YAPAVCCrossbow@@PAV0@@Z 10062a10 f i crossbow.obj
 0001:00061ab0       ??0CBasePlayerAmmo@@QAE@XZ 10062ab0 f i crossbow.obj
 0001:00061ad0       ?AddAmmo@CBasePlayerAmmo@@UAEHPAVCBaseEntity@@@Z 10062ad0 f i crossbow.obj
 0001:00061ae0       _weapon_crossbow           10062ae0 f   crossbow.obj
 0001:00061af0       ?FireSniperBolt@CCrossbow@@QAEXXZ 10062af0 f   crossbow.obj
 0001:00061d90       ??0CCrossbowAmmo@@QAE@XZ   10062d90 f i crossbow.obj
 0001:00061db0       ?Spawn@CCrossbowAmmo@@EAEXXZ 10062db0 f i crossbow.obj
 0001:00061de0       ?Precache@CCrossbowAmmo@@EAEXXZ 10062de0 f i crossbow.obj
 0001:00061e00       ?AddAmmo@CCrossbowAmmo@@EAEHPAVCBaseEntity@@@Z 10062e00 f i crossbow.obj
 0001:00061e80       ?PrimaryAttack@CCrossbow@@UAEXXZ 10062e80 f   crossbow.obj
 0001:00061ee0       ??$GetClassPtr@VCCrossbowAmmo@@@@YAPAVCCrossbowAmmo@@PAV0@@Z 10062ee0 f i crossbow.obj
 0001:00061f90       _ammo_crossbow             10062f90 f   crossbow.obj
 0001:00061fa0       ?Precache@CCrossbowBolt@@EAEXXZ 10062fa0 f   crossbowbolt.obj
 0001:00062000       ?Classify@CCrossbowBolt@@EAEHXZ 10063000 f   crossbowbolt.obj
 0001:00062010       ?BubbleThink@CCrossbowBolt@@AAEXXZ 10063010 f   crossbowbolt.obj
 0001:000620b0       ?ExplodeThink@CCrossbowBolt@@AAEXXZ 100630b0 f   crossbowbolt.obj
 0001:00062180       ??0CCrossbowBolt@@QAE@XZ   10063180 f i crossbowbolt.obj
 0001:000621a0       ?BoltTouch@CCrossbowBolt@@AAEXPAVCBaseEntity@@@Z 100631a0 f   crossbowbolt.obj
 0001:000626a0       ??$GetClassPtr@VCCrossbowBolt@@@@YAPAVCCrossbowBolt@@PAV0@@Z 100636a0 f i crossbowbolt.obj
 0001:00062750       _crossbow_bolt             10063750 f   crossbowbolt.obj
 0001:00062760       ?BoltCreate@CCrossbowBolt@@SAPAV1@XZ 10063760 f   crossbowbolt.obj
 0001:00062790       ?Spawn@CCrossbowBolt@@EAEXXZ 10063790 f   crossbowbolt.obj
 0001:000628d0       ?Spawn@CCrowbar@@UAEXXZ    100638d0 f   crowbar.obj
 0001:00062920       ?Precache@CCrowbar@@UAEXXZ 10063920 f   crowbar.obj
 0001:000629b0       ?GetItemInfo@CCrowbar@@UAEHPAUItemInfo@@@Z 100639b0 f   crowbar.obj
 0001:00062a00       ?Deploy@CCrowbar@@UAEHXZ   10063a00 f   crowbar.obj
 0001:00062a40       ?Holster@CCrowbar@@UAEXH@Z 10063a40 f   crowbar.obj
 0001:00062a80       ?Smack@CCrowbar@@QAEXXZ    10063a80 f   crowbar.obj
 0001:00062aa0       ?FireBulletsPlayerEh@@YA?AVVector@@KV1@00MHHHPAUentvars_s@@H@Z 10063aa0 f   crowbar.obj
 0001:00062e00       ?WeaponIdle@CCrowbar@@UAEXXZ 10063e00 f   crowbar.obj
 0001:00062e90       ??0CCrowbar@@QAE@XZ        10063e90 f i crowbar.obj
 0001:00062eb0       ?customAttachToPlayer@CBasePlayerWeapon@@UAEXPAVCBasePlayer@@@Z 10063eb0 f i crowbar.obj
 0001:00062ec0       ?SecondaryAttack@CBasePlayerWeapon@@UAEXXZ 10063ec0 f i crowbar.obj
 0001:00062ed0       ?iItemSlot@CCrowbar@@UAEHXZ 10063ed0 f i crowbar.obj
 0001:00062ee0       ?UseDecrement@CCrowbar@@UAEHXZ 10063ee0 f i crowbar.obj
 0001:00062ef0       ?FindHullIntersection@@YAHABVVector@@AAUTraceResult@@PAM2PAUedict_s@@@Z 10063ef0 f   crowbar.obj
 0001:000630e0       ?Swing@CCrowbar@@QAEHH@Z   100640e0 f   crowbar.obj
 0001:00063a90       ??$GetClassPtr@VCCrowbar@@@@YAPAVCCrowbar@@PAV0@@Z 10064a90 f i crowbar.obj
 0001:00063b40       _weapon_crowbar            10064b40 f   crowbar.obj
 0001:00063b50       ?SwingAgain@CCrowbar@@QAEXXZ 10064b50 f   crowbar.obj
 0001:00063b60       ?PrimaryAttack@CCrowbar@@UAEXXZ 10064b60 f   crowbar.obj
 0001:00063ba0       ?checkDrawLine@DebugLine@@QAEXXZ 10064ba0 f   custom_debug.obj
 0001:00063c00       ?setup@DebugLine@@QAEXHHHHHMMMMMM@Z 10064c00 f   custom_debug.obj
 0001:00063c50       ?checkDrawLines@DebugDrawable@@QAEXXZ 10064c50 f   custom_debug.obj
 0001:00063c70       ?DebugLine_ClearLine@@YAXH@Z 10064c70 f   custom_debug.obj
 0001:00063c90       ?DebugLine_ClearAll@@YAXXZ 10064c90 f   custom_debug.obj
 0001:00063cc0       ?checkDrawLines@DebugDrawable_pathTrack@@QAEXXZ 10064cc0 f   custom_debug.obj
 0001:00063e60       ?DebugLine_Setup@@YAXHVVector@@0HHH@Z 10064e60 f   custom_debug.obj
 0001:00063ef0       ?DebugLine_SetupPoint@@YAXHVVector@@HHH@Z 10064ef0 f   custom_debug.obj
 0001:00063f70       ?DebugLine_SetupPathTrack@@YAXHPAVCPathTrack@@@Z 10064f70 f   custom_debug.obj
 0001:00063fd0       ?DebugLine_Setup@@YAXHVVector@@0MHHHHHH@Z 10064fd0 f   custom_debug.obj
 0001:000641f0       ?DebugLine_Color@@YAXHHHH@Z 100651f0 f   custom_debug.obj
 0001:00064220       ?DebugLine_ColorSuccess@@YAXH@Z 10065220 f   custom_debug.obj
 0001:00064240       ?DebugLine_ColorFail@@YAXH@Z 10065240 f   custom_debug.obj
 0001:00064260       ?DebugLine_ColorBool@@YAXHH@Z 10065260 f   custom_debug.obj
 0001:00064290       ?DebugLine_RenderAll@@YAXXZ 10065290 f   custom_debug.obj
 0001:000642d0       ?DebugLine_Setup@@YAXVVector@@0HHH@Z 100652d0 f   custom_debug.obj
 0001:00064320       ?DebugLine_SetupPoint@@YAXVVector@@HHH@Z 10065320 f   custom_debug.obj
 0001:00064360       ?DebugLine_SetupPathTrack@@YAXPAVCPathTrack@@@Z 10065360 f   custom_debug.obj
 0001:00064380       ?DebugLine_Setup@@YAXVVector@@0MHHHHHH@Z 10065380 f   custom_debug.obj
 0001:000643e0       ?ScheduleInList@CBaseMonster@@QAEPAUSchedule_t@@PBDPAPAU2@H@Z 100653e0 f   defaultai.obj
 0001:00064470       ?GetScheduleOfType@CBaseMonster@@UAEPAUSchedule_t@@H@Z 10065470 f   defaultai.obj
 0001:000647d0       ?ScheduleChange@CBaseMonster@@UAEXXZ 100657d0 f   defaultai.obj
 0001:00064860       ?GetStumpedWaitSchedule@CBaseMonster@@UAEPAUSchedule_t@@XZ 10065860 f   defaultai.obj
 0001:00064870       ?ScheduleFromName@CBaseMonster@@UAEPAUSchedule_t@@PBD@Z 10065870 f   defaultai.obj
 0001:00064890       ?Save@CBaseDoor@@UAEHAAVCSave@@@Z 10065890 f   doors.obj
 0001:000648d0       ?Restore@CBaseDoor@@UAEHAAVCRestore@@@Z 100658d0 f   doors.obj
 0001:00064910       ?PlayLockSounds@@YAXPAUentvars_s@@PAUlocksounds@@HH@Z 10065910 f   doors.obj
 0001:00064b50       ?KeyValue@CBaseDoor@@UAEXPAUKeyValueData_s@@@Z 10065b50 f   doors.obj
 0001:00064e80       ?IsWorldAffiliated@CBaseDoor@@UAEHXZ 10065e80 f   doors.obj
 0001:00064e90       ?SetToggleState@CBaseDoor@@UAEXH@Z 10065e90 f   doors.obj
 0001:00064ed0       ?Precache@CBaseDoor@@UAEXXZ 10065ed0 f   doors.obj
 0001:000653b0       ?DoorHitBottom@CBaseDoor@@QAEXXZ 100663b0 f   doors.obj
 0001:000654d0       ?SetToggleState@CRotDoor@@UAEXH@Z 100664d0 f   doors.obj
 0001:00065530       ?Save@CMomentaryDoor@@UAEHAAVCSave@@@Z 10066530 f   doors.obj
 0001:00065570       ?Restore@CMomentaryDoor@@UAEHAAVCRestore@@@Z 10066570 f   doors.obj
 0001:000655b0       ?Spawn@CMomentaryDoor@@UAEXXZ 100665b0 f   doors.obj
 0001:000657a0       ?Precache@CMomentaryDoor@@UAEXXZ 100667a0 f   doors.obj
 0001:00065930       ?KeyValue@CMomentaryDoor@@UAEXPAUKeyValueData_s@@@Z 10066930 f   doors.obj
 0001:00065a20       ?IsWorldAffiliated@CMomentaryDoor@@UAEHXZ 10066a20 f   doors.obj
 0001:00065a30       ?Use@CMomentaryDoor@@UAEXPAVCBaseEntity@@0W4USE_TYPE@@M@Z 10066a30 f   doors.obj
 0001:00065bd0       ?DoorGoDown@CBaseDoor@@QAEXXZ 10066bd0 f   doors.obj
 0001:00065cd0       ??0CBaseDoor@@QAE@XZ       10066cd0 f i doors.obj
 0001:00065cf0       ?ObjectCaps@CBaseDoor@@UAEHXZ 10066cf0 f i doors.obj
 0001:00065d00       ??0CRotDoor@@QAE@XZ        10066d00 f i doors.obj
 0001:00065d20       ??0CMomentaryDoor@@QAE@XZ  10066d20 f i doors.obj
 0001:00065d40       ?ObjectCaps@CMomentaryDoor@@UAEHXZ 10066d40 f i doors.obj
 0001:00065d50       ?DoorHitTop@CBaseDoor@@QAEXXZ 10066d50 f   doors.obj
 0001:00065eb0       ??$GetClassPtr@VCBaseDoor@@@@YAPAVCBaseDoor@@PAV0@@Z 10066eb0 f i doors.obj
 0001:00065f60       ??$GetClassPtr@VCRotDoor@@@@YAPAVCRotDoor@@PAV0@@Z 10066f60 f i doors.obj
 0001:00066010       ??$GetClassPtr@VCMomentaryDoor@@@@YAPAVCMomentaryDoor@@PAV0@@Z 10067010 f i doors.obj
 0001:000660c0       _func_door                 100670c0 f   doors.obj
 0001:000660d0       _func_water                100670d0 f   doors.obj
 0001:000660e0       ?DoorGoUp@CBaseDoor@@QAEXXZ 100670e0 f   doors.obj
 0001:00066300       ?Blocked@CBaseDoor@@UAEXPAVCBaseEntity@@@Z 10067300 f   doors.obj
 0001:00066570       _func_door_rotating        10067570 f   doors.obj
 0001:00066580       _momentary_door            10067580 f   doors.obj
 0001:00066590       ?DoorActivate@CBaseDoor@@QAEHXZ 10067590 f   doors.obj
 0001:00066670       ?DoorTouch@CBaseDoor@@QAEXPAVCBaseEntity@@@Z 10067670 f   doors.obj
 0001:00066740       ?Use@CBaseDoor@@UAEXPAVCBaseEntity@@0W4USE_TYPE@@M@Z 10067740 f   doors.obj
 0001:00066780       ?Spawn@CRotDoor@@UAEXXZ    10067780 f   doors.obj
 0001:000669b0       ?Spawn@CBaseDoor@@UAEXXZ   100679b0 f   doors.obj
 0001:00066bc0       _fmodf                     10067bc0 f i effects.obj
 0001:00066be0       ?fmod@@YAMMM@Z             10067be0 f i effects.obj
 0001:00066c00       ?SetType@CBeam@@QAEXH@Z    10067c00 f i effects.obj
 0001:00066c30       ?SetFlags@CBeam@@QAEXH@Z   10067c30 f i effects.obj
 0001:00066c60       ?SetStartPos@CBeam@@QAEXABVVector@@@Z 10067c60 f i effects.obj
 0001:00066c80       ?SetEndPos@CBeam@@QAEXABVVector@@@Z 10067c80 f i effects.obj
 0001:00066ca0       ?SetStartAttachment@CBeam@@QAEXH@Z 10067ca0 f i effects.obj
 0001:00066cd0       ?SetEndAttachment@CBeam@@QAEXH@Z 10067cd0 f i effects.obj
 0001:00066d00       ?SetTexture@CBeam@@QAEXH@Z 10067d00 f i effects.obj
 0001:00066d20       ?SetWidth@CBeam@@QAEXH@Z   10067d20 f i effects.obj
 0001:00066d40       ?SetNoise@CBeam@@QAEXH@Z   10067d40 f i effects.obj
 0001:00066d60       ?SetColor@CBeam@@QAEXHHH@Z 10067d60 f i effects.obj
 0001:00066d90       ?SetBrightness@CBeam@@QAEXH@Z 10067d90 f i effects.obj
 0001:00066db0       ?SetFrame@CBeam@@QAEXM@Z   10067db0 f i effects.obj
 0001:00066dd0       ?SetScrollRate@CBeam@@QAEXH@Z 10067dd0 f i effects.obj
 0001:00066df0       ?GetType@CBeam@@QAEHXZ     10067df0 f i effects.obj
 0001:00066e00       ?GetStartEntity@CBeam@@QAEHXZ 10067e00 f i effects.obj
 0001:00066e10       ?GetEndEntity@CBeam@@QAEHXZ 10067e10 f i effects.obj
 0001:00066e20       ?Save@CBubbling@@UAEHAAVCSave@@@Z 10067e20 f   effects.obj
 0001:00066e60       ?Restore@CBubbling@@UAEHAAVCRestore@@@Z 10067e60 f   effects.obj
 0001:00066ea0       ?Precache@CBubbling@@UAEXXZ 10067ea0 f   effects.obj
 0001:00066ec0       ?KeyValue@CBubbling@@UAEXPAUKeyValueData_s@@@Z 10067ec0 f   effects.obj
 0001:00066fe0       ?IsWorldAffiliated@CBubbling@@UAEHXZ 10067fe0 f   effects.obj
 0001:00066ff0       ?FizzThink@CBubbling@@QAEXXZ 10067ff0 f   effects.obj
 0001:000670c0       ?Spawn@CBeam@@UAEXXZ       100680c0 f   effects.obj
 0001:000670e0       ?SetStartEntity@CBeam@@QAEXH@Z 100680e0 f   effects.obj
 0001:00067130       ?SetEndEntity@CBeam@@QAEXH@Z 10068130 f   effects.obj
 0001:00067180       ?GetStartPos@CBeam@@QAEABVVector@@XZ 10068180 f   effects.obj
 0001:000671b0       ?GetEndPos@CBeam@@QAEABVVector@@XZ 100681b0 f   effects.obj
 0001:00067200       ?BeamInit@CBeam@@QAEXPBDH@Z 10068200 f   effects.obj
 0001:000672c0       ?RelinkBeam@CBeam@@QAEXXZ  100682c0 f   effects.obj
 0001:00067470       ?TriggerTouch@CBeam@@QAEXPAVCBaseEntity@@@Z 10068470 f   effects.obj
 0001:000674c0       ?RandomTargetname@CBeam@@QAEPAVCBaseEntity@@PBD@Z 100684c0 f   effects.obj
 0001:00067520       ?DoSparks@CBeam@@QAEXABVVector@@0@Z 10068520 f   effects.obj
 0001:00067590       ?ServerSide@CLightning@@QAEHXZ 10068590 f i effects.obj
 0001:000675c0       ?Save@CLightning@@UAEHAAVCSave@@@Z 100685c0 f   effects.obj
 0001:00067600       ?Restore@CLightning@@UAEHAAVCRestore@@@Z 10068600 f   effects.obj
 0001:00067640       ?KeyValue@CLightning@@UAEXPAUKeyValueData_s@@@Z 10068640 f   effects.obj
 0001:000678f0       ?IsWorldAffiliated@CLightning@@UAEHXZ 100688f0 f   effects.obj
 0001:00067900       ?ToggleUse@CLightning@@QAEXPAVCBaseEntity@@0W4USE_TYPE@@M@Z 10068900 f   effects.obj
 0001:000679b0       ?IsPointEntity@@YAHPAVCBaseEntity@@@Z 100689b0 f   effects.obj
 0001:00067a30       ?BeamDamage@CBeam@@QAEXPAUTraceResult@@@Z 10068a30 f   effects.obj
 0001:00067b30       ?DamageThink@CLightning@@QAEXXZ 10068b30 f   effects.obj
 0001:00067b90       ?Zap@CLightning@@QAEXABVVector@@0@Z 10068b90 f   effects.obj
 0001:00067ce0       ?RandomArea@CLightning@@QAEXXZ 10068ce0 f   effects.obj
 0001:00067ff0       ?RandomPoint@CLightning@@QAEXAAVVector@@@Z 10068ff0 f   effects.obj
 0001:00068160       ?BeamUpdateVars@CLightning@@QAEXXZ 10069160 f   effects.obj
 0001:000683b0       ?Save@CLaser@@UAEHAAVCSave@@@Z 100693b0 f   effects.obj
 0001:000683f0       ?Restore@CLaser@@UAEHAAVCRestore@@@Z 100693f0 f   effects.obj
 0001:00068430       ?Precache@CLaser@@UAEXXZ   10069430 f   effects.obj
 0001:00068480       ?KeyValue@CLaser@@UAEXPAUKeyValueData_s@@@Z 10069480 f   effects.obj
 0001:000686d0       ?IsOn@CLaser@@QAEHXZ       100696d0 f   effects.obj
 0001:000686f0       ?FireAtPoint@CLaser@@QAEXAAUTraceResult@@@Z 100696f0 f   effects.obj
 0001:00068750       ?StrikeThink@CLaser@@QAEXXZ 10069750 f   effects.obj
 0001:000687f0       ?Save@CGlow@@UAEHAAVCSave@@@Z 100697f0 f   effects.obj
 0001:00068830       ?Restore@CGlow@@UAEHAAVCRestore@@@Z 10069830 f   effects.obj
 0001:00068870       ?Spawn@CGlow@@UAEXXZ       10069870 f   effects.obj
 0001:00068970       ?IsWorldAffiliated@CGlow@@UAEHXZ 10069970 f   effects.obj
 0001:00068980       ?Animate@CGlow@@QAEXM@Z    10069980 f   effects.obj
 0001:000689d0       ?Save@CSprite@@UAEHAAVCSave@@@Z 100699d0 f   effects.obj
 0001:00068a10       ?Restore@CSprite@@UAEHAAVCRestore@@@Z 10069a10 f   effects.obj
 0001:00068a50       ?Precache@CSprite@@UAEXXZ  10069a50 f   effects.obj
 0001:00068ae0       ?SpriteInit@CSprite@@QAEXPBDABVVector@@@Z 10069ae0 f   effects.obj
 0001:00068b20       ?ExpandThink@CSprite@@QAEXXZ 10069b20 f   effects.obj
 0001:00068bc0       ?TurnOff@CSprite@@QAEXXZ   10069bc0 f   effects.obj
 0001:00068be0       ?Save@CGibShooter@@UAEHAAVCSave@@@Z 10069be0 f   effects.obj
 0001:00068c20       ?Restore@CGibShooter@@UAEHAAVCRestore@@@Z 10069c20 f   effects.obj
 0001:00068c60       ?getGibModelIndex@CGibShooter@@UAEHXZ 10069c60 f   effects.obj
 0001:00068c80       ?Precache@CGibShooter@@UAEXXZ 10069c80 f   effects.obj
 0001:00068cc0       ?KeyValue@CGibShooter@@UAEXPAUKeyValueData_s@@@Z 10069cc0 f   effects.obj
 0001:00068e10       ?IsWorldAffiliated@CGibShooter@@UAEHXZ 10069e10 f   effects.obj
 0001:00068e20       ?Spawn@CGibShooter@@UAEXXZ 10069e20 f   effects.obj
 0001:00068eb0       ?ShootThink@CGibShooter@@QAEXXZ 10069eb0 f   effects.obj
 0001:00069210       ?KeyValue@CEnvShooter@@EAEXPAUKeyValueData_s@@@Z 1006a210 f   effects.obj
 0001:00069360       ?IsWorldAffiliated@CEnvShooter@@EAEHXZ 1006a360 f   effects.obj
 0001:00069370       ?getGibModelIndex@CEnvShooter@@EAEHXZ 1006a370 f   effects.obj
 0001:00069380       ?Precache@CEnvShooter@@EAEXXZ 1006a380 f   effects.obj
 0001:000693c0       ?Spawn@CTestEffect@@UAEXXZ 1006a3c0 f   effects.obj
 0001:000693d0       ?Precache@CTestEffect@@UAEXXZ 1006a3d0 f   effects.obj
 0001:000693e0       ?IsWorldAffiliated@CTestEffect@@UAEHXZ 1006a3e0 f   effects.obj
 0001:000693f0       ?Color@CBlood@@QAEHXZ      1006a3f0 f i effects.obj
 0001:00069400       ?BloodAmount@CBlood@@QAEMXZ 1006a400 f i effects.obj
 0001:00069410       ?SetColor@CBlood@@QAEXH@Z  1006a410 f i effects.obj
 0001:00069430       ?SetBloodAmount@CBlood@@QAEXM@Z 1006a430 f i effects.obj
 0001:00069450       ?Spawn@CBlood@@UAEXXZ      1006a450 f   effects.obj
 0001:00069490       ?KeyValue@CBlood@@UAEXPAUKeyValueData_s@@@Z 1006a490 f   effects.obj
 0001:00069580       ?IsWorldAffiliated@CBlood@@UAEHXZ 1006a580 f   effects.obj
 0001:00069590       ?Direction@CBlood@@QAE?AVVector@@XZ 1006a590 f   effects.obj
 0001:000695d0       ?BloodPosition@CBlood@@QAE?AVVector@@PAVCBaseEntity@@@Z 1006a5d0 f   effects.obj
 0001:000696f0       ?Use@CBlood@@UAEXPAVCBaseEntity@@0W4USE_TYPE@@M@Z 1006a6f0 f   effects.obj
 0001:00069850       ?Amplitude@CShake@@QAEMXZ  1006a850 f i effects.obj
 0001:00069860       ?Frequency@CShake@@QAEMXZ  1006a860 f i effects.obj
 0001:00069870       ?Duration@CShake@@QAEMXZ   1006a870 f i effects.obj
 0001:00069880       ?Radius@CShake@@QAEMXZ     1006a880 f i effects.obj
 0001:00069890       ?SetAmplitude@CShake@@QAEXM@Z 1006a890 f i effects.obj
 0001:000698b0       ?SetFrequency@CShake@@QAEXM@Z 1006a8b0 f i effects.obj
 0001:000698d0       ?SetDuration@CShake@@QAEXM@Z 1006a8d0 f i effects.obj
 0001:000698f0       ?SetRadius@CShake@@QAEXM@Z 1006a8f0 f i effects.obj
 0001:00069910       ?Spawn@CShake@@UAEXXZ      1006a910 f   effects.obj
 0001:00069950       ?KeyValue@CShake@@UAEXPAUKeyValueData_s@@@Z 1006a950 f   effects.obj
 0001:00069ac0       ?IsWorldAffiliated@CShake@@UAEHXZ 1006aac0 f   effects.obj
 0001:00069ad0       ?Use@CShake@@UAEXPAVCBaseEntity@@0W4USE_TYPE@@M@Z 1006aad0 f   effects.obj
 0001:00069b10       ?Duration@CFade@@QAEMXZ    1006ab10 f i effects.obj
 0001:00069b20       ?HoldTime@CFade@@QAEMXZ    1006ab20 f i effects.obj
 0001:00069b30       ?SetDuration@CFade@@QAEXM@Z 1006ab30 f i effects.obj
 0001:00069b50       ?SetHoldTime@CFade@@QAEXM@Z 1006ab50 f i effects.obj
 0001:00069b70       ?Spawn@CFade@@UAEXXZ       1006ab70 f   effects.obj
 0001:00069ba0       ?KeyValue@CFade@@UAEXPAUKeyValueData_s@@@Z 1006aba0 f   effects.obj
 0001:00069c70       ?IsWorldAffiliated@CFade@@UAEHXZ 1006ac70 f   effects.obj
 0001:00069c80       ?Use@CFade@@UAEXPAVCBaseEntity@@0W4USE_TYPE@@M@Z 1006ac80 f   effects.obj
 0001:00069d40       ?Spawn@CMessage@@UAEXXZ    1006ad40 f   effects.obj
 0001:00069de0       ?Precache@CMessage@@UAEXXZ 1006ade0 f   effects.obj
 0001:00069e10       ?KeyValue@CMessage@@UAEXPAUKeyValueData_s@@@Z 1006ae10 f   effects.obj
 0001:00069f40       ?IsWorldAffiliated@CMessage@@UAEHXZ 1006af40 f   effects.obj
 0001:00069f50       ?Use@CMessage@@UAEXPAVCBaseEntity@@0W4USE_TYPE@@M@Z 1006af50 f   effects.obj
 0001:0006a060       ?Precache@CEnvFunnel@@UAEXXZ 1006b060 f   effects.obj
 0001:0006a080       ?Use@CEnvFunnel@@UAEXPAVCBaseEntity@@0W4USE_TYPE@@M@Z 1006b080 f   effects.obj
 0001:0006a120       ?IsWorldAffiliated@CEnvFunnel@@UAEHXZ 1006b120 f   effects.obj
 0001:0006a130       ?Spawn@CEnvFunnel@@UAEXXZ  1006b130 f   effects.obj
 0001:0006a160       ?Precache@CEnvBeverage@@UAEXXZ 1006b160 f   effects.obj
 0001:0006a180       ?Use@CEnvBeverage@@UAEXPAVCBaseEntity@@0W4USE_TYPE@@M@Z 1006b180 f   effects.obj
 0001:0006a230       ?IsWorldAffiliated@CEnvBeverage@@UAEHXZ 1006b230 f   effects.obj
 0001:0006a240       ?Spawn@CEnvBeverage@@UAEXXZ 1006b240 f   effects.obj
 0001:0006a2a0       ?Precache@CItemSoda@@UAEXXZ 1006b2a0 f   effects.obj
 0001:0006a2b0       ?CanTouch@CItemSoda@@QAEXPAVCBaseEntity@@@Z 1006b2b0 f   effects.obj
 0001:0006a360       ?Save@CEnvMirror@@UAEHAAVCSave@@@Z 1006b360 f   effects.obj
 0001:0006a3a0       ?Restore@CEnvMirror@@UAEHAAVCRestore@@@Z 1006b3a0 f   effects.obj
 0001:0006a3e0       ?KeyValue@CEnvMirror@@UAEXPAUKeyValueData_s@@@Z 1006b3e0 f   effects.obj
 0001:0006a440       ?IsWorldAffiliated@CEnvMirror@@UAEHXZ 1006b440 f   effects.obj
 0001:0006a450       ?MirrorThink@CEnvMirror@@QAEXXZ 1006b450 f   effects.obj
 0001:0006a590       ?Use@CEnvMirror@@UAEXPAVCBaseEntity@@0W4USE_TYPE@@M@Z 1006b590 f   effects.obj
 0001:0006a600       ?canDrawPlayer@CEnvMirror@@QAEHXZ 1006b600 f   effects.obj
 0001:0006a610       ?Save@CEnvModelSimple@@EAEHAAVCSave@@@Z 1006b610 f   effects.obj
 0001:0006a650       ?Restore@CEnvModelSimple@@EAEHAAVCRestore@@@Z 1006b650 f   effects.obj
 0001:0006a690       ?KeyValue@CEnvModelSimple@@EAEXPAUKeyValueData_s@@@Z 1006b690 f   effects.obj
 0001:0006a700       ?IsWorldAffiliated@CEnvModelSimple@@EAEHXZ 1006b700 f   effects.obj
 0001:0006a710       ?Precache@CEnvModelSimple@@EAEXXZ 1006b710 f   effects.obj
 0001:0006a730       ?GetState@CEnvModelSimple@@AAE?AW4STATE@@XZ 1006b730 f   effects.obj
 0001:0006a740       ?Use@CEnvModelSimple@@EAEXPAVCBaseEntity@@0W4USE_TYPE@@M@Z 1006b740 f   effects.obj
 0001:0006a750       ?SetSequence@CEnvModelSimple@@AAEXXZ 1006b750 f   effects.obj
 0001:0006a840       ?Save@CEnvModel@@EAEHAAVCSave@@@Z 1006b840 f   effects.obj
 0001:0006a880       ?Restore@CEnvModel@@EAEHAAVCRestore@@@Z 1006b880 f   effects.obj
 0001:0006a8c0       ?KeyValue@CEnvModel@@EAEXPAUKeyValueData_s@@@Z 1006b8c0 f   effects.obj
 0001:0006aa10       ?IsWorldAffiliated@CEnvModel@@EAEHXZ 1006ba10 f   effects.obj
 0001:0006aa20       ?Precache@CEnvModel@@EAEXXZ 1006ba20 f   effects.obj
 0001:0006aa40       ?GetState@CEnvModel@@AAE?AW4STATE@@XZ 1006ba40 f   effects.obj
 0001:0006aa60       ?SetSequence@CEnvModel@@AAEXXZ 1006ba60 f   effects.obj
 0001:0006abb0       ??$GetClassPtr@VCPointEntity@@@@YAPAVCPointEntity@@PAV0@@Z 1006bbb0 f i effects.obj
 0001:0006ac50       ??0CBubbling@@QAE@XZ       1006bc50 f i effects.obj
 0001:0006ac70       ?ObjectCaps@CBubbling@@UAEHXZ 1006bc70 f i effects.obj
 0001:0006ac80       ??0CBeam@@QAE@XZ           1006bc80 f i effects.obj
 0001:0006aca0       ?ObjectCaps@CBeam@@UAEHXZ  1006bca0 f i effects.obj
 0001:0006acc0       ??0CLightning@@QAE@XZ      1006bcc0 f i effects.obj
 0001:0006ace0       ??0CLaser@@QAE@XZ          1006bce0 f i effects.obj
 0001:0006ad00       ??0CGlow@@QAE@XZ           1006bd00 f i effects.obj
 0001:0006ad20       ??0CSprite@@QAE@XZ         1006bd20 f i effects.obj
 0001:0006ad40       ?ObjectCaps@CSprite@@UAEHXZ 1006bd40 f i effects.obj
 0001:0006ad60       ??0CGibShooter@@QAE@XZ     1006bd60 f i effects.obj
 0001:0006ad80       ??0CEnvShooter@@QAE@XZ     1006bd80 f i effects.obj
 0001:0006ada0       ??0CBlood@@QAE@XZ          1006bda0 f i effects.obj
 0001:0006adc0       ??0CShake@@QAE@XZ          1006bdc0 f i effects.obj
 0001:0006ade0       ??0CFade@@QAE@XZ           1006bde0 f i effects.obj
 0001:0006ae00       ??0CMessage@@QAE@XZ        1006be00 f i effects.obj
 0001:0006ae20       ??0CEnvFunnel@@QAE@XZ      1006be20 f i effects.obj
 0001:0006ae40       ??0CEnvBeverage@@QAE@XZ    1006be40 f i effects.obj
 0001:0006ae60       ??0CItemSoda@@QAE@XZ       1006be60 f i effects.obj
 0001:0006ae80       ??0CEnvMirror@@QAE@XZ      1006be80 f i effects.obj
 0001:0006aea0       ?ObjectCaps@CEnvMirror@@UAEHXZ 1006bea0 f i effects.obj
 0001:0006aeb0       ??0CEnvModelSimple@@QAE@XZ 1006beb0 f i effects.obj
 0001:0006aed0       ?ObjectCaps@CEnvModelSimple@@EAEHXZ 1006bed0 f i effects.obj
 0001:0006aee0       ??0CEnvModel@@QAE@XZ       1006bee0 f i effects.obj
 0001:0006af00       ?ObjectCaps@CEnvModel@@EAEHXZ 1006bf00 f i effects.obj
 0001:0006af10       ?Center@CBeam@@UAE?AVVector@@XZ 1006bf10 f i effects.obj
 0001:0006af70       ?BeamDamageInstant@CBeam@@QAEXPAUTraceResult@@M@Z 1006bf70 f i effects.obj
 0001:0006afb0       _info_target               1006bfb0 f   effects.obj
 0001:0006afc0       ?Spawn@CBubbling@@UAEXXZ   1006bfc0 f   effects.obj
 0001:0006b0d0       ?Use@CBubbling@@UAEXPAVCBaseEntity@@0W4USE_TYPE@@M@Z 1006c0d0 f   effects.obj
 0001:0006b150       ?Precache@CBeam@@UAEXXZ    1006c150 f   effects.obj
 0001:0006b1a0       ?PointsInit@CBeam@@QAEXABVVector@@0@Z 1006c1a0 f   effects.obj
 0001:0006b200       ?HoseInit@CBeam@@QAEXABVVector@@0@Z 1006c200 f   effects.obj
 0001:0006b270       ?PointEntInit@CBeam@@QAEXABVVector@@H@Z 1006c270 f   effects.obj
 0001:0006b2e0       ?EntsInit@CBeam@@QAEXHH@Z  1006c2e0 f   effects.obj
 0001:0006b340       ?Precache@CLightning@@UAEXXZ 1006c340 f   effects.obj
 0001:0006b370       ?Activate@CLightning@@UAEXXZ 1006c370 f   effects.obj
 0001:0006b3a0       ?StrikeThink@CLightning@@QAEXXZ 1006c3a0 f   effects.obj
 0001:0006b750       ?TurnOff@CLaser@@QAEXXZ    1006c750 f   effects.obj
 0001:0006b780       ?Think@CGlow@@UAEXXZ       1006c780 f   effects.obj
 0001:0006b7e0       ?Expand@CSprite@@QAEXMM@Z  1006c7e0 f   effects.obj
 0001:0006b830       ?Animate@CSprite@@QAEXM@Z  1006c830 f   effects.obj
 0001:0006b8b0       ?Use@CGibShooter@@UAEXPAVCBaseEntity@@0W4USE_TYPE@@M@Z 1006c8b0 f   effects.obj
 0001:0006b8d0       ??0CTestEffect@@QAE@XZ     1006c8d0 f   effects.obj
 0001:0006b8f0       ?CanThink@CItemSoda@@QAEXXZ 1006c8f0 f   effects.obj
 0001:0006b980       ?Spawn@CEnvMirror@@UAEXXZ  1006c980 f   effects.obj
 0001:0006bb60       ?Precache@CEnvMirror@@UAEXXZ 1006cb60 f   effects.obj
 0001:0006bba0       ?Spawn@CEnvModelSimple@@EAEXXZ 1006cba0 f   effects.obj
 0001:0006bcb0       ?Think@CEnvModelSimple@@EAEXXZ 1006ccb0 f   effects.obj
 0001:0006bcd0       ?Spawn@CEnvModel@@EAEXXZ   1006ccd0 f   effects.obj
 0001:0006bde0       ?Use@CEnvModel@@EAEXPAVCBaseEntity@@0W4USE_TYPE@@M@Z 1006cde0 f   effects.obj
 0001:0006be40       ?Think@CEnvModel@@EAEXXZ   1006ce40 f   effects.obj
 0001:0006beb0       ??$GetClassPtr@VCBubbling@@@@YAPAVCBubbling@@PAV0@@Z 1006ceb0 f i effects.obj
 0001:0006bf60       ??$GetClassPtr@VCBeam@@@@YAPAVCBeam@@PAV0@@Z 1006cf60 f i effects.obj
 0001:0006c010       ??$GetClassPtr@VCLightning@@@@YAPAVCLightning@@PAV0@@Z 1006d010 f i effects.obj
 0001:0006c0c0       ??$GetClassPtr@VCLaser@@@@YAPAVCLaser@@PAV0@@Z 1006d0c0 f i effects.obj
 0001:0006c170       ??$GetClassPtr@VCGlow@@@@YAPAVCGlow@@PAV0@@Z 1006d170 f i effects.obj
 0001:0006c220       ??$GetClassPtr@VCSprite@@@@YAPAVCSprite@@PAV0@@Z 1006d220 f i effects.obj
 0001:0006c2d0       ??$GetClassPtr@VCGibShooter@@@@YAPAVCGibShooter@@PAV0@@Z 1006d2d0 f i effects.obj
 0001:0006c380       ??$GetClassPtr@VCEnvShooter@@@@YAPAVCEnvShooter@@PAV0@@Z 1006d380 f i effects.obj
 0001:0006c430       ??$GetClassPtr@VCTestEffect@@@@YAPAVCTestEffect@@PAV0@@Z 1006d430 f i effects.obj
 0001:0006c4d0       ??$GetClassPtr@VCBlood@@@@YAPAVCBlood@@PAV0@@Z 1006d4d0 f i effects.obj
 0001:0006c580       ??$GetClassPtr@VCShake@@@@YAPAVCShake@@PAV0@@Z 1006d580 f i effects.obj
 0001:0006c630       ??$GetClassPtr@VCFade@@@@YAPAVCFade@@PAV0@@Z 1006d630 f i effects.obj
 0001:0006c6e0       ??$GetClassPtr@VCMessage@@@@YAPAVCMessage@@PAV0@@Z 1006d6e0 f i effects.obj
 0001:0006c790       ??$GetClassPtr@VCEnvFunnel@@@@YAPAVCEnvFunnel@@PAV0@@Z 1006d790 f i effects.obj
 0001:0006c840       ??$GetClassPtr@VCEnvBeverage@@@@YAPAVCEnvBeverage@@PAV0@@Z 1006d840 f i effects.obj
 0001:0006c8f0       ??$GetClassPtr@VCItemSoda@@@@YAPAVCItemSoda@@PAV0@@Z 1006d8f0 f i effects.obj
 0001:0006c9a0       ??$GetClassPtr@VCEnvMirror@@@@YAPAVCEnvMirror@@PAV0@@Z 1006d9a0 f i effects.obj
 0001:0006ca50       ??$GetClassPtr@VCEnvModelSimple@@@@YAPAVCEnvModelSimple@@PAV0@@Z 1006da50 f i effects.obj
 0001:0006cb00       ??$GetClassPtr@VCEnvModel@@@@YAPAVCEnvModel@@PAV0@@Z 1006db00 f i effects.obj
 0001:0006cbb0       _env_bubbles               1006dbb0 f   effects.obj
 0001:0006cbc0       _beam                      1006dbc0 f   effects.obj
 0001:0006cbd0       ?BeamCreate@CBeam@@SAPAV1@PBDH@Z 1006dbd0 f   effects.obj
 0001:0006cc10       _env_lightning             1006dc10 f   effects.obj
 0001:0006cc20       _env_beam                  1006dc20 f   effects.obj
 0001:0006cc30       ?StrikeUse@CLightning@@QAEXPAVCBaseEntity@@0W4USE_TYPE@@M@Z 1006dc30 f   effects.obj
 0001:0006ccb0       _env_laser                 1006dcb0 f   effects.obj
 0001:0006ccc0       _env_glow                  1006dcc0 f   effects.obj
 0001:0006ccd0       _env_sprite                1006dcd0 f   effects.obj
 0001:0006cce0       ?AnimateThink@CSprite@@QAEXXZ 1006dce0 f   effects.obj
 0001:0006cd40       ?AnimateUntilDead@CSprite@@QAEXXZ 1006dd40 f   effects.obj
 0001:0006cd80       ?TurnOn@CSprite@@QAEXXZ    1006dd80 f   effects.obj
 0001:0006cdf0       ?Use@CSprite@@UAEXPAVCBaseEntity@@0W4USE_TYPE@@M@Z 1006ddf0 f   effects.obj
 0001:0006ce40       _gibshooter                1006de40 f   effects.obj
 0001:0006ce50       ?CreateGib@CGibShooter@@UAEPAVCGib@@XZ 1006de50 f   effects.obj
 0001:0006cee0       _env_shooter               1006dee0 f   effects.obj
 0001:0006cef0       ?CreateGib@CEnvShooter@@EAEPAVCGib@@XZ 1006def0 f   effects.obj
 0001:0006cff0       _test_effect               1006dff0 f   effects.obj
 0001:0006d000       ?TestThink@CTestEffect@@QAEXXZ 1006e000 f   effects.obj
 0001:0006d270       ?Use@CTestEffect@@UAEXPAVCBaseEntity@@0W4USE_TYPE@@M@Z 1006e270 f   effects.obj
 0001:0006d2b0       _env_blood                 1006e2b0 f   effects.obj
 0001:0006d2c0       _env_shake                 1006e2c0 f   effects.obj
 0001:0006d2d0       _env_fade                  1006e2d0 f   effects.obj
 0001:0006d2e0       _env_message               1006e2e0 f   effects.obj
 0001:0006d2f0       _env_funnel                1006e2f0 f   effects.obj
 0001:0006d300       _env_beverage              1006e300 f   effects.obj
 0001:0006d310       _item_sodacan              1006e310 f   effects.obj
 0001:0006d320       ?Spawn@CItemSoda@@UAEXXZ   1006e320 f   effects.obj
 0001:0006d3b0       _env_mirror                1006e3b0 f   effects.obj
 0001:0006d3c0       _env_modelsimple           1006e3c0 f   effects.obj
 0001:0006d3d0       _env_model                 1006e3d0 f   effects.obj
 0001:0006d3e0       ?Spawn@CLightning@@UAEXXZ  1006e3e0 f   effects.obj
 0001:0006d520       ?TurnOn@CLaser@@QAEXXZ     1006e520 f   effects.obj
 0001:0006d570       ?Use@CLaser@@UAEXPAVCBaseEntity@@0W4USE_TYPE@@M@Z 1006e570 f   effects.obj
 0001:0006d5b0       ?Spawn@CSprite@@UAEXXZ     1006e5b0 f   effects.obj
 0001:0006d6a0       ?SpriteCreate@CSprite@@SAPAV1@PBDABVVector@@H@Z 1006e6a0 f   effects.obj
 0001:0006d700       ?Spawn@CLaser@@UAEXXZ      1006e700 f   effects.obj
 0001:0006d870       ?Frames@CSprite@@QAEMXZ    1006e870 f i egon.obj
 0001:0006d880       ?customAttachToPlayer@CEgon@@UAEXPAVCBasePlayer@@@Z 1006e880 f   egon.obj
 0001:0006d8a0       ?Spawn@CEgon@@UAEXXZ       1006e8a0 f   egon.obj
 0001:0006d8f0       ?Precache@CEgon@@UAEXXZ    1006e8f0 f   egon.obj
 0001:0006d9a0       ?Deploy@CEgon@@UAEHXZ      1006e9a0 f   egon.obj
 0001:0006da00       ?AddToPlayer@CEgon@@UAEHPAVCBasePlayer@@@Z 1006ea00 f   egon.obj
 0001:0006da60       ?GetItemInfo@CEgon@@UAEHPAUItemInfo@@@Z 1006ea60 f   egon.obj
 0001:0006dad0       ?GetPulseInterval@CEgon@@QAEMXZ 1006ead0 f   egon.obj
 0001:0006db00       ?GetDischargeInterval@CEgon@@QAEMXZ 1006eb00 f   egon.obj
 0001:0006db30       ?HasAmmo@CEgon@@QAEHXZ     1006eb30 f   egon.obj
 0001:0006db50       ?UseAmmo@CEgon@@QAEXH@Z    1006eb50 f   egon.obj
 0001:0006dbb0       ??0CEgon@@QAE@XZ           1006ebb0 f   egon.obj
 0001:0006dc80       ?iItemSlot@CEgon@@UAEHXZ   1006ec80 f i egon.obj
 0001:0006dc90       ?UseDecrement@CEgon@@UAEHXZ 1006ec90 f i egon.obj
 0001:0006dca0       ?PrimaryAttack@CEgon@@UAEXXZ 1006eca0 f   egon.obj
 0001:0006dcb0       ?PrimaryNotHeld@CEgon@@UAEXXZ 1006ecb0 f   egon.obj
 0001:0006dcc0       ?NeitherHeld@CEgon@@UAEXXZ 1006ecc0 f   egon.obj
 0001:0006dcd0       ?BothHeld@CEgon@@UAEXXZ    1006ecd0 f   egon.obj
 0001:0006dce0       ?SecondaryNotHeld@CEgon@@UAEXXZ 1006ece0 f   egon.obj
 0001:0006dcf0       ?SecondaryAttack@CEgon@@UAEXXZ 1006ecf0 f   egon.obj
 0001:0006dd00       ?ItemPreFrame@CEgon@@UAEXXZ 1006ed00 f   egon.obj
 0001:0006dd10       ?DestroyEffect@CEgon@@QAEXXZ 1006ed10 f   egon.obj
 0001:0006dda0       ?WeaponIdle@CEgon@@UAEXXZ  1006eda0 f   egon.obj
 0001:0006df80       ?EndAttack@CEgon@@QAEXXZ   1006ef80 f   egon.obj
 0001:0006e000       ??$GetClassPtr@VCEgon@@@@YAPAVCEgon@@PAV0@@Z 1006f000 f i egon.obj
 0001:0006e0a0       _weapon_egon               1006f0a0 f   egon.obj
 0001:0006e0b0       ?Holster@CEgon@@UAEXH@Z    1006f0b0 f   egon.obj
 0001:0006e110       ?CreateEffect@CEgon@@QAEXXZ 1006f110 f   egon.obj
 0001:0006e460       ??0CEgonAmmo@@QAE@XZ       1006f460 f i egon.obj
 0001:0006e480       ?Spawn@CEgonAmmo@@EAEXXZ   1006f480 f i egon.obj
 0001:0006e4b0       ?Precache@CEgonAmmo@@EAEXXZ 1006f4b0 f i egon.obj
 0001:0006e4d0       ?AddAmmo@CEgonAmmo@@EAEHPAVCBaseEntity@@@Z 1006f4d0 f i egon.obj
 0001:0006e540       ?UpdateEffect@CEgon@@QAEXABVVector@@0M@Z 1006f540 f   egon.obj
 0001:0006e8c0       ??$GetClassPtr@VCEgonAmmo@@@@YAPAVCEgonAmmo@@PAV0@@Z 1006f8c0 f i egon.obj
 0001:0006e970       ?Fire@CEgon@@QAEXABVVector@@0@Z 1006f970 f   egon.obj
 0001:0006ee30       _ammo_egonclip             1006fe30 f   egon.obj
 0001:0006ee40       ?Attack@CEgon@@QAEXXZ      1006fe40 f   egon.obj
 0001:0006f160       ?ItemPostFrame@CEgon@@UAEXXZ 10070160 f   egon.obj
 0001:0006f540       ?Spawn@CShower@@EAEXXZ     10070540 f   explode.obj
 0001:0006f6e0       ?Think@CShower@@EAEXXZ     100706e0 f   explode.obj
 0001:0006f780       ?Touch@CShower@@EAEXPAVCBaseEntity@@@Z 10070780 f   explode.obj
 0001:0006f800       ?Save@CEnvExplosion@@UAEHAAVCSave@@@Z 10070800 f   explode.obj
 0001:0006f840       ?Restore@CEnvExplosion@@UAEHAAVCRestore@@@Z 10070840 f   explode.obj
 0001:0006f880       ?KeyValue@CEnvExplosion@@UAEXPAUKeyValueData_s@@@Z 10070880 f   explode.obj
 0001:0006f8f0       ?isOrganic@CEnvExplosion@@UAEHXZ 100708f0 f   explode.obj
 0001:0006f900       ?Spawn@CEnvExplosion@@UAEXXZ 10070900 f   explode.obj
 0001:0006f980       ?Smoke@CEnvExplosion@@QAEXXZ 10070980 f   explode.obj
 0001:0006f9b0       ?ExplosionCreate@@YAXABVVector@@0PAUedict_s@@HH@Z 100709b0 f   explode.obj
 0001:0006fa60       ??0CShower@@QAE@XZ         10070a60 f i explode.obj
 0001:0006fa80       ?ObjectCaps@CShower@@EAEHXZ 10070a80 f i explode.obj
 0001:0006fa90       ??0CEnvExplosion@@QAE@XZ   10070a90 f i explode.obj
 0001:0006fab0       ?Use@CEnvExplosion@@UAEXPAVCBaseEntity@@0W4USE_TYPE@@M@Z 10070ab0 f   explode.obj
 0001:0006fd00       ??$GetClassPtr@VCShower@@@@YAPAVCShower@@PAV0@@Z 10070d00 f i explode.obj
 0001:0006fdb0       ??$GetClassPtr@VCEnvExplosion@@@@YAPAVCEnvExplosion@@PAV0@@Z 10070db0 f i explode.obj
 0001:0006fe60       _spark_shower              10070e60 f   explode.obj
 0001:0006fe70       _env_explosion             10070e70 f   explode.obj
 0001:0006fe80       ?TraceAttack@CFlyingMonster@@UAEXPAUentvars_s@@MVVector@@PAUTraceResult@@H@Z 10070e80 f   flyingmonster.obj
 0001:0006fec0       ?TraceAttack@CFlyingMonster@@UAEXPAUentvars_s@@MVVector@@PAUTraceResult@@HH@Z 10070ec0 f   flyingmonster.obj
 0001:0006ff00       ?TraceAttack@CFlyingMonster@@UAEXPAUentvars_s@@MVVector@@PAUTraceResult@@HHH@Z 10070f00 f   flyingmonster.obj
 0001:0006ff40       ?TraceAttack@CFlyingMonster@@UAEXPAUentvars_s@@MVVector@@PAUTraceResult@@HHHPAH@Z 10070f40 f   flyingmonster.obj
 0001:0006ff90       ?TakeDamage@CFlyingMonster@@UAEHPAUentvars_s@@0MH@Z 10070f90 f   flyingmonster.obj
 0001:0006ffc0       ?TakeDamage@CFlyingMonster@@UAEHPAUentvars_s@@0MHH@Z 10070fc0 f   flyingmonster.obj
 0001:0006fff0       ?FTriangulate@CFlyingMonster@@UAEHABVVector@@0MPAVCBaseEntity@@PAV2@@Z 10070ff0 f   flyingmonster.obj
 0001:00070020       ?GetStoppedActivity@CFlyingMonster@@UAE?AW4Activity@@XZ 10071020 f   flyingmonster.obj
 0001:00070040       ?Stop@CFlyingMonster@@UAEXXZ 10071040 f   flyingmonster.obj
 0001:000700a0       ?ChangeYaw@CFlyingMonster@@UAEMH@Z 100710a0 f   flyingmonster.obj
 0001:00070160       ?Killed@CFlyingMonster@@UAEXPAUentvars_s@@0H@Z 10071160 f   flyingmonster.obj
 0001:000701a0       ?HandleAnimEvent@CFlyingMonster@@UAEXPAUMonsterEvent_t@@@Z 100711a0 f   flyingmonster.obj
 0001:00070210       ?Move@CFlyingMonster@@UAEXM@Z 10071210 f   flyingmonster.obj
 0001:00070240       ?ShouldAdvanceRoute@CFlyingMonster@@QAEHM@Z 10071240 f   flyingmonster.obj
 0001:000702f0       ?MoveExecute@CFlyingMonster@@UAEXPAVCBaseEntity@@ABVVector@@M@Z 100712f0 f   flyingmonster.obj
 0001:000705c0       ?CeilingZ@CFlyingMonster@@QAEMABVVector@@@Z 100715c0 f   flyingmonster.obj
 0001:00070640       ?ProbeZ@CFlyingMonster@@QAEHABVVector@@0PAM@Z 10071640 f   flyingmonster.obj
 0001:000707f0       ?FloorZ@CFlyingMonster@@QAEMABVVector@@@Z 100717f0 f   flyingmonster.obj
 0001:00070850       ?CheckLocalMove@CFlyingMonster@@UAEHABVVector@@0PAVCBaseEntity@@PAM@Z 10071850 f   flyingmonster.obj
 0001:00070990       ?Killed@CFlyingMonster@@UAEXPAUentvars_s@@H@Z 10071990 f   flyingmonster.obj
 0001:000709b0       ??1LinkedListTempNode@@QAE@XZ 100719b0 f i friendly.obj
 0001:000709e0       ??_GLinkedListTempNode@@QAEPAXI@Z 100719e0 f i friendly.obj
 0001:00070a20       ??0LinkedListTemp@@QAE@XZ  10071a20 f i friendly.obj
 0001:00070a30       ??1LinkedListTemp@@QAE@XZ  10071a30 f i friendly.obj
 0001:00070a70       ?Save@CFriendly@@UAEHAAVCSave@@@Z 10071a70 f   friendly.obj
 0001:00070ab0       ??0CFriendly@@QAE@XZ       10071ab0 f   friendly.obj
 0001:00070b50       ?ScheduleFromName@CFriendly@@UAEPAUSchedule_t@@PBD@Z 10071b50 f   friendly.obj
 0001:00070b80       ?DeathSound@CFriendly@@UAEXXZ 10071b80 f   friendly.obj
 0001:00070be0       ?AlertSound@CFriendly@@UAEXXZ 10071be0 f   friendly.obj
 0001:00070c40       ?IdleSound@CFriendly@@UAEXXZ 10071c40 f   friendly.obj
 0001:00070ca0       ?PainSound@CFriendly@@UAEXXZ 10071ca0 f   friendly.obj
 0001:00070d10       ?AttackSound@CFriendly@@QAEXXZ 10071d10 f   friendly.obj
 0001:00070d70       ?VomitSound@CFriendly@@QAEXXZ 10071d70 f   friendly.obj
 0001:00070dd0       ?VomitVoiceSound@CFriendly@@QAEXXZ 10071dd0 f   friendly.obj
 0001:00070e30       ?VomitHitSound@CFriendly@@QAEXPAUedict_s@@@Z 10071e30 f   friendly.obj
 0001:00070e80       ?Precache@CFriendly@@UAEXXZ 10071e80 f   friendly.obj
 0001:00070f20       ?GetScheduleOfType@CFriendly@@UAEPAUSchedule_t@@H@Z 10071f20 f   friendly.obj
 0001:00070fc0       ?CheckMeleeAttack1@CFriendly@@UAEHMM@Z 10071fc0 f   friendly.obj
 0001:00071020       ?CheckMeleeAttack2@CFriendly@@UAEHMM@Z 10072020 f   friendly.obj
 0001:00071090       ?CheckRangeAttack1@CFriendly@@UAEHMM@Z 10072090 f   friendly.obj
 0001:00071120       ?CheckRangeAttack2@CFriendly@@UAEHMM@Z 10072120 f   friendly.obj
 0001:00071130       ?CustomTouch@CFriendly@@QAEXPAVCBaseEntity@@@Z 10072130 f   friendly.obj
 0001:000712d0       ?stopHorrorSound@CFriendly@@QAEXXZ 100722d0 f   friendly.obj
 0001:00071330       ?Classify@CFriendly@@UAEHXZ 10072330 f   friendly.obj
 0001:00071340       ?isOrganic@CFriendly@@UAEHXZ 10072340 f   friendly.obj
 0001:00071350       ?IRelationship@CFriendly@@UAEHPAVCBaseEntity@@@Z 10072350 f   friendly.obj
 0001:000713d0       ?ReportAIState@CFriendly@@UAEXXZ 100723d0 f   friendly.obj
 0001:000713e0       ?TraceAttack@CFriendly@@UAEXPAUentvars_s@@MVVector@@PAUTraceResult@@HHHPAH@Z 100723e0 f   friendly.obj
 0001:00071430       ?TakeDamage@CFriendly@@UAEHPAUentvars_s@@0MHH@Z 10072430 f   friendly.obj
 0001:000715a0       ?DeadTakeDamage@CFriendly@@UAEHPAUentvars_s@@0MHH@Z 100725a0 f   friendly.obj
 0001:000715d0       ?SetYawSpeed@CFriendly@@UAEXXZ 100725d0 f   friendly.obj
 0001:00071620       ?getMonsterBlockIdleAutoUpdate@CFriendly@@UAEHXZ 10072620 f   friendly.obj
 0001:00071630       ?forceIdleFrameReset@CFriendly@@UAEHXZ 10072630 f   friendly.obj
 0001:00071640       ?usesAdvancedAnimSystem@CFriendly@@UAEHXZ 10072640 f   friendly.obj
 0001:00071650       ?SetActivity@CFriendly@@UAEXW4Activity@@@Z 10072650 f   friendly.obj
 0001:00071660       ?LookupActivityHard@CFriendly@@UAEHH@Z 10072660 f   friendly.obj
 0001:00071820       ?tryActivitySubstitute@CFriendly@@UAEHH@Z 10072820 f   friendly.obj
 0001:000718b0       ?HandleEventQueueEvent@CFriendly@@UAEXH@Z 100728b0 f   friendly.obj
 0001:00071db0       ?HandleAnimEvent@CFriendly@@UAEXPAUMonsterEvent_t@@@Z 10072db0 f   friendly.obj
 0001:00071dc0       ?getNearestDeadBody@CFriendly@@QAEPAVCBaseEntity@@XZ 10072dc0 f   friendly.obj
 0001:00072270       ?attemptAddToShieldSapList@CFriendly@@QAEXPAVCBaseEntity@@@Z 10073270 f   friendly.obj
 0001:00072280       ?unlinkShieldSapList@CFriendly@@QAEXXZ 10073280 f   friendly.obj
 0001:00072290       ?isProvokable@CFriendly@@UAEHXZ 10073290 f   friendly.obj
 0001:000722a0       ?isProvoked@CFriendly@@UAEHXZ 100732a0 f   friendly.obj
 0001:000722c0       ??$GetClassPtr@VCFriendly@@@@YAPAVCFriendly@@PAV0@@Z 100732c0 f i friendly.obj
 0001:00072360       ?Restore@CFriendly@@UAEHAAVCRestore@@@Z 10073360 f   friendly.obj
 0001:000723a0       _monster_friendly          100733a0 f   friendly.obj
 0001:000723b0       _friendly                  100733b0 f   friendly.obj
 0001:000723c0       _mrfriendly                100733c0 f   friendly.obj
 0001:000723d0       ?Spawn@CFriendly@@UAEXXZ   100733d0 f   friendly.obj
 0001:000724f0       ?GetSchedule@CFriendly@@UAEPAUSchedule_t@@XZ 100734f0 f   friendly.obj
 0001:000728c0       ?RunTask@CFriendly@@UAEXPAUTask_t@@@Z 100738c0 f   friendly.obj
 0001:00072e00       ?MonsterThink@CFriendly@@UAEXXZ 10073e00 f   friendly.obj
 0001:000732a0       ?TraceAttack@CFriendly@@UAEXPAUentvars_s@@MVVector@@PAUTraceResult@@H@Z 100742a0 f   friendly.obj
 0001:000732e0       ?TraceAttack@CFriendly@@UAEXPAUentvars_s@@MVVector@@PAUTraceResult@@HH@Z 100742e0 f   friendly.obj
 0001:00073320       ?TraceAttack@CFriendly@@UAEXPAUentvars_s@@MVVector@@PAUTraceResult@@HHH@Z 10074320 f   friendly.obj
 0001:00073360       ?TakeDamage@CFriendly@@UAEHPAUentvars_s@@0MH@Z 10074360 f   friendly.obj
 0001:00073390       ?DeadTakeDamage@CFriendly@@UAEHPAUentvars_s@@0MH@Z 10074390 f   friendly.obj
 0001:000733c0       ?Killed@CFriendly@@UAEXPAUentvars_s@@0H@Z 100743c0 f   friendly.obj
 0001:000734d0       ?friendly_findCoverFromPlayer@CFriendly@@QAEXPAUentvars_s@@M@Z 100744d0 f   friendly.obj
 0001:00073610       ?StartTask@CFriendly@@UAEXPAUTask_t@@@Z 10074610 f   friendly.obj
 0001:00073a50       ?Killed@CFriendly@@UAEXPAUentvars_s@@H@Z 10074a50 f   friendly.obj
 0001:00073a70       ?ExplosionMagnitude@CBreakable@@QAEHXZ 10074a70 f i func_break.obj
 0001:00073a80       ?ExplosionSetMagnitude@CBreakable@@QAEXH@Z 10074a80 f i func_break.obj
 0001:00073aa0       ?KeyValue@CBreakable@@UAEXPAUKeyValueData_s@@@Z 10074aa0 f   func_break.obj
 0001:00073cc0       ?IsWorldAffiliated@CBreakable@@UAEHXZ 10074cc0 f   func_break.obj
 0001:00073cd0       ?Save@CBreakable@@UAEHAAVCSave@@@Z 10074cd0 f   func_break.obj
 0001:00073d10       ?Restore@CBreakable@@UAEHAAVCRestore@@@Z 10074d10 f   func_break.obj
 0001:00073d50       ?MaterialSoundList@CBreakable@@SAPAPBDW4Materials@@AAH@Z 10074d50 f   func_break.obj
 0001:00073de0       ?MaterialSoundPrecache@CBreakable@@SAXW4Materials@@@Z 10074de0 f   func_break.obj
 0001:00073e20       ?MaterialSoundRandom@CBreakable@@SAXPAUedict_s@@W4Materials@@M@Z 10074e20 f   func_break.obj
 0001:00073e80       ?Precache@CBreakable@@UAEXXZ 10074e80 f   func_break.obj
 0001:00074030       ?DamageSound@CBreakable@@QAEXXZ 10075030 f   func_break.obj
 0001:000741d0       ?TraceAttack@CBreakable@@UAEXPAUentvars_s@@MVVector@@PAUTraceResult@@HHHPAH@Z 100751d0 f   func_break.obj
 0001:00074300       ?IsBreakable@CBreakable@@UAEHXZ 10075300 f   func_break.obj
 0001:00074310       ?isBreakableOrchild@CBreakable@@UAEHXZ 10075310 f   func_break.obj
 0001:00074320       ?isDestructibleInanimate@CBreakable@@UAEHXZ 10075320 f   func_break.obj
 0001:00074340       ?DamageDecal@CBreakable@@UAEHH@Z 10075340 f   func_break.obj
 0001:00074360       ?DamageDecal@CBreakable@@UAEHHH@Z 10075360 f   func_break.obj
 0001:000743a0       ?MaxSpeed@CPushable@@QAEMXZ 100753a0 f i func_break.obj
 0001:000743b0       ?Save@CPushable@@UAEHAAVCSave@@@Z 100753b0 f   func_break.obj
 0001:000743f0       ?Restore@CPushable@@UAEHAAVCRestore@@@Z 100753f0 f   func_break.obj
 0001:00074430       ?Precache@CPushable@@UAEXXZ 10075430 f   func_break.obj
 0001:00074470       ?KeyValue@CPushable@@UAEXPAUKeyValueData_s@@@Z 10075470 f   func_break.obj
 0001:00074660       ?Move@CPushable@@QAEXPAVCBaseEntity@@H@Z 10075660 f   func_break.obj
 0001:00074880       ?TraceAttack@CPushable@@UAEXPAUentvars_s@@MVVector@@PAUTraceResult@@HHHPAH@Z 10075880 f   func_break.obj
 0001:000748d0       ?IsBreakable@CPushable@@UAEHXZ 100758d0 f   func_break.obj
 0001:000748f0       ?isBreakableOrchild@CPushable@@UAEHXZ 100758f0 f   func_break.obj
 0001:00074900       ?isDestructibleInanimate@CPushable@@UAEHXZ 10075900 f   func_break.obj
 0001:00074930       ?Explodable@CBreakable@@QAEHXZ 10075930 f i func_break.obj
 0001:00074950       ??0CBreakable@@QAE@XZ      10075950 f   func_break.obj
 0001:00074970       ?ObjectCaps@CBreakable@@UAEHXZ 10075970 f i func_break.obj
 0001:00074980       ?TraceAttack@CBreakable@@UAEXPAUentvars_s@@MVVector@@PAUTraceResult@@H@Z 10075980 f   func_break.obj
 0001:000749c0       ?TraceAttack@CBreakable@@UAEXPAUentvars_s@@MVVector@@PAUTraceResult@@HH@Z 100759c0 f   func_break.obj
 0001:00074a00       ?TraceAttack@CBreakable@@UAEXPAUentvars_s@@MVVector@@PAUTraceResult@@HHH@Z 10075a00 f   func_break.obj
 0001:00074a40       ?Die@CBreakable@@QAEXXZ    10075a40 f   func_break.obj
 0001:000750b0       ?Touch@CPushable@@UAEXPAVCBaseEntity@@@Z 100760b0 f   func_break.obj
 0001:00075110       ?TraceAttack@CPushable@@UAEXPAUentvars_s@@MVVector@@PAUTraceResult@@H@Z 10076110 f   func_break.obj
 0001:00075150       ?TraceAttack@CPushable@@UAEXPAUentvars_s@@MVVector@@PAUTraceResult@@HH@Z 10076150 f   func_break.obj
 0001:00075190       ?TraceAttack@CPushable@@UAEXPAUentvars_s@@MVVector@@PAUTraceResult@@HHH@Z 10076190 f   func_break.obj
 0001:000751d0       ??$GetClassPtr@VCBreakable@@@@YAPAVCBreakable@@PAV0@@Z 100761d0 f i func_break.obj
 0001:00075270       ??0CPushable@@QAE@XZ       10076270 f i func_break.obj
 0001:00075290       ?ObjectCaps@CPushable@@UAEHXZ 10076290 f i func_break.obj
 0001:000752a0       _func_breakable            100762a0 f   func_break.obj
 0001:000752b0       ?BreakTouch@CBreakable@@QAEXPAVCBaseEntity@@@Z 100762b0 f   func_break.obj
 0001:00075410       ?Use@CBreakable@@UAEXPAVCBaseEntity@@0W4USE_TYPE@@M@Z 10076410 f   func_break.obj
 0001:00075470       ?TakeDamage@CBreakable@@UAEHPAUentvars_s@@0MHH@Z 10076470 f   func_break.obj
 0001:00075650       ?Use@CPushable@@UAEXPAVCBaseEntity@@0W4USE_TYPE@@M@Z 10076650 f   func_break.obj
 0001:000756c0       ?TakeDamage@CPushable@@UAEHPAUentvars_s@@0MHH@Z 100766c0 f   func_break.obj
 0001:00075710       ??$GetClassPtr@VCPushable@@@@YAPAVCPushable@@PAV0@@Z 10076710 f i func_break.obj
 0001:000757c0       ?Spawn@CBreakable@@UAEXXZ  100767c0 f   func_break.obj
 0001:00075890       ?TakeDamage@CBreakable@@UAEHPAUentvars_s@@0MH@Z 10076890 f   func_break.obj
 0001:000758c0       _func_pushable             100768c0 f   func_break.obj
 0001:000758d0       ?Spawn@CPushable@@UAEXXZ   100768d0 f   func_break.obj
 0001:00075a00       ?TakeDamage@CPushable@@UAEHPAUentvars_s@@0MH@Z 10076a00 f   func_break.obj
 0001:00075a30       _atan2f                    10076a30 f i func_tank.obj
 0001:00075a50       ?atan2@@YAMMM@Z            10076a50 f i func_tank.obj
 0001:00075a70       ?AnimateAndDie@CSprite@@QAEXM@Z 10076a70 f i func_tank.obj
 0001:00075ac0       ?IsActive@CFuncTank@@QAEHXZ 10076ac0 f i func_tank.obj
 0001:00075ad0       ?TankActivate@CFuncTank@@QAEXXZ 10076ad0 f i func_tank.obj
 0001:00075b00       ?CanFire@CFuncTank@@QAEHXZ 10076b00 f i func_tank.obj
 0001:00075b30       ?BarrelPosition@CFuncTank@@QAE?AVVector@@XZ 10076b30 f i func_tank.obj
 0001:00075c30       ?Save@CFuncTank@@UAEHAAVCSave@@@Z 10076c30 f   func_tank.obj
 0001:00075c70       ?Restore@CFuncTank@@UAEHAAVCRestore@@@Z 10076c70 f   func_tank.obj
 0001:00075cb0       ?Spawn@CFuncTank@@UAEXXZ   10076cb0 f   func_tank.obj
 0001:00075da0       ?Precache@CFuncTank@@UAEXXZ 10076da0 f   func_tank.obj
 0001:00075e10       ?KeyValue@CFuncTank@@UAEXPAUKeyValueData_s@@@Z 10076e10 f   func_tank.obj
 0001:000762b0       ?IsWorldAffiliated@CFuncTank@@UAEHXZ 100772b0 f   func_tank.obj
 0001:000762c0       ?OnControls@CFuncTank@@UAEHPAUentvars_s@@@Z 100772c0 f   func_tank.obj
 0001:00076350       ?StartControl@CFuncTank@@QAEHPAVCBasePlayer@@@Z 10077350 f   func_tank.obj
 0001:00076430       ?StopControl@CFuncTank@@QAEXXZ 10077430 f   func_tank.obj
 0001:000764b0       ?ControllerPostFrame@CFuncTank@@QAEXXZ 100774b0 f   func_tank.obj
 0001:00076590       ?FindTarget@CFuncTank@@QAEPAUedict_s@@PAU2@@Z 10077590 f   func_tank.obj
 0001:000765a0       ?InRange@CFuncTank@@QAEHM@Z 100775a0 f   func_tank.obj
 0001:000765f0       ?AdjustAnglesForBarrel@CFuncTank@@QAEXAAVVector@@M@Z 100775f0 f   func_tank.obj
 0001:00076710       ?Fire@CFuncTank@@UAEXABVVector@@0PAUentvars_s@@@Z 10077710 f   func_tank.obj
 0001:00076990       ?TankTrace@CFuncTank@@QAEXABVVector@@00AAUTraceResult@@@Z 10077990 f   func_tank.obj
 0001:00076b50       ?StartRotSound@CFuncTank@@QAEXXZ 10077b50 f   func_tank.obj
 0001:00076bc0       ?StopRotSound@CFuncTank@@QAEXXZ 10077bc0 f   func_tank.obj
 0001:00076c20       ?Fire@CFuncTankGun@@UAEXABVVector@@0PAUentvars_s@@@Z 10077c20 f   func_tank.obj
 0001:00076d70       ?Save@CFuncTankLaser@@UAEHAAVCSave@@@Z 10077d70 f   func_tank.obj
 0001:00076db0       ?Restore@CFuncTankLaser@@UAEHAAVCRestore@@@Z 10077db0 f   func_tank.obj
 0001:00076df0       ?KeyValue@CFuncTankLaser@@UAEXPAUKeyValueData_s@@@Z 10077df0 f   func_tank.obj
 0001:00076e60       ?GetLaser@CFuncTankLaser@@QAEPAVCLaser@@XZ 10077e60 f   func_tank.obj
 0001:00076f20       ?Fire@CFuncTankLaser@@UAEXABVVector@@0PAUentvars_s@@@Z 10077f20 f   func_tank.obj
 0001:00077060       ?Precache@CFuncTankRocket@@UAEXXZ 10078060 f   func_tank.obj
 0001:00077080       ?Fire@CFuncTankRocket@@UAEXABVVector@@0PAUentvars_s@@@Z 10078080 f   func_tank.obj
 0001:00077110       ?KeyValue@CFuncTankMortar@@UAEXPAUKeyValueData_s@@@Z 10078110 f   func_tank.obj
 0001:00077180       ?Fire@CFuncTankMortar@@UAEXABVVector@@0PAUentvars_s@@@Z 10078180 f   func_tank.obj
 0001:00077250       ?Save@CFuncTankControls@@UAEHAAVCSave@@@Z 10078250 f   func_tank.obj
 0001:00077290       ?Restore@CFuncTankControls@@UAEHAAVCRestore@@@Z 10078290 f   func_tank.obj
 0001:000772d0       ?ObjectCaps@CFuncTankControls@@UAEHXZ 100782d0 f   func_tank.obj
 0001:000772e0       ?Use@CFuncTankControls@@UAEXPAVCBaseEntity@@0W4USE_TYPE@@M@Z 100782e0 f   func_tank.obj
 0001:00077320       ?IsWorldAffiliated@CFuncTankControls@@UAEHXZ 10078320 f   func_tank.obj
 0001:00077330       ?Think@CFuncTankControls@@UAEXXZ 10078330 f   func_tank.obj
 0001:000773f0       ?Spawn@CFuncTankControls@@UAEXXZ 100783f0 f   func_tank.obj
 0001:000774a0       ??0CFuncTankControls@@QAE@XZ 100784a0 f i func_tank.obj
 0001:000774c0       ??0CFuncTank@@QAE@XZ       100784c0 f i func_tank.obj
 0001:000774e0       ?UpdateTargetPosition@CFuncTank@@UAE?AVVector@@PAVCBaseEntity@@@Z 100784e0 f i func_tank.obj
 0001:00077510       ?ObjectCaps@CFuncTank@@UAEHXZ 10078510 f i func_tank.obj
 0001:00077520       ?TankDeactivate@CFuncTank@@QAEXXZ 10078520 f i func_tank.obj
 0001:00077540       ?Use@CFuncTank@@UAEXPAVCBaseEntity@@0W4USE_TYPE@@M@Z 10078540 f   func_tank.obj
 0001:00077630       ?TrackTarget@CFuncTank@@QAEXXZ 10078630 f   func_tank.obj
 0001:00077bf0       ?Activate@CFuncTankLaser@@UAEXXZ 10078bf0 f   func_tank.obj
 0001:00077c20       ??$GetClassPtr@VCFuncTankControls@@@@YAPAVCFuncTankControls@@PAV0@@Z 10078c20 f i func_tank.obj
 0001:00077cd0       ??0CFuncTankGun@@QAE@XZ    10078cd0 f i func_tank.obj
 0001:00077cf0       ??0CFuncTankLaser@@QAE@XZ  10078cf0 f i func_tank.obj
 0001:00077d10       ??0CFuncTankRocket@@QAE@XZ 10078d10 f i func_tank.obj
 0001:00077d30       ??0CFuncTankMortar@@QAE@XZ 10078d30 f i func_tank.obj
 0001:00077d50       ?Think@CFuncTank@@UAEXXZ   10078d50 f   func_tank.obj
 0001:00077dd0       ?Think@CFuncTankLaser@@UAEXXZ 10078dd0 f   func_tank.obj
 0001:00077e00       _func_tankcontrols         10078e00 f   func_tank.obj
 0001:00077e10       ??$GetClassPtr@VCFuncTankGun@@@@YAPAVCFuncTankGun@@PAV0@@Z 10078e10 f i func_tank.obj
 0001:00077ec0       ??$GetClassPtr@VCFuncTankLaser@@@@YAPAVCFuncTankLaser@@PAV0@@Z 10078ec0 f i func_tank.obj
 0001:00077f70       ??$GetClassPtr@VCFuncTankRocket@@@@YAPAVCFuncTankRocket@@PAV0@@Z 10078f70 f i func_tank.obj
 0001:00078020       ??$GetClassPtr@VCFuncTankMortar@@@@YAPAVCFuncTankMortar@@PAV0@@Z 10079020 f i func_tank.obj
 0001:000780d0       _func_tank                 100790d0 f   func_tank.obj
 0001:000780e0       _func_tanklaser            100790e0 f   func_tank.obj
 0001:000780f0       _func_tankrocket           100790f0 f   func_tank.obj
 0001:00078100       _func_tankmortar           10079100 f   func_tank.obj
 0001:00078110       ?writeDateInfo@@YAXPADH@Z  10079110 f   game.obj
 0001:00078190       ?getDate@@YAXPAD@Z         10079190 f   game.obj
 0001:000781e0       ?determineVisualStudioVersion@@YAPBDXZ 100791e0 f   game.obj
 0001:000781f0       ?writeVersionInfo@@YAXPADH@Z 100791f0 f   game.obj
 0001:000782b0       ?GameDLLInit@@YAXXZ        100792b0 f   game.obj
 0001:000791d0       ?pszAmmo1@CBasePlayerItem@@QAEPBDXZ 1007a1d0 f i gamerules.obj
 0001:000791e0       ?iMaxAmmo1@CBasePlayerItem@@QAEHXZ 1007a1e0 f i gamerules.obj
 0001:000791f0       ?CanHaveAmmo@CGameRules@@UAEHPAVCBasePlayer@@PBDH@Z 1007a1f0 f   gamerules.obj
 0001:00079230       ?GetPlayerSpawnSpot@CGameRules@@UAEPAUedict_s@@PAVCBasePlayer@@@Z 1007a230 f   gamerules.obj
 0001:00079320       ?CanHavePlayerItem@CGameRules@@UAEHPAVCBasePlayer@@PAVCBasePlayerItem@@@Z 1007a320 f   gamerules.obj
 0001:000793a0       ?CanHavePlayerItem@CGameRules@@UAEHPAVCBasePlayer@@PBD1HH@Z 1007a3a0 f   gamerules.obj
 0001:00079400       ?RefreshSkillData@CGameRules@@UAEXXZ 1007a400 f   gamerules.obj
 0001:00079a90       ?InstallGameRules@@YAPAVCGameRules@@XZ 1007aa90 f   gamerules.obj
 0001:00079bd0       ??0CStomp@@QAE@XZ          1007abd0 f   gargantua.obj
 0001:00079bf0       ?usesSoundSentenceSave@CStomp@@UAEHXZ 1007abf0 f   gargantua.obj
 0001:00079c00       ?Spawn@CStomp@@UAEXXZ      1007ac00 f   gargantua.obj
 0001:00079cb0       ?StreakSplash@@YAXABVVector@@0HHHH@Z 1007acb0 f   gargantua.obj
 0001:00079d50       ?FlameIsOn@CGargantua@@QAEHXZ 1007ad50 f i gargantua.obj
 0001:00079d60       ?Save@CGargantua@@UAEHAAVCSave@@@Z 1007ad60 f   gargantua.obj
 0001:00079da0       ?Restore@CGargantua@@UAEHAAVCRestore@@@Z 1007ada0 f   gargantua.obj
 0001:00079de0       ?ScheduleFromName@CGargantua@@UAEPAUSchedule_t@@PBD@Z 1007ade0 f   gargantua.obj
 0001:00079e10       ?DeathSound@CGargantua@@UAEXXZ 1007ae10 f   gargantua.obj
 0001:00079eb0       ?IRelationship@CGargantua@@UAEHPAVCBaseEntity@@@Z 1007aeb0 f   gargantua.obj
 0001:00079f10       ?MonsterThink@CGargantua@@UAEXXZ 1007af10 f   gargantua.obj
 0001:0007a180       ?EyeOn@CGargantua@@QAEXH@Z 1007b180 f   gargantua.obj
 0001:0007a190       ?EyeOff@CGargantua@@QAEXXZ 1007b190 f   gargantua.obj
 0001:0007a1a0       ?EyeUpdate@CGargantua@@QAEXXZ 1007b1a0 f   gargantua.obj
 0001:0007a250       ?FlameCreate@CGargantua@@QAEXXZ 1007b250 f   gargantua.obj
 0001:0007a490       ?FlameControls@CGargantua@@QAEXMM@Z 1007b490 f   gargantua.obj
 0001:0007a580       ?FlameDamage@CGargantua@@QAEXVVector@@0PAUentvars_s@@1MHH@Z 1007b580 f   gargantua.obj
 0001:0007a8f0       ?FlameDestroy@CGargantua@@QAEXXZ 1007b8f0 f   gargantua.obj
 0001:0007a950       ?PrescheduleThink@CGargantua@@UAEXXZ 1007b950 f   gargantua.obj
 0001:0007a990       ?Classify@CGargantua@@UAEHXZ 1007b990 f   gargantua.obj
 0001:0007a9a0       ?SetYawSpeed@CGargantua@@UAEXXZ 1007b9a0 f   gargantua.obj
 0001:0007aa10       ??0CGargantua@@QAE@XZ      1007ba10 f   gargantua.obj
 0001:0007aa40       ?SetObjectCollisionBox@CGargantua@@UAEXXZ 1007ba40 f i gargantua.obj
 0001:0007aae0       ?Spawn@CGargantua@@UAEXXZ  1007bae0 f   gargantua.obj
 0001:0007ac90       ?Precache@CGargantua@@UAEXXZ 1007bc90 f   gargantua.obj
 0001:0007ae50       ?TraceAttack@CGargantua@@UAEXPAUentvars_s@@MVVector@@PAUTraceResult@@HHHPAH@Z 1007be50 f   gargantua.obj
 0001:0007b0b0       ?isSizeGiant@CGargantua@@UAEHXZ 1007c0b0 f   gargantua.obj
 0001:0007b0c0       ?TakeDamage@CGargantua@@UAEHPAUentvars_s@@0MHH@Z 1007c0c0 f   gargantua.obj
 0001:0007b1f0       ?Killed@CGargantua@@UAEXPAUentvars_s@@0H@Z 1007c1f0 f   gargantua.obj
 0001:0007b320       ?CheckMeleeAttack1@CGargantua@@UAEHMM@Z 1007c320 f   gargantua.obj
 0001:0007b360       ?CheckMeleeAttack2@CGargantua@@UAEHMM@Z 1007c360 f   gargantua.obj
 0001:0007b3c0       ?CheckRangeAttack1@CGargantua@@UAEHMM@Z 1007c3c0 f   gargantua.obj
 0001:0007b410       ?GargantuaCheckTraceHullAttack@CGargantua@@AAEPAVCBaseEntity@@MHHH@Z 1007c410 f   gargantua.obj
 0001:0007b560       ?GetScheduleOfType@CGargantua@@UAEPAUSchedule_t@@H@Z 1007c560 f   gargantua.obj
 0001:0007b5b0       ?Spawn@CSmoker@@UAEXXZ     1007c5b0 f   gargantua.obj
 0001:0007b620       ?Think@CSmoker@@UAEXXZ     1007c620 f   gargantua.obj
 0001:0007b790       ?Spawn@CSpiral@@UAEXXZ     1007c790 f   gargantua.obj
 0001:0007b800       ?Think@CSpiral@@UAEXXZ     1007c800 f   gargantua.obj
 0001:0007b9c0       ?SpawnExplosion@@YAXVVector@@MMH@Z 1007c9c0 f   gargantua.obj
 0001:0007bac0       ??$GetClassPtr@VCStomp@@@@YAPAVCStomp@@PAV0@@Z 1007cac0 f i gargantua.obj
 0001:0007bb60       ??$GetClassPtr@VCGargantua@@@@YAPAVCGargantua@@PAV0@@Z 1007cb60 f i gargantua.obj
 0001:0007bc00       ??0CSpiral@@QAE@XZ         1007cc00 f i gargantua.obj
 0001:0007bc20       ?ObjectCaps@CSpiral@@UAEHXZ 1007cc20 f i gargantua.obj
 0001:0007bc30       ??0CSmoker@@QAE@XZ         1007cc30 f i gargantua.obj
 0001:0007bc50       _garg_stomp                1007cc50 f   gargantua.obj
 0001:0007bc60       ?StompCreate@CStomp@@SAPAV1@ABVVector@@0M@Z 1007cc60 f   gargantua.obj
 0001:0007bd20       ?Think@CStomp@@UAEXXZ      1007cd20 f   gargantua.obj
 0001:0007c130       _monster_gargantua         1007d130 f   gargantua.obj
 0001:0007c140       _gargantua                 1007d140 f   gargantua.obj
 0001:0007c150       _alien_gargantua           1007d150 f   gargantua.obj
 0001:0007c160       _monster_alien_gargantua   1007d160 f   gargantua.obj
 0001:0007c170       _agargantua                1007d170 f   gargantua.obj
 0001:0007c180       ?StompAttack@CGargantua@@QAEXXZ 1007d180 f   gargantua.obj
 0001:0007c360       ?FlameUpdate@CGargantua@@QAEXXZ 1007d360 f   gargantua.obj
 0001:0007c680       ?TraceAttack@CGargantua@@UAEXPAUentvars_s@@MVVector@@PAUTraceResult@@H@Z 1007d680 f   gargantua.obj
 0001:0007c6c0       ?TraceAttack@CGargantua@@UAEXPAUentvars_s@@MVVector@@PAUTraceResult@@HH@Z 1007d6c0 f   gargantua.obj
 0001:0007c700       ?TraceAttack@CGargantua@@UAEXPAUentvars_s@@MVVector@@PAUTraceResult@@HHH@Z 1007d700 f   gargantua.obj
 0001:0007c740       ?TakeDamage@CGargantua@@UAEHPAUentvars_s@@0MH@Z 1007d740 f   gargantua.obj
 0001:0007c770       ?Killed@CGargantua@@UAEXPAUentvars_s@@H@Z 1007d770 f   gargantua.obj
 0001:0007c790       ?HandleAnimEvent@CGargantua@@UAEXPAUMonsterEvent_t@@@Z 1007d790 f   gargantua.obj
 0001:0007ca60       ?GargantuaCheckTraceHullAttack@CGargantua@@AAEPAVCBaseEntity@@MHH@Z 1007da60 f   gargantua.obj
 0001:0007ca80       ??$GetClassPtr@VCSpiral@@@@YAPAVCSpiral@@PAV0@@Z 1007da80 f i gargantua.obj
 0001:0007cb30       ??$GetClassPtr@VCSmoker@@@@YAPAVCSmoker@@PAV0@@Z 1007db30 f i gargantua.obj
 0001:0007cbe0       _streak_spiral             1007dbe0 f   gargantua.obj
 0001:0007cbf0       ?RunTask@CGargantua@@UAEXPAUTask_t@@@Z 1007dbf0 f   gargantua.obj
 0001:0007d620       _env_smoker                1007e620 f   gargantua.obj
 0001:0007d630       ?Create@CSpiral@@SAPAV1@ABVVector@@MMM@Z 1007e630 f   gargantua.obj
 0001:0007d6e0       ?DeathEffect@CGargantua@@QAEXXZ 1007e6e0 f   gargantua.obj
 0001:0007d870       ?StartTask@CGargantua@@UAEXPAUTask_t@@@Z 1007e870 f   gargantua.obj
 0001:0007da50       ?GetFullChargeTime@CGauss@@QAEMXZ 1007ea50 f   gauss.obj
 0001:0007daa0       ?customAttachToPlayer@CGauss@@UAEXPAVCBasePlayer@@@Z 1007eaa0 f   gauss.obj
 0001:0007dad0       ?Spawn@CGauss@@UAEXXZ      1007ead0 f   gauss.obj
 0001:0007db20       ?Precache@CGauss@@UAEXXZ   1007eb20 f   gauss.obj
 0001:0007dbf0       ?AddToPlayer@CGauss@@UAEHPAVCBasePlayer@@@Z 1007ebf0 f   gauss.obj
 0001:0007dc50       ?GetItemInfo@CGauss@@UAEHPAUItemInfo@@@Z 1007ec50 f   gauss.obj
 0001:0007dcc0       ?Deploy@CGauss@@UAEHXZ     1007ecc0 f   gauss.obj
 0001:0007dd00       ?Holster@CGauss@@UAEXH@Z   1007ed00 f   gauss.obj
 0001:0007dda0       ?ItemPreFrame@CGauss@@UAEXXZ 1007eda0 f   gauss.obj
 0001:0007ddb0       ?ItemPostFrame@CGauss@@UAEXXZ 1007edb0 f   gauss.obj
 0001:0007de10       ?postChargeAnimCheck@CGauss@@QAEXXZ 1007ee10 f   gauss.obj
 0001:0007e040       ??0CGauss@@QAE@XZ          1007f040 f i gauss.obj
 0001:0007e060       ?iItemSlot@CGauss@@UAEHXZ  1007f060 f i gauss.obj
 0001:0007e070       ?UseDecrement@CGauss@@UAEHXZ 1007f070 f i gauss.obj
 0001:0007e080       ?Fire@CGauss@@QAEXVVector@@0M@Z 1007f080 f   gauss.obj
 0001:0007e850       ??$GetClassPtr@VCGauss@@@@YAPAVCGauss@@PAV0@@Z 1007f850 f i gauss.obj
 0001:0007e900       ??0CGaussAmmo@@QAE@XZ      1007f900 f i gauss.obj
 0001:0007e920       ?Spawn@CGaussAmmo@@EAEXXZ  1007f920 f i gauss.obj
 0001:0007e950       ?Precache@CGaussAmmo@@EAEXXZ 1007f950 f i gauss.obj
 0001:0007e970       ?AddAmmo@CGaussAmmo@@EAEHPAVCBaseEntity@@@Z 1007f970 f i gauss.obj
 0001:0007e9e0       _weapon_gauss              1007f9e0 f   gauss.obj
 0001:0007e9f0       ?StartFire@CGauss@@QAEXXZ  1007f9f0 f   gauss.obj
 0001:0007ec60       ??$GetClassPtr@VCGaussAmmo@@@@YAPAVCGaussAmmo@@PAV0@@Z 1007fc60 f i gauss.obj
 0001:0007ed10       ?attemptFirePrimary@CGauss@@QAEXXZ 1007fd10 f   gauss.obj
 0001:0007ee60       ?StartFireDecision@CGauss@@QAEXXZ 1007fe60 f   gauss.obj
 0001:0007eed0       ?WeaponIdle@CGauss@@UAEXXZ 1007fed0 f   gauss.obj
 0001:0007f170       _ammo_gaussclip            10080170 f   gauss.obj
 0001:0007f180       ?chargeWork@CGauss@@QAEXXZ 10080180 f   gauss.obj
 0001:0007f680       ?PrimaryAttack@CGauss@@UAEXXZ 10080680 f   gauss.obj
 0001:0007f750       ?SecondaryAttack@CGauss@@UAEXXZ 10080750 f   gauss.obj
 0001:0007f770       ?Classify@CGenericMonster@@UAEHXZ 10080770 f   genericmonster.obj
 0001:0007f780       ?SetYawSpeed@CGenericMonster@@UAEXXZ 10080780 f   genericmonster.obj
 0001:0007f790       ?HandleAnimEvent@CGenericMonster@@UAEXPAUMonsterEvent_t@@@Z 10080790 f   genericmonster.obj
 0001:0007f7a0       ?ISoundMask@CGenericMonster@@UAEHXZ 100807a0 f   genericmonster.obj
 0001:0007f7b0       ?Spawn@CGenericMonster@@UAEXXZ 100807b0 f   genericmonster.obj
 0001:0007f940       ?Precache@CGenericMonster@@UAEXXZ 10080940 f   genericmonster.obj
 0001:0007f960       ??0CGenericMonster@@QAE@XZ 10080960 f i genericmonster.obj
 0001:0007f980       ??$GetClassPtr@VCGenericMonster@@@@YAPAVCGenericMonster@@PAV0@@Z 10080980 f i genericmonster.obj
 0001:0007fa30       _monster_generic           10080a30 f   genericmonster.obj
 0001:0007fa40       ?FIND_ENTITY_BY_CLASSNAME@@YAPAUedict_s@@PAU1@PBD@Z 10080a40 f i ggrenade.obj
 0001:0007fa60       ?TraceAttack@CGrenade@@UAEXPAUentvars_s@@MVVector@@PAUTraceResult@@HHHPAH@Z 10080a60 f   ggrenade.obj
 0001:0007fab0       ?TakeDamage@CGrenade@@UAEHPAUentvars_s@@0MHH@Z 10080ab0 f   ggrenade.obj
 0001:0007fae0       ?Smoke@CGrenade@@QAEXXZ    10080ae0 f   ggrenade.obj
 0001:0007fb90       ?isOrganic@CGrenade@@UAEHXZ 10080b90 f   ggrenade.obj
 0001:0007fba0       ?DangerSoundThink@CGrenade@@QAEXXZ 10080ba0 f   ggrenade.obj
 0001:0007fcc0       ?SlideTouch@CGrenade@@QAEXPAVCBaseEntity@@@Z 10080cc0 f   ggrenade.obj
 0001:0007fd30       ?BounceSound@CGrenade@@UAEXXZ 10080d30 f   ggrenade.obj
 0001:0007fea0       ?Spawn@CGrenade@@UAEXXZ    10080ea0 f   ggrenade.obj
 0001:0007ff40       ?UseSatchelCharges@CGrenade@@SAXPAUentvars_s@@W4SATCHELCODE@1@@Z 10080f40 f   ggrenade.obj
 0001:00080000       ?TraceAttack@CGrenade@@UAEXPAUentvars_s@@MVVector@@PAUTraceResult@@H@Z 10081000 f   ggrenade.obj
 0001:00080040       ?TraceAttack@CGrenade@@UAEXPAUentvars_s@@MVVector@@PAUTraceResult@@HH@Z 10081040 f   ggrenade.obj
 0001:00080080       ?TraceAttack@CGrenade@@UAEXPAUentvars_s@@MVVector@@PAUTraceResult@@HHH@Z 10081080 f   ggrenade.obj
 0001:000800c0       ?TakeDamage@CGrenade@@UAEHPAUentvars_s@@0MH@Z 100810c0 f   ggrenade.obj
 0001:000800f0       ?Explode@CGrenade@@QAEXPAUTraceResult@@HHM@Z 100810f0 f   ggrenade.obj
 0001:00080500       ?BounceTouch@CGrenade@@QAEXPAVCBaseEntity@@@Z 10081500 f   ggrenade.obj
 0001:00080790       ??$GetClassPtr@VCGrenade@@@@YAPAVCGrenade@@PAV0@@Z 10081790 f i ggrenade.obj
 0001:00080840       _grenade                   10081840 f   ggrenade.obj
 0001:00080850       ?Explode@CGrenade@@QAEXXZ  10081850 f   ggrenade.obj
 0001:000808c0       ?Explode@CGrenade@@QAEXPAUTraceResult@@H@Z 100818c0 f   ggrenade.obj
 0001:000808e0       ?Explode@CGrenade@@QAEXPAUTraceResult@@HH@Z 100818e0 f   ggrenade.obj
 0001:00080900       ?Detonate@CGrenade@@QAEXXZ 10081900 f   ggrenade.obj
 0001:00080990       ?ExplodeTouch@CGrenade@@QAEXPAVCBaseEntity@@@Z 10081990 f   ggrenade.obj
 0001:00080aa0       ?TumbleThink@CGrenade@@QAEXXZ 10081aa0 f   ggrenade.obj
 0001:00080bf0       ?ShootContact@CGrenade@@SAPAV1@PAUentvars_s@@VVector@@1@Z 10081bf0 f   ggrenade.obj
 0001:00080dc0       ?ShootTimed@CGrenade@@SAPAV1@PAUentvars_s@@VVector@@1M@Z 10081dc0 f   ggrenade.obj
 0001:00080f30       ?Killed@CGrenade@@UAEXPAUentvars_s@@0H@Z 10081f30 f   ggrenade.obj
 0001:00080f40       ?DetonateUse@CGrenade@@QAEXPAVCBaseEntity@@0W4USE_TYPE@@M@Z 10081f40 f   ggrenade.obj
 0001:00080f60       ?PreDetonate@CGrenade@@QAEXXZ 10081f60 f   ggrenade.obj
 0001:00080fc0       ?ShootSatchelCharge@CGrenade@@SAPAV1@PAUentvars_s@@VVector@@1@Z 10081fc0 f   ggrenade.obj
 0001:000810e0       ?Killed@CGrenade@@UAEXPAUentvars_s@@H@Z 100820e0 f   ggrenade.obj
 0001:00081100       ?pszAmmo2@CBasePlayerItem@@QAEPBDXZ 10082100 f i glock.obj
 0001:00081110       ?iMaxAmmo2@CBasePlayerItem@@QAEHXZ 10082110 f i glock.obj
 0001:00081120       ?getUsingGlockOldReloadLogic@CGlock@@SAMXZ 10082120 f   glock.obj
 0001:00081130       ?setExtraBulletFalse@CGlock@@QAEXXZ 10082130 f   glock.obj
 0001:00081140       ?setExtraBulletTrue@CGlock@@QAEXXZ 10082140 f   glock.obj
 0001:00081150       ?getExtraBullet@CGlock@@QAEHXZ 10082150 f   glock.obj
 0001:00081160       ??0CGlock@@QAE@XZ          10082160 f   glock.obj
 0001:00081220       ?iItemSlot@CGlock@@UAEHXZ  10082220 f i glock.obj
 0001:00081230       ?UseDecrement@CGlock@@UAEHXZ 10082230 f i glock.obj
 0001:00081240       ?customAttachToPlayer@CGlock@@UAEXPAVCBasePlayer@@@Z 10082240 f   glock.obj
 0001:000812c0       ?ExtractAmmo@CGlock@@UAEHPAVCBasePlayerWeapon@@@Z 100822c0 f   glock.obj
 0001:000813f0       ?weaponCanHaveExtraCheck@CGlock@@UAEHPAVCBasePlayer@@@Z 100823f0 f   glock.obj
 0001:00081420       ?weaponPlayPickupSoundException@CGlock@@UAEHPAVCBasePlayer@@@Z 10082420 f   glock.obj
 0001:00081430       ?Spawn@CGlock@@UAEXXZ      10082430 f   glock.obj
 0001:00081510       ?Precache@CGlock@@UAEXXZ   10082510 f   glock.obj
 0001:000815b0       ?GetItemInfo@CGlock@@UAEHPAUItemInfo@@@Z 100825b0 f   glock.obj
 0001:00081660       ?Deploy@CGlock@@UAEHXZ     10082660 f   glock.obj
 0001:000816c0       ?Holster@CGlock@@UAEXH@Z   100826c0 f   glock.obj
 0001:00081760       ?ItemPreFrame@CGlock@@UAEXXZ 10082760 f   glock.obj
 0001:00081770       ?CanAttackG@@YAHMMH@Z      10082770 f   glock.obj
 0001:000817a0       ?ItemPostFrame@CGlock@@UAEXXZ 100827a0 f   glock.obj
 0001:00081e10       ?GlockFire@CGlock@@QAEXMMH@Z 10082e10 f   glock.obj
 0001:000820c0       ?Reload@CGlock@@UAEXXZ     100830c0 f   glock.obj
 0001:00082150       ?WeaponIdle@CGlock@@UAEXXZ 10083150 f   glock.obj
 0001:000822b0       ?SendWeaponAnim@CGlock@@UAEXHHH@Z 100832b0 f   glock.obj
 0001:000822c0       ??$GetClassPtr@VCGlock@@@@YAPAVCGlock@@PAV0@@Z 100832c0 f i glock.obj
 0001:00082360       _weapon_glock              10083360 f   glock.obj
 0001:00082370       _weapon_9mmhandgun         10083370 f   glock.obj
 0001:00082380       _weapon_glocksilencer      10083380 f   glock.obj
 0001:00082390       _weapon_9mmhandgunsilencer 10083390 f   glock.obj
 0001:000823a0       ?SecondaryAttack@CGlock@@UAEXXZ 100833a0 f   glock.obj
 0001:00082410       ?PrimaryAttack@CGlock@@UAEXXZ 10083410 f   glock.obj
 0001:00082490       ??0CGlockAmmo@@QAE@XZ      10083490 f i glock.obj
 0001:000824b0       ?Spawn@CGlockAmmo@@EAEXXZ  100834b0 f i glock.obj
 0001:000824e0       ?Precache@CGlockAmmo@@EAEXXZ 100834e0 f i glock.obj
 0001:00082500       ?AddAmmo@CGlockAmmo@@EAEHPAVCBaseEntity@@@Z 10083500 f i glock.obj
 0001:00082570       ??$GetClassPtr@VCGlockAmmo@@@@YAPAVCGlockAmmo@@PAV0@@Z 10083570 f i glock.obj
 0001:00082620       _ammo_glockclip            10083620 f   glock.obj
 0001:00082630       _ammo_9mmclip              10083630 f   glock.obj
 0001:00082640       ?Save@CGMan@@UAEHAAVCSave@@@Z 10083640 f   gman.obj
 0001:00082680       ?Restore@CGMan@@UAEHAAVCRestore@@@Z 10083680 f   gman.obj
 0001:000826c0       ?Classify@CGMan@@UAEHXZ    100836c0 f   gman.obj
 0001:000826d0       ?SetYawSpeed@CGMan@@UAEXXZ 100836d0 f   gman.obj
 0001:000826e0       ?HandleAnimEvent@CGMan@@UAEXPAUMonsterEvent_t@@@Z 100836e0 f   gman.obj
 0001:000826f0       ?ISoundMask@CGMan@@UAEHXZ  100836f0 f   gman.obj
 0001:00082700       ??0CGMan@@QAE@XZ           10083700 f   gman.obj
 0001:00082720       ?Spawn@CGMan@@UAEXXZ       10083720 f   gman.obj
 0001:000827f0       ?Precache@CGMan@@UAEXXZ    100837f0 f   gman.obj
 0001:00082800       ?StartTask@CGMan@@UAEXPAUTask_t@@@Z 10083800 f   gman.obj
 0001:00082850       ?RunTask@CGMan@@UAEXPAUTask_t@@@Z 10083850 f   gman.obj
 0001:000829e0       ?TakeDamage@CGMan@@UAEHPAUentvars_s@@0MHH@Z 100839e0 f   gman.obj
 0001:00082a40       ?TraceAttack@CGMan@@UAEXPAUentvars_s@@MVVector@@PAUTraceResult@@HHHPAH@Z 10083a40 f   gman.obj
 0001:00082a80       ?PlayScriptedSentence@CGMan@@UAEXPBDMMMHPAVCBaseEntity@@@Z 10083a80 f   gman.obj
 0001:00082ae0       ??$GetClassPtr@VCGMan@@@@YAPAVCGMan@@PAV0@@Z 10083ae0 f i gman.obj
 0001:00082b80       _monster_gman              10083b80 f   gman.obj
 0001:00082b90       _gman                      10083b90 f   gman.obj
 0001:00082ba0       ?TakeDamage@CGMan@@UAEHPAUentvars_s@@0MH@Z 10083ba0 f   gman.obj
 0001:00082bd0       ?TraceAttack@CGMan@@UAEXPAUentvars_s@@MVVector@@PAUTraceResult@@H@Z 10083bd0 f   gman.obj
 0001:00082c10       ?TraceAttack@CGMan@@UAEXPAUentvars_s@@MVVector@@PAUTraceResult@@HH@Z 10083c10 f   gman.obj
 0001:00082c50       ?TraceAttack@CGMan@@UAEXPAUentvars_s@@MVVector@@PAUTraceResult@@HHH@Z 10083c50 f   gman.obj
 0001:00082c90       ?Save@CHAssault@@UAEHAAVCSave@@@Z 10083c90 f   hassault.obj
 0001:00082cd0       ?Restore@CHAssault@@UAEHAAVCRestore@@@Z 10083cd0 f   hassault.obj
 0001:00082d10       ?ScheduleFromName@CHAssault@@UAEPAUSchedule_t@@PBD@Z 10083d10 f   hassault.obj
 0001:00082d40       ?IRelationship@CHAssault@@UAEHPAVCBaseEntity@@@Z 10083d40 f   hassault.obj
 0001:00082d60       ?Classify@CHAssault@@UAEHXZ 10083d60 f   hassault.obj
 0001:00082d70       ?getGermanModelRequirement@CHAssault@@UAEHXZ 10083d70 f   hassault.obj
 0001:00082d80       ?getGermanModel@CHAssault@@UAEPBDXZ 10083d80 f   hassault.obj
 0001:00082d90       ?getNormalModel@CHAssault@@UAEPBDXZ 10083d90 f   hassault.obj
 0001:00082da0       ?PrescheduleThink@CHAssault@@UAEXXZ 10083da0 f   hassault.obj
 0001:00082e40       ?SetYawSpeed@CHAssault@@UAEXXZ 10083e40 f   hassault.obj
 0001:00082ea0       ?TraceAttack@CHAssault@@UAEXPAUentvars_s@@MVVector@@PAUTraceResult@@HHHPAH@Z 10083ea0 f   hassault.obj
 0001:00082ef0       ?TakeDamage@CHAssault@@UAEHPAUentvars_s@@0MHH@Z 10083ef0 f   hassault.obj
 0001:00082f90       ?PainSound@CHAssault@@UAEXXZ 10083f90 f   hassault.obj
 0001:00083020       ?AlertSound@CHAssault@@UAEXXZ 10084020 f   hassault.obj
 0001:000830d0       ?IdleSound@CHAssault@@UAEXXZ 100840d0 f   hassault.obj
 0001:00083130       ?DeathSound@CHAssault@@UAEXXZ 10084130 f   hassault.obj
 0001:00083220       ?AttackSound@CHAssault@@QAEXXZ 10084220 f   hassault.obj
 0001:00083280       ??0CHAssault@@QAE@XZ       10084280 f   hassault.obj
 0001:00083340       ?isOrganic@CHAssault@@UAEHXZ 10084340 f i hassault.obj
 0001:00083350       ?SetObjectCollisionBox@CHAssault@@UAEXXZ 10084350 f i hassault.obj
 0001:000833e0       ?CheckMeleeAttack2@CHAssault@@UAEHMM@Z 100843e0 f i hassault.obj
 0001:000833f0       ?getBarnacleForwardOffset@CHAssault@@UAEMXZ 100843f0 f   hassault.obj
 0001:00083400       ?getBarnaclePulledTopOffset@CHAssault@@UAEMXZ 10084400 f   hassault.obj
 0001:00083410       ?Spawn@CHAssault@@UAEXXZ   10084410 f   hassault.obj
 0001:00083590       ?Precache@CHAssault@@UAEXXZ 10084590 f   hassault.obj
 0001:000836c0       ?GetGunPosition@CHAssault@@UAE?AVVector@@XZ 100846c0 f   hassault.obj
 0001:000836e0       ?GetGunPositionAI@CHAssault@@UAE?AVVector@@XZ 100846e0 f   hassault.obj
 0001:00083860       ?getIdleSpinChannel@CHAssault@@QAEHXZ 10084860 f   hassault.obj
 0001:00083870       ?getSpinUpDownChannel@CHAssault@@QAEHXZ 10084870 f   hassault.obj
 0001:00083880       ?getChainFireChannel@CHAssault@@QAEHXZ 10084880 f   hassault.obj
 0001:00083890       ?resetChainFireSound@CHAssault@@QAEXXZ 10084890 f   hassault.obj
 0001:000838d0       ?attemptStopIdleSpinSound@CHAssault@@QAEXH@Z 100848d0 f   hassault.obj
 0001:00083960       ?SetActivity@CHAssault@@UAEXW4Activity@@@Z 10084960 f   hassault.obj
 0001:000839c0       ?FCanCheckAttacks@CHAssault@@UAEHXZ 100849c0 f   hassault.obj
 0001:00083a30       ?CheckRangeAttack1@CHAssault@@UAEHMM@Z 10084a30 f   hassault.obj
 0001:00083de0       ?CheckRangeAttack2@CHAssault@@UAEHMM@Z 10084de0 f   hassault.obj
 0001:00083df0       ?CheckMeleeAttack1@CHAssault@@UAEHMM@Z 10084df0 f   hassault.obj
 0001:00083f00       ?MoveExecute@CHAssault@@UAEXPAVCBaseEntity@@ABVVector@@M@Z 10084f00 f   hassault.obj
 0001:00083f30       ?ReportAIState@CHAssault@@UAEXXZ 10084f30 f   hassault.obj
 0001:00083f60       ?FValidateCover@CHAssault@@UAEHABVVector@@@Z 10084f60 f   hassault.obj
 0001:00083f70       ?ISoundMask@CHAssault@@UAEHXZ 10084f70 f   hassault.obj
 0001:00083f80       ?GetSchedule@CHAssault@@UAEPAUSchedule_t@@XZ 10084f80 f   hassault.obj
 0001:00084600       ?GetScheduleOfType@CHAssault@@UAEPAUSchedule_t@@H@Z 10085600 f   hassault.obj
 0001:00084860       ?onForceDelete@CHAssault@@UAEXXZ 10085860 f   hassault.obj
 0001:000848f0       ?Killed@CHAssault@@UAEXPAUentvars_s@@0H@Z 100858f0 f   hassault.obj
 0001:00084a10       ?giveZ@@YA?AVVector@@ABVVector2D@@ABM@Z 10085a10 f   hassault.obj
 0001:00084a30       ?Kick@CHAssault@@QAEPAVCBaseEntity@@XZ 10085a30 f   hassault.obj
 0001:00084ae0       ?SquadRecruit@CHAssault@@UAEHHH@Z 10085ae0 f   hassault.obj
 0001:00084af0       ?usesAdvancedAnimSystem@CHAssault@@UAEHXZ 10085af0 f   hassault.obj
 0001:00084b00       ?LookupActivityHard@CHAssault@@UAEHH@Z 10085b00 f   hassault.obj
 0001:00084f20       ?tryActivitySubstitute@CHAssault@@UAEHH@Z 10085f20 f   hassault.obj
 0001:00084ff0       ?canResetBlend0@CHAssault@@UAEHXZ 10085ff0 f   hassault.obj
 0001:00085000       ??$GetClassPtr@VCHAssault@@@@YAPAVCHAssault@@PAV0@@Z 10086000 f i hassault.obj
 0001:000850a0       _monster_hassault          100860a0 f   hassault.obj
 0001:000850b0       _monster_astro             100860b0 f   hassault.obj
 0001:000850c0       _hassault                  100860c0 f   hassault.obj
 0001:000850d0       _astro                     100860d0 f   hassault.obj
 0001:000850e0       _human_assault             100860e0 f   hassault.obj
 0001:000850f0       _monster_human_assault     100860f0 f   hassault.obj
 0001:00085100       ?AimAtEnemy@CHAssault@@QAEXAAVVector@@0@Z 10086100 f   hassault.obj
 0001:00085380       ?TraceAttack@CHAssault@@UAEXPAUentvars_s@@MVVector@@PAUTraceResult@@H@Z 10086380 f   hassault.obj
 0001:000853c0       ?TraceAttack@CHAssault@@UAEXPAUentvars_s@@MVVector@@PAUTraceResult@@HH@Z 100863c0 f   hassault.obj
 0001:00085400       ?TraceAttack@CHAssault@@UAEXPAUentvars_s@@MVVector@@PAUTraceResult@@HHH@Z 10086400 f   hassault.obj
 0001:00085440       ?TakeDamage@CHAssault@@UAEHPAUentvars_s@@0MH@Z 10086440 f   hassault.obj
 0001:00085470       ?HandleEventQueueEvent@CHAssault@@UAEXH@Z 10086470 f   hassault.obj
 0001:00085690       ?attemptStopIdleSpinSound@CHAssault@@QAEXXZ 10086690 f   hassault.obj
 0001:000856a0       ?StartTask@CHAssault@@UAEXPAUTask_t@@@Z 100866a0 f   hassault.obj
 0001:00085a30       ?RunTask@CHAssault@@UAEXPAUTask_t@@@Z 10086a30 f   hassault.obj
 0001:000864c0       ?Killed@CHAssault@@UAEXPAUentvars_s@@H@Z 100874c0 f   hassault.obj
 0001:000864e0       ?MonsterThink@CHAssault@@UAEXXZ 100874e0 f   hassault.obj
 0001:00086ad0       ?onResetBlend0@CHAssault@@UAEHXZ 10087ad0 f   hassault.obj
 0001:00086af0       ?Shoot@CHAssault@@QAEXXZ   10087af0 f   hassault.obj
 0001:00087080       ?ShootAtForceFireTarget@CHAssault@@QAEXXZ 10088080 f   hassault.obj
 0001:00087690       ?HandleAnimEvent@CHAssault@@UAEXPAUMonsterEvent_t@@@Z 10088690 f   hassault.obj
 0001:00087750       ??KVector@@QBE?AV0@M@Z     10088750 f i h_ai.obj
 0001:00087780       ?VecCheckToss@@YA?AVVector@@PAUentvars_s@@ABV1@V1@M@Z 10088780 f   h_ai.obj
 0001:00087b60       ?VecCheckThrow@@YA?AVVector@@PAUentvars_s@@ABV1@V1@MM@Z 10088b60 f   h_ai.obj
 0001:00087d20       ?FBoxVisible@@YAHPAUentvars_s@@0AAVVector@@M@Z 10088d20 f   h_ai.obj
 0001:00087e90       ?Save@CRecharge@@UAEHAAVCSave@@@Z 10088e90 f   h_battery.obj
 0001:00087ed0       ?Restore@CRecharge@@UAEHAAVCRestore@@@Z 10088ed0 f   h_battery.obj
 0001:00087f10       ?KeyValue@CRecharge@@UAEXPAUKeyValueData_s@@@Z 10088f10 f   h_battery.obj
 0001:00088020       ?IsWorldAffiliated@CRecharge@@UAEHXZ 10089020 f   h_battery.obj
 0001:00088030       ?usesSoundSentenceSave@CRecharge@@UAEHXZ 10089030 f   h_battery.obj
 0001:00088040       ?Spawn@CRecharge@@UAEXXZ   10089040 f   h_battery.obj
 0001:000880d0       ?Precache@CRecharge@@UAEXXZ 100890d0 f   h_battery.obj
 0001:00088110       ?Recharge@CRecharge@@QAEXXZ 10089110 f   h_battery.obj
 0001:00088140       ?Off@CRecharge@@QAEXXZ     10089140 f   h_battery.obj
 0001:000881e0       ??0CRecharge@@QAE@XZ       100891e0 f   h_battery.obj
 0001:00088200       ?ObjectCaps@CRecharge@@UAEHXZ 10089200 f i h_battery.obj
 0001:00088210       ?Use@CRecharge@@UAEXPAVCBaseEntity@@0W4USE_TYPE@@M@Z 10089210 f   h_battery.obj
 0001:000884c0       ??$GetClassPtr@VCRecharge@@@@YAPAVCRecharge@@PAV0@@Z 100894c0 f i h_battery.obj
 0001:00088560       _func_recharge             10089560 f   h_battery.obj
 0001:00088570       ?Die@CLegacyCineMonster@@QAEXXZ 10089570 f   h_cine.obj
 0001:00088580       ?Pain@CLegacyCineMonster@@QAEXXZ 10089580 f   h_cine.obj
 0001:00088590       ?CineThink@CLegacyCineMonster@@QAEXXZ 10089590 f   h_cine.obj
 0001:00088610       ??0CCineBlood@@QAE@XZ      10089610 f i h_cine.obj
 0001:00088630       ??0CLegacyCineMonster@@QAE@XZ 10089630 f i h_cine.obj
 0001:00088650       ?CineSpawn@CLegacyCineMonster@@QAEXPAD@Z 10089650 f   h_cine.obj
 0001:00088750       ?Use@CLegacyCineMonster@@UAEXPAVCBaseEntity@@0W4USE_TYPE@@M@Z 10089750 f   h_cine.obj
 0001:00088780       ?BloodGush@CCineBlood@@QAEXXZ 10089780 f   h_cine.obj
 0001:00088a00       ?BloodStart@CCineBlood@@QAEXPAVCBaseEntity@@0W4USE_TYPE@@M@Z 10089a00 f   h_cine.obj
 0001:00088a20       ?Spawn@CCineBlood@@UAEXXZ  10089a20 f   h_cine.obj
 0001:00088a50       ??$GetClassPtr@VCCineBlood@@@@YAPAVCCineBlood@@PAV0@@Z 10089a50 f i h_cine.obj
 0001:00088b00       ??0CCineScientist@@QAE@XZ  10089b00 f i h_cine.obj
 0001:00088b20       ??0CCinePanther@@QAE@XZ    10089b20 f i h_cine.obj
 0001:00088b40       ??0CCineBarney@@QAE@XZ     10089b40 f i h_cine.obj
 0001:00088b60       ??0CCine2Scientist@@QAE@XZ 10089b60 f i h_cine.obj
 0001:00088b80       ??0CCine2HeavyWeapons@@QAE@XZ 10089b80 f i h_cine.obj
 0001:00088ba0       ??0CCine2Slave@@QAE@XZ     10089ba0 f i h_cine.obj
 0001:00088bc0       ??0CCine3Scientist@@QAE@XZ 10089bc0 f i h_cine.obj
 0001:00088be0       ??0CCine3Barney@@QAE@XZ    10089be0 f i h_cine.obj
 0001:00088c00       ?Spawn@CCineScientist@@UAEXXZ 10089c00 f i h_cine.obj
 0001:00088c10       ?Spawn@CCine2Scientist@@UAEXXZ 10089c10 f i h_cine.obj
 0001:00088c20       ?Spawn@CCinePanther@@UAEXXZ 10089c20 f i h_cine.obj
 0001:00088c30       ?Spawn@CCineBarney@@UAEXXZ 10089c30 f i h_cine.obj
 0001:00088c40       ?Spawn@CCine2HeavyWeapons@@UAEXXZ 10089c40 f i h_cine.obj
 0001:00088c50       ?Spawn@CCine2Slave@@UAEXXZ 10089c50 f i h_cine.obj
 0001:00088c60       ?Spawn@CCine3Scientist@@UAEXXZ 10089c60 f i h_cine.obj
 0001:00088c70       ?Spawn@CCine3Barney@@UAEXXZ 10089c70 f i h_cine.obj
 0001:00088c80       _cine_blood                10089c80 f   h_cine.obj
 0001:00088c90       ??$GetClassPtr@VCCineScientist@@@@YAPAVCCineScientist@@PAV0@@Z 10089c90 f i h_cine.obj
 0001:00088d40       ??$GetClassPtr@VCCinePanther@@@@YAPAVCCinePanther@@PAV0@@Z 10089d40 f i h_cine.obj
 0001:00088df0       ??$GetClassPtr@VCCineBarney@@@@YAPAVCCineBarney@@PAV0@@Z 10089df0 f i h_cine.obj
 0001:00088ea0       ??$GetClassPtr@VCCine2Scientist@@@@YAPAVCCine2Scientist@@PAV0@@Z 10089ea0 f i h_cine.obj
 0001:00088f50       ??$GetClassPtr@VCCine2HeavyWeapons@@@@YAPAVCCine2HeavyWeapons@@PAV0@@Z 10089f50 f i h_cine.obj
 0001:00089000       ??$GetClassPtr@VCCine2Slave@@@@YAPAVCCine2Slave@@PAV0@@Z 1008a000 f i h_cine.obj
 0001:000890b0       ??$GetClassPtr@VCCine3Scientist@@@@YAPAVCCine3Scientist@@PAV0@@Z 1008a0b0 f i h_cine.obj
 0001:00089160       ??$GetClassPtr@VCCine3Barney@@@@YAPAVCCine3Barney@@PAV0@@Z 1008a160 f i h_cine.obj
 0001:00089210       _monster_cine_scientist    1008a210 f   h_cine.obj
 0001:00089220       _monster_cine_panther      1008a220 f   h_cine.obj
 0001:00089230       _monster_cine_barney       1008a230 f   h_cine.obj
 0001:00089240       _monster_cine2_scientist   1008a240 f   h_cine.obj
 0001:00089250       _monster_cine2_hvyweapons  1008a250 f   h_cine.obj
 0001:00089260       _monster_cine2_slave       1008a260 f   h_cine.obj
 0001:00089270       _monster_cine3_scientist   1008a270 f   h_cine.obj
 0001:00089280       _monster_cine3_barney      1008a280 f   h_cine.obj
 0001:00089290       ?Save@CCycler@@UAEHAAVCSave@@@Z 1008a290 f   h_cycler.obj
 0001:000892d0       ?Restore@CCycler@@UAEHAAVCRestore@@@Z 1008a2d0 f   h_cycler.obj
 0001:00089310       ?Spawn@CCycler@@UAEXXZ     1008a310 f   h_cycler.obj
 0001:00089400       ?Think@CCycler@@UAEXXZ     1008a400 f   h_cycler.obj
 0001:000894b0       ?Use@CCycler@@UAEXPAVCBaseEntity@@0W4USE_TYPE@@M@Z 1008a4b0 f   h_cycler.obj
 0001:000894f0       ?IsWorldAffiliated@CCycler@@UAEHXZ 1008a4f0 f   h_cycler.obj
 0001:00089500       ?TraceAttack@CCycler@@UAEXPAUentvars_s@@MVVector@@PAUTraceResult@@HHHPAH@Z 1008a500 f   h_cycler.obj
 0001:00089550       ?TakeDamage@CCycler@@UAEHPAUentvars_s@@0MHH@Z 1008a550 f   h_cycler.obj
 0001:00089600       ?ShouldAnimate@CCyclerSprite@@QAEHXZ 1008a600 f i h_cycler.obj
 0001:00089630       ?Save@CCyclerSprite@@UAEHAAVCSave@@@Z 1008a630 f   h_cycler.obj
 0001:00089670       ?Restore@CCyclerSprite@@UAEHAAVCRestore@@@Z 1008a670 f   h_cycler.obj
 0001:000896b0       ?Spawn@CCyclerSprite@@UAEXXZ 1008a6b0 f   h_cycler.obj
 0001:00089790       ?Use@CCyclerSprite@@UAEXPAVCBaseEntity@@0W4USE_TYPE@@M@Z 1008a790 f   h_cycler.obj
 0001:000897d0       ?TraceAttack@CCyclerSprite@@UAEXPAUentvars_s@@MVVector@@PAUTraceResult@@HHHPAH@Z 1008a7d0 f   h_cycler.obj
 0001:00089820       ?Animate@CCyclerSprite@@QAEXM@Z 1008a820 f   h_cycler.obj
 0001:00089870       ?Spawn@CWeaponCycler@@UAEXXZ 1008a870 f   h_cycler.obj
 0001:00089940       ?Deploy@CWeaponCycler@@UAEHXZ 1008a940 f   h_cycler.obj
 0001:000899a0       ?Holster@CWeaponCycler@@UAEXH@Z 1008a9a0 f   h_cycler.obj
 0001:000899d0       ?PrimaryAttack@CWeaponCycler@@UAEXXZ 1008a9d0 f   h_cycler.obj
 0001:00089a10       ?SecondaryAttack@CWeaponCycler@@UAEXXZ 1008aa10 f   h_cycler.obj
 0001:00089ac0       ?Save@CWreckage@@EAEHAAVCSave@@@Z 1008aac0 f   h_cycler.obj
 0001:00089b00       ?Restore@CWreckage@@EAEHAAVCRestore@@@Z 1008ab00 f   h_cycler.obj
 0001:00089b40       ?Spawn@CWreckage@@EAEXXZ   1008ab40 f   h_cycler.obj
 0001:00089c00       ?Precache@CWreckage@@EAEXXZ 1008ac00 f   h_cycler.obj
 0001:00089c30       ?Think@CWreckage@@EAEXXZ   1008ac30 f   h_cycler.obj
 0001:00089dd0       ??0CCyclerSprite@@QAE@XZ   1008add0 f i h_cycler.obj
 0001:00089df0       ?ObjectCaps@CCyclerSprite@@UAEHXZ 1008adf0 f i h_cycler.obj
 0001:00089e00       ??0CWeaponCycler@@QAE@XZ   1008ae00 f i h_cycler.obj
 0001:00089e20       ?WeaponIdle@CBasePlayerWeapon@@UAEXXZ 1008ae20 f i h_cycler.obj
 0001:00089e30       ?UseDecrement@CBasePlayerWeapon@@UAEHXZ 1008ae30 f i h_cycler.obj
 0001:00089e40       ?iItemSlot@CWeaponCycler@@UAEHXZ 1008ae40 f i h_cycler.obj
 0001:00089e50       ?GetItemInfo@CWeaponCycler@@UAEHPAUItemInfo@@@Z 1008ae50 f i h_cycler.obj
 0001:00089e60       ??0CWreckage@@QAE@XZ       1008ae60 f i h_cycler.obj
 0001:00089e80       ??0CCycler@@QAE@XZ         1008ae80 f i h_cycler.obj
 0001:00089ea0       ?ObjectCaps@CCycler@@UAEHXZ 1008aea0 f i h_cycler.obj
 0001:00089eb0       ?IsAlive@CCycler@@UAEHXZ   1008aeb0 f i h_cycler.obj
 0001:00089ec0       ?GenericCyclerSpawn@CCycler@@QAEXPADVVector@@1@Z 1008aec0 f   h_cycler.obj
 0001:00089f70       ?TraceAttack@CCycler@@UAEXPAUentvars_s@@MVVector@@PAUTraceResult@@H@Z 1008af70 f   h_cycler.obj
 0001:00089fb0       ?TraceAttack@CCycler@@UAEXPAUentvars_s@@MVVector@@PAUTraceResult@@HH@Z 1008afb0 f   h_cycler.obj
 0001:00089ff0       ?TraceAttack@CCycler@@UAEXPAUentvars_s@@MVVector@@PAUTraceResult@@HHH@Z 1008aff0 f   h_cycler.obj
 0001:0008a030       ?TakeDamage@CCycler@@UAEHPAUentvars_s@@0MH@Z 1008b030 f   h_cycler.obj
 0001:0008a060       ?Think@CCyclerSprite@@UAEXXZ 1008b060 f   h_cycler.obj
 0001:0008a0e0       ?TraceAttack@CCyclerSprite@@UAEXPAUentvars_s@@MVVector@@PAUTraceResult@@H@Z 1008b0e0 f   h_cycler.obj
 0001:0008a120       ?TraceAttack@CCyclerSprite@@UAEXPAUentvars_s@@MVVector@@PAUTraceResult@@HH@Z 1008b120 f   h_cycler.obj
 0001:0008a160       ?TraceAttack@CCyclerSprite@@UAEXPAUentvars_s@@MVVector@@PAUTraceResult@@HHH@Z 1008b160 f   h_cycler.obj
 0001:0008a1a0       ?TakeDamage@CCyclerSprite@@UAEHPAUentvars_s@@0MHH@Z 1008b1a0 f   h_cycler.obj
 0001:0008a1d0       ??$GetClassPtr@VCCyclerSprite@@@@YAPAVCCyclerSprite@@PAV0@@Z 1008b1d0 f i h_cycler.obj
 0001:0008a280       ??$GetClassPtr@VCWeaponCycler@@@@YAPAVCWeaponCycler@@PAV0@@Z 1008b280 f i h_cycler.obj
 0001:0008a330       ??$GetClassPtr@VCWreckage@@@@YAPAVCWreckage@@PAV0@@Z 1008b330 f i h_cycler.obj
 0001:0008a3e0       ??0CGenericCycler@@QAE@XZ  1008b3e0 f i h_cycler.obj
 0001:0008a400       ??0CCyclerProbe@@QAE@XZ    1008b400 f i h_cycler.obj
 0001:0008a420       ?Spawn@CGenericCycler@@UAEXXZ 1008b420 f i h_cycler.obj
 0001:0008a470       ?Spawn@CCyclerProbe@@UAEXXZ 1008b470 f   h_cycler.obj
 0001:0008a4f0       _cycler_sprite             1008b4f0 f   h_cycler.obj
 0001:0008a500       ?TakeDamage@CCyclerSprite@@UAEHPAUentvars_s@@0MH@Z 1008b500 f   h_cycler.obj
 0001:0008a530       _cycler_weapon             1008b530 f   h_cycler.obj
 0001:0008a540       _cycler_wreckage           1008b540 f   h_cycler.obj
 0001:0008a550       ??$GetClassPtr@VCGenericCycler@@@@YAPAVCGenericCycler@@PAV0@@Z 1008b550 f i h_cycler.obj
 0001:0008a600       ??$GetClassPtr@VCCyclerProbe@@@@YAPAVCCyclerProbe@@PAV0@@Z 1008b600 f i h_cycler.obj
 0001:0008a6b0       _cycler                    1008b6b0 f   h_cycler.obj
 0001:0008a6c0       _cycler_prdroid            1008b6c0 f   h_cycler.obj
 0001:0008a6d0       _DllMain@12                1008b6d0 f   h_export.obj
 0001:0008a6e0       ?GiveFnptrsToDll@@YGXPAUenginefuncs_s@@PAUglobalvars_t@@@Z 1008b6e0 f   h_export.obj
 0001:0008a710       ?iMaxClip@CBasePlayerItem@@QAEHXZ 1008b710 f i handgrenade.obj
 0001:0008a720       ??0CHandGrenade@@QAE@XZ    1008b720 f   handgrenade.obj
 0001:0008a740       ?iItemSlot@CHandGrenade@@UAEHXZ 1008b740 f i handgrenade.obj
 0001:0008a750       ?UseDecrement@CHandGrenade@@UAEHXZ 1008b750 f i handgrenade.obj
 0001:0008a760       ?customAttachToPlayer@CHandGrenade@@UAEXPAVCBasePlayer@@@Z 1008b760 f   handgrenade.obj
 0001:0008a780       ?Spawn@CHandGrenade@@UAEXXZ 1008b780 f   handgrenade.obj
 0001:0008a7e0       ?ExtractAmmo@CHandGrenade@@UAEHPAVCBasePlayerWeapon@@@Z 1008b7e0 f   handgrenade.obj
 0001:0008a870       ?AddPrimaryAmmo@CHandGrenade@@UAEHHPADHH@Z 1008b870 f   handgrenade.obj
 0001:0008a930       ?Precache@CHandGrenade@@UAEXXZ 1008b930 f   handgrenade.obj
 0001:0008a970       ?GetItemInfo@CHandGrenade@@UAEHPAUItemInfo@@@Z 1008b970 f   handgrenade.obj
 0001:0008a9e0       ?Deploy@CHandGrenade@@UAEHXZ 1008b9e0 f   handgrenade.obj
 0001:0008aa20       ?CanHolster@CHandGrenade@@UAEHXZ 1008ba20 f   handgrenade.obj
 0001:0008aa40       ?ItemPreFrame@CHandGrenade@@UAEXXZ 1008ba40 f   handgrenade.obj
 0001:0008aa90       ?Holster@CHandGrenade@@UAEXH@Z 1008ba90 f   handgrenade.obj
 0001:0008ab60       ?PrimaryAttack@CHandGrenade@@UAEXXZ 1008bb60 f   handgrenade.obj
 0001:0008ad70       ?WeaponIdle@CHandGrenade@@UAEXXZ 1008bd70 f   handgrenade.obj
 0001:0008b280       ??$GetClassPtr@VCHandGrenade@@@@YAPAVCHandGrenade@@PAV0@@Z 1008c280 f i handgrenade.obj
 0001:0008b320       _weapon_handgrenade        1008c320 f   handgrenade.obj
 0001:0008b330       ?ScheduleFromName@CHAssassin@@UAEPAUSchedule_t@@PBD@Z 1008c330 f   hassassin.obj
 0001:0008b360       ?Save@CHAssassin@@UAEHAAVCSave@@@Z 1008c360 f   hassassin.obj
 0001:0008b3a0       ?Restore@CHAssassin@@UAEHAAVCRestore@@@Z 1008c3a0 f   hassassin.obj
 0001:0008b3e0       ?HAssassinTouch@CHAssassin@@QAEXPAVCBaseEntity@@@Z 1008c3e0 f   hassassin.obj
 0001:0008b400       ?IRelationship@CHAssassin@@UAEHPAVCBaseEntity@@@Z 1008c400 f   hassassin.obj
 0001:0008b420       ?DeathSound@CHAssassin@@UAEXXZ 1008c420 f   hassassin.obj
 0001:0008b430       ?IdleSound@CHAssassin@@UAEXXZ 1008c430 f   hassassin.obj
 0001:0008b440       ?ISoundMask@CHAssassin@@UAEHXZ 1008c440 f   hassassin.obj
 0001:0008b450       ?Classify@CHAssassin@@UAEHXZ 1008c450 f   hassassin.obj
 0001:0008b460       ?SetYawSpeed@CHAssassin@@UAEXXZ 1008c460 f   hassassin.obj
 0001:0008b470       ?Shoot@CHAssassin@@QAEXXZ  1008c470 f   hassassin.obj
 0001:0008b6f0       ?HandleAnimEvent@CHAssassin@@UAEXPAUMonsterEvent_t@@@Z 1008c6f0 f   hassassin.obj
 0001:0008b880       ??0CHAssassin@@QAE@XZ      1008c880 f   hassassin.obj
 0001:0008b8b0       ?Spawn@CHAssassin@@UAEXXZ  1008c8b0 f   hassassin.obj
 0001:0008ba30       ?Precache@CHAssassin@@UAEXXZ 1008ca30 f   hassassin.obj
 0001:0008ba90       ?CheckMeleeAttack1@CHAssassin@@UAEHMM@Z 1008ca90 f   hassassin.obj
 0001:0008bc80       ?CheckRangeAttack1@CHAssassin@@UAEHMM@Z 1008cc80 f   hassassin.obj
 0001:0008bdd0       ?CheckRangeAttack2@CHAssassin@@UAEHMM@Z 1008cdd0 f   hassassin.obj
 0001:0008bef0       ?RunAI@CHAssassin@@UAEXXZ  1008cef0 f   hassassin.obj
 0001:0008c070       ?TraceAttack@CHAssassin@@UAEXPAUentvars_s@@MVVector@@PAUTraceResult@@HHHPAH@Z 1008d070 f   hassassin.obj
 0001:0008c0c0       ?TakeDamage@CHAssassin@@UAEHPAUentvars_s@@0MHH@Z 1008d0c0 f   hassassin.obj
 0001:0008c0f0       ?attemptDropWeapon@CHAssassin@@QAEHXZ 1008d0f0 f   hassassin.obj
 0001:0008c220       ?GetSchedule@CHAssassin@@UAEPAUSchedule_t@@XZ 1008d220 f   hassassin.obj
 0001:0008c3e0       ?GetScheduleOfType@CHAssassin@@UAEPAUSchedule_t@@H@Z 1008d3e0 f   hassassin.obj
 0001:0008c590       ?canResetBlend0@CHAssassin@@UAEHXZ 1008d590 f   hassassin.obj
 0001:0008c5a0       ?onResetBlend0@CHAssassin@@UAEHXZ 1008d5a0 f   hassassin.obj
 0001:0008c6a0       ?GetGunPosition@CHAssassin@@UAE?AVVector@@XZ 1008d6a0 f   hassassin.obj
 0001:0008c6c0       ?GetGunPositionAI@CHAssassin@@UAE?AVVector@@XZ 1008d6c0 f   hassassin.obj
 0001:0008c6e0       ?usesAdvancedAnimSystem@CHAssassin@@UAEHXZ 1008d6e0 f   hassassin.obj
 0001:0008c6f0       ?LookupActivityHard@CHAssassin@@UAEHH@Z 1008d6f0 f   hassassin.obj
 0001:0008c8c0       ?tryActivitySubstitute@CHAssassin@@UAEHH@Z 1008d8c0 f   hassassin.obj
 0001:0008c900       ?HandleEventQueueEvent@CHAssassin@@UAEXH@Z 1008d900 f   hassassin.obj
 0001:0008cb10       ??$GetClassPtr@VCHAssassin@@@@YAPAVCHAssassin@@PAV0@@Z 1008db10 f i hassassin.obj
 0001:0008cbb0       _monster_human_assassin    1008dbb0 f   hassassin.obj
 0001:0008cbc0       _hassassin                 1008dbc0 f   hassassin.obj
 0001:0008cbd0       _human_assassin            1008dbd0 f   hassassin.obj
 0001:0008cbe0       _monster_hassassin         1008dbe0 f   hassassin.obj
 0001:0008cbf0       ?MonsterThink@CHAssassin@@UAEXXZ 1008dbf0 f   hassassin.obj
 0001:0008ce40       ?StartTask@CHAssassin@@UAEXPAUTask_t@@@Z 1008de40 f   hassassin.obj
 0001:0008cf40       ?TraceAttack@CHAssassin@@UAEXPAUentvars_s@@MVVector@@PAUTraceResult@@H@Z 1008df40 f   hassassin.obj
 0001:0008cf80       ?TraceAttack@CHAssassin@@UAEXPAUentvars_s@@MVVector@@PAUTraceResult@@HH@Z 1008df80 f   hassassin.obj
 0001:0008cfc0       ?TraceAttack@CHAssassin@@UAEXPAUentvars_s@@MVVector@@PAUTraceResult@@HHH@Z 1008dfc0 f   hassassin.obj
 0001:0008d000       ?TakeDamage@CHAssassin@@UAEHPAUentvars_s@@0MH@Z 1008e000 f   hassassin.obj
 0001:0008d030       ?Killed@CHAssassin@@UAEXPAUentvars_s@@0H@Z 1008e030 f   hassassin.obj
 0001:0008d060       ?GibMonster@CHAssassin@@UAEXH@Z 1008e060 f   hassassin.obj
 0001:0008d080       ?RunTask@CHAssassin@@UAEXPAUTask_t@@@Z 1008e080 f   hassassin.obj
 0001:0008d2f0       ?Killed@CHAssassin@@UAEXPAUentvars_s@@H@Z 1008e2f0 f   hassassin.obj
 0001:0008d310       ?GibMonster@CHAssassin@@UAEXXZ 1008e310 f   hassassin.obj
 0001:0008d320       ?ScheduleFromName@CHeadCrab@@UAEPAUSchedule_t@@PBD@Z 1008e320 f   headcrab.obj
 0001:0008d350       ?Classify@CHeadCrab@@UAEHXZ 1008e350 f   headcrab.obj
 0001:0008d360       ?Center@CHeadCrab@@UAE?AVVector@@XZ 1008e360 f   headcrab.obj
 0001:0008d390       ?BodyTarget@CHeadCrab@@UAE?AVVector@@ABV2@@Z 1008e390 f   headcrab.obj
 0001:0008d3b0       ?BodyTargetMod@CHeadCrab@@UAE?AVVector@@ABV2@@Z 1008e3b0 f   headcrab.obj
 0001:0008d3d0       ?SetYawSpeed@CHeadCrab@@UAEXXZ 1008e3d0 f   headcrab.obj
 0001:0008d460       ?HandleAnimEvent@CHeadCrab@@UAEXPAUMonsterEvent_t@@@Z 1008e460 f   headcrab.obj
 0001:0008d760       ??0CHeadCrab@@QAE@XZ       1008e760 f   headcrab.obj
 0001:0008d780       ?GetDamageAmount@CHeadCrab@@UAEMXZ 1008e780 f i headcrab.obj
 0001:0008d790       ?GetVoicePitch@CHeadCrab@@UAEHXZ 1008e790 f i headcrab.obj
 0001:0008d7a0       ?GetSoundVolue@CHeadCrab@@UAEMXZ 1008e7a0 f i headcrab.obj
 0001:0008d7b0       ?Spawn@CHeadCrab@@UAEXXZ   1008e7b0 f   headcrab.obj
 0001:0008d8d0       ?Precache@CHeadCrab@@UAEXXZ 1008e8d0 f   headcrab.obj
 0001:0008d990       ?LeapTouch@CHeadCrab@@QAEXPAVCBaseEntity@@@Z 1008e990 f   headcrab.obj
 0001:0008daa0       ?PrescheduleThink@CHeadCrab@@UAEXXZ 1008eaa0 f   headcrab.obj
 0001:0008daf0       ?StartTask@CHeadCrab@@UAEXPAUTask_t@@@Z 1008eaf0 f   headcrab.obj
 0001:0008db70       ?CheckRangeAttack1@CHeadCrab@@UAEHMM@Z 1008eb70 f   headcrab.obj
 0001:0008dbc0       ?CheckRangeAttack2@CHeadCrab@@UAEHMM@Z 1008ebc0 f   headcrab.obj
 0001:0008dbd0       ?TraceAttack@CHeadCrab@@UAEXPAUentvars_s@@MVVector@@PAUTraceResult@@HHHPAH@Z 1008ebd0 f   headcrab.obj
 0001:0008dc20       ?TakeDamage@CHeadCrab@@UAEHPAUentvars_s@@0MHH@Z 1008ec20 f   headcrab.obj
 0001:0008dc60       ?IdleSound@CHeadCrab@@UAEXXZ 1008ec60 f   headcrab.obj
 0001:0008dcc0       ?AlertSound@CHeadCrab@@UAEXXZ 1008ecc0 f   headcrab.obj
 0001:0008dd20       ?PainSound@CHeadCrab@@UAEXXZ 1008ed20 f   headcrab.obj
 0001:0008dd80       ?DeathSound@CHeadCrab@@UAEXXZ 1008ed80 f   headcrab.obj
 0001:0008dde0       ?GetScheduleOfType@CHeadCrab@@UAEPAUSchedule_t@@H@Z 1008ede0 f   headcrab.obj
 0001:0008de00       ??0CBabyCrab@@QAE@XZ       1008ee00 f   headcrab.obj
 0001:0008de20       ?GetDamageAmount@CBabyCrab@@UAEMXZ 1008ee20 f i headcrab.obj
 0001:0008de40       ?GetVoicePitch@CBabyCrab@@UAEHXZ 1008ee40 f i headcrab.obj
 0001:0008de60       ?GetSoundVolue@CBabyCrab@@UAEMXZ 1008ee60 f i headcrab.obj
 0001:0008de70       ?Spawn@CBabyCrab@@UAEXXZ   1008ee70 f   headcrab.obj
 0001:0008df20       ?Precache@CBabyCrab@@UAEXXZ 1008ef20 f   headcrab.obj
 0001:0008df40       ?SetYawSpeed@CBabyCrab@@UAEXXZ 1008ef40 f   headcrab.obj
 0001:0008df50       ?CheckRangeAttack1@CBabyCrab@@UAEHMM@Z 1008ef50 f   headcrab.obj
 0001:0008dfb0       ?GetScheduleOfType@CBabyCrab@@UAEPAUSchedule_t@@H@Z 1008efb0 f   headcrab.obj
 0001:0008dff0       ??$GetClassPtr@VCHeadCrab@@@@YAPAVCHeadCrab@@PAV0@@Z 1008eff0 f i headcrab.obj
 0001:0008e090       ??$GetClassPtr@VCBabyCrab@@@@YAPAVCBabyCrab@@PAV0@@Z 1008f090 f i headcrab.obj
 0001:0008e130       _monster_headcrab          1008f130 f   headcrab.obj
 0001:0008e140       _headcrab                  1008f140 f   headcrab.obj
 0001:0008e150       ?RunTask@CHeadCrab@@UAEXPAUTask_t@@@Z 1008f150 f   headcrab.obj
 0001:0008e1b0       ?TraceAttack@CHeadCrab@@UAEXPAUentvars_s@@MVVector@@PAUTraceResult@@H@Z 1008f1b0 f   headcrab.obj
 0001:0008e1f0       ?TraceAttack@CHeadCrab@@UAEXPAUentvars_s@@MVVector@@PAUTraceResult@@HH@Z 1008f1f0 f   headcrab.obj
 0001:0008e230       ?TraceAttack@CHeadCrab@@UAEXPAUentvars_s@@MVVector@@PAUTraceResult@@HHH@Z 1008f230 f   headcrab.obj
 0001:0008e270       ?TakeDamage@CHeadCrab@@UAEHPAUentvars_s@@0MH@Z 1008f270 f   headcrab.obj
 0001:0008e2a0       _monster_babycrab          1008f2a0 f   headcrab.obj
 0001:0008e2b0       _babycrab                  1008f2b0 f   headcrab.obj
 0001:0008e2c0       _babyheadcrab              1008f2c0 f   headcrab.obj
 0001:0008e2d0       _monster_babyheadcrab      1008f2d0 f   headcrab.obj
 0001:0008e2e0       _headcrab_baby             1008f2e0 f   headcrab.obj
 0001:0008e2f0       _monster_headcrab_baby     1008f2f0 f   headcrab.obj
 0001:0008e300       ??0CItem@@QAE@XZ           1008f300 f i healthkit.obj
 0001:0008e320       ?MyTouch@CItem@@UAEHPAVCBasePlayer@@@Z 1008f320 f i healthkit.obj
 0001:0008e330       ?usesSoundSentenceSave@CHealthKit@@UAEHXZ 1008f330 f   healthkit.obj
 0001:0008e340       ?Spawn@CHealthKit@@UAEXXZ  1008f340 f   healthkit.obj
 0001:0008e370       ?Precache@CHealthKit@@UAEXXZ 1008f370 f   healthkit.obj
 0001:0008e3a0       ?MyTouch@CHealthKit@@UAEHPAVCBasePlayer@@@Z 1008f3a0 f   healthkit.obj
 0001:0008e540       ?Save@CWallHealth@@UAEHAAVCSave@@@Z 1008f540 f   healthkit.obj
 0001:0008e580       ?Restore@CWallHealth@@UAEHAAVCRestore@@@Z 1008f580 f   healthkit.obj
 0001:0008e5c0       ?KeyValue@CWallHealth@@UAEXPAUKeyValueData_s@@@Z 1008f5c0 f   healthkit.obj
 0001:0008e6d0       ?IsWorldAffiliated@CWallHealth@@UAEHXZ 1008f6d0 f   healthkit.obj
 0001:0008e6e0       ?usesSoundSentenceSave@CWallHealth@@UAEHXZ 1008f6e0 f   healthkit.obj
 0001:0008e6f0       ?Spawn@CWallHealth@@UAEXXZ 1008f6f0 f   healthkit.obj
 0001:0008e780       ?Precache@CWallHealth@@UAEXXZ 1008f780 f   healthkit.obj
 0001:0008e7c0       ?Recharge@CWallHealth@@QAEXXZ 1008f7c0 f   healthkit.obj
 0001:0008e820       ?Off@CWallHealth@@QAEXXZ   1008f820 f   healthkit.obj
 0001:0008e8c0       ??0CHealthKit@@QAE@XZ      1008f8c0 f   healthkit.obj
 0001:0008e8e0       ??0CWallHealth@@QAE@XZ     1008f8e0 f   healthkit.obj
 0001:0008e900       ?ObjectCaps@CWallHealth@@UAEHXZ 1008f900 f i healthkit.obj
 0001:0008e910       ?Use@CWallHealth@@UAEXPAVCBaseEntity@@0W4USE_TYPE@@M@Z 1008f910 f   healthkit.obj
 0001:0008eba0       ??$GetClassPtr@VCHealthKit@@@@YAPAVCHealthKit@@PAV0@@Z 1008fba0 f i healthkit.obj
 0001:0008ec40       ??$GetClassPtr@VCWallHealth@@@@YAPAVCWallHealth@@PAV0@@Z 1008fc40 f i healthkit.obj
 0001:0008ece0       _item_healthkit            1008fce0 f   healthkit.obj
 0001:0008ecf0       _func_healthcharger        1008fcf0 f   healthkit.obj
 0001:0008ed00       ?Save@CHGrunt@@UAEHAAVCSave@@@Z 1008fd00 f   hgrunt.obj
 0001:0008ed40       ?Restore@CHGrunt@@UAEHAAVCRestore@@@Z 1008fd40 f   hgrunt.obj
 0001:0008ed80       ?partyUse@CHGrunt@@QAEXPAVCBaseEntity@@0W4USE_TYPE@@M@Z 1008fd80 f   hgrunt.obj
 0001:0008eec0       ?getClipSize@CHGrunt@@QAEHXZ 1008fec0 f   hgrunt.obj
 0001:0008eee0       ?IRelationship@CHGrunt@@UAEHPAVCBaseEntity@@@Z 1008fee0 f   hgrunt.obj
 0001:0008ef70       ?DetermineGibHeadBlock@CHGrunt@@UAEHXZ 1008ff70 f   hgrunt.obj
 0001:0008ef80       ?GibMonster@CHGrunt@@UAEXH@Z 1008ff80 f   hgrunt.obj
 0001:0008f190       ?ISoundMask@CHGrunt@@UAEHXZ 10090190 f   hgrunt.obj
 0001:0008f1a0       ?FOkToSpeak@CHGrunt@@QAEHXZ 100901a0 f   hgrunt.obj
 0001:0008f1e0       ?JustSpoke@CHGrunt@@QAEXXZ 100901e0 f   hgrunt.obj
 0001:0008f220       ?PrescheduleThink@CHGrunt@@UAEXXZ 10090220 f   hgrunt.obj
 0001:0008f2c0       ?FCanCheckAttacks@CHGrunt@@UAEHXZ 100902c0 f   hgrunt.obj
 0001:0008f2d0       ?CheckMeleeAttack1@CHGrunt@@UAEHMM@Z 100902d0 f   hgrunt.obj
 0001:0008f360       ?CheckRangeAttack2@CHGrunt@@UAEHMM@Z 10090360 f   hgrunt.obj
 0001:0008f850       ?TraceAttack@CHGrunt@@UAEXPAUentvars_s@@MVVector@@PAUTraceResult@@HHHPAH@Z 10090850 f   hgrunt.obj
 0001:0008f960       ?findCoverInDirection@CHGrunt@@QAEMABVVector@@ABM01PAV2@H@Z 10090960 f   hgrunt.obj
 0001:0008fe90       ?SetYawSpeed@CHGrunt@@UAEXXZ 10090e90 f   hgrunt.obj
 0001:0008ff50       ?IdleSound@CHGrunt@@UAEXXZ 10090f50 f   hgrunt.obj
 0001:00090100       ?CheckAmmo@CHGrunt@@UAEXXZ 10091100 f   hgrunt.obj
 0001:00090120       ?Classify@CHGrunt@@UAEHXZ  10091120 f   hgrunt.obj
 0001:00090130       ?getGermanModelRequirement@CHGrunt@@UAEHXZ 10091130 f   hgrunt.obj
 0001:00090140       ?getGermanModel@CHGrunt@@UAEPBDXZ 10091140 f   hgrunt.obj
 0001:00090150       ?getNormalModel@CHGrunt@@UAEPBDXZ 10091150 f   hgrunt.obj
 0001:00090160       ?Kick@CHGrunt@@QAEPAVCBaseEntity@@XZ 10091160 f   hgrunt.obj
 0001:00090210       ?GetGunPosition@CHGrunt@@UAE?AVVector@@XZ 10091210 f   hgrunt.obj
 0001:00090250       ?GetGunPositionAI@CHGrunt@@UAE?AVVector@@XZ 10091250 f   hgrunt.obj
 0001:00090270       ?Shoot@CHGrunt@@QAEXXZ     10091270 f   hgrunt.obj
 0001:000904d0       ?Shotgun@CHGrunt@@QAEXXZ   100914d0 f   hgrunt.obj
 0001:000904e0       ?outOfAmmoStrafeFireBlock@CHGrunt@@QAEHXZ 100914e0 f   hgrunt.obj
 0001:00090500       ?hgruntAllowStrafe@CHGrunt@@QAEHXZ 10091500 f   hgrunt.obj
 0001:00090520       ?hgruntAllowStrafeFire@CHGrunt@@QAEHXZ 10091520 f   hgrunt.obj
 0001:00090550       ?canDoOpportunisticStrafe@CHGrunt@@QAEHXZ 10091550 f   hgrunt.obj
 0001:00090570       ?getIsStrafeLocked@CHGrunt@@QAEHXZ 10091570 f   hgrunt.obj
 0001:000905e0       ?MonsterThink@CHGrunt@@UAEXXZ 100915e0 f   hgrunt.obj
 0001:00090d10       ?HandleEventQueueEvent@CHGrunt@@UAEXH@Z 10091d10 f   hgrunt.obj
 0001:00090d20       ?HandleAnimEvent@CHGrunt@@UAEXPAUMonsterEvent_t@@@Z 10091d20 f   hgrunt.obj
 0001:00091370       ??0CHGrunt@@QAE@XZ         10092370 f   hgrunt.obj
 0001:000913d0       ?isOrganic@CHGrunt@@UAEHXZ 100923d0 f i hgrunt.obj
 0001:000913e0       ?SetObjectCollisionBox@CHGrunt@@UAEXXZ 100923e0 f i hgrunt.obj
 0001:00091480       ?ObjectCaps@CHGrunt@@UAEHXZ 10092480 f i hgrunt.obj
 0001:00091490       ?Spawn@CHGrunt@@UAEXXZ     10092490 f   hgrunt.obj
 0001:000916b0       ?Precache@CHGrunt@@UAEXXZ  100926b0 f   hgrunt.obj
 0001:00091880       ?usesAdvancedAnimSystem@CHGrunt@@UAEHXZ 10092880 f   hgrunt.obj
 0001:00091890       ?moveAnimUpdate@CHGrunt@@QAEXXZ 10092890 f   hgrunt.obj
 0001:000918a0       ?updateStrafeStatus@CHGrunt@@QAEXXZ 100928a0 f   hgrunt.obj
 0001:000919a0       ?onAnimationLoop@CHGrunt@@UAEXXZ 100929a0 f   hgrunt.obj
 0001:00091b00       ?LookupActivityHard@CHGrunt@@UAEHH@Z 10092b00 f   hgrunt.obj
 0001:00091ca0       ?tryActivitySubstitute@CHGrunt@@UAEHH@Z 10092ca0 f   hgrunt.obj
 0001:00091d90       ?MakeIdealYaw@CHGrunt@@UAEXVVector@@@Z 10092d90 f   hgrunt.obj
 0001:00091eb0       ?MoveExecute@CHGrunt@@UAEXPAVCBaseEntity@@ABVVector@@M@Z 10092eb0 f   hgrunt.obj
 0001:00091fd0       ?PainSound@CHGrunt@@UAEXXZ 10092fd0 f   hgrunt.obj
 0001:000920f0       ?DeathSound@CHGrunt@@UAEXXZ 100930f0 f   hgrunt.obj
 0001:000921e0       ?ScheduleFromName@CHGrunt@@UAEPAUSchedule_t@@PBD@Z 100931e0 f   hgrunt.obj
 0001:00092210       ?SetActivity@CHGrunt@@UAEXW4Activity@@@Z 10093210 f   hgrunt.obj
 0001:00092410       ?GetSchedule@CHGrunt@@UAEPAUSchedule_t@@XZ 10093410 f   hgrunt.obj
 0001:00092970       ?GetScheduleOfType@CHGrunt@@UAEPAUSchedule_t@@H@Z 10093970 f   hgrunt.obj
 0001:00092cb0       ?Precache@CHGruntRepel@@UAEXXZ 10093cb0 f   hgrunt.obj
 0001:00092ce0       ?RepelUse@CHGruntRepel@@QAEXPAVCBaseEntity@@0W4USE_TYPE@@M@Z 10093ce0 f   hgrunt.obj
 0001:00092f40       ?KeyValue@CDeadHGrunt@@UAEXPAUKeyValueData_s@@@Z 10093f40 f   hgrunt.obj
 0001:00092fb0       ?Spawn@CDeadHGrunt@@UAEXXZ 10093fb0 f   hgrunt.obj
 0001:00093130       ?getGermanModelRequirement@CDeadHGrunt@@UAEHXZ 10094130 f   hgrunt.obj
 0001:00093140       ?getGermanModel@CDeadHGrunt@@UAEPBDXZ 10094140 f   hgrunt.obj
 0001:00093150       ?getNormalModel@CDeadHGrunt@@UAEPBDXZ 10094150 f   hgrunt.obj
 0001:00093160       ?onNewRouteNode@CHGrunt@@UAEXXZ 10094160 f   hgrunt.obj
 0001:000931a0       ?canResetBlend0@CHGrunt@@UAEHXZ 100941a0 f   hgrunt.obj
 0001:000931b0       ?onResetBlend0@CHGrunt@@UAEHXZ 100941b0 f   hgrunt.obj
 0001:00093220       ?checkHeadGore@CHGrunt@@QAEXH@Z 10094220 f   hgrunt.obj
 0001:000932c0       ??$GetClassPtr@VCHGrunt@@@@YAPAVCHGrunt@@PAV0@@Z 100942c0 f i hgrunt.obj
 0001:00093360       ??0CHGruntRepel@@QAE@XZ    10094360 f i hgrunt.obj
 0001:00093380       ??0CDeadHGrunt@@QAE@XZ     10094380 f i hgrunt.obj
 0001:000933a0       ?Classify@CDeadHGrunt@@UAEHXZ 100943a0 f i hgrunt.obj
 0001:000933b0       ?isOrganic@CDeadHGrunt@@UAEHXZ 100943b0 f i hgrunt.obj
 0001:000933c0       _monster_human_grunt       100943c0 f   hgrunt.obj
 0001:000933d0       _hgrunt                    100943d0 f   hgrunt.obj
 0001:000933e0       _human_grunt               100943e0 f   hgrunt.obj
 0001:000933f0       ?SpeakSentence@CHGrunt@@QAEXXZ 100943f0 f   hgrunt.obj
 0001:00093450       ?GibMonster@CHGrunt@@UAEXXZ 10094450 f   hgrunt.obj
 0001:00093460       ?CheckRangeAttack1@CHGrunt@@UAEHMM@Z 10094460 f   hgrunt.obj
 0001:00093550       ?TraceAttack@CHGrunt@@UAEXPAUentvars_s@@MVVector@@PAUTraceResult@@H@Z 10094550 f   hgrunt.obj
 0001:00093590       ?TraceAttack@CHGrunt@@UAEXPAUentvars_s@@MVVector@@PAUTraceResult@@HH@Z 10094590 f   hgrunt.obj
 0001:000935d0       ?TraceAttack@CHGrunt@@UAEXPAUentvars_s@@MVVector@@PAUTraceResult@@HHH@Z 100945d0 f   hgrunt.obj
 0001:00093610       ?Killed@CHGrunt@@UAEXPAUentvars_s@@0H@Z 10094610 f   hgrunt.obj
 0001:00093640       ?findCoverInDirection@CHGrunt@@QAEMABVVector@@ABM01PAV2@@Z 10094640 f   hgrunt.obj
 0001:00093670       ?tempStrafeTouch@CHGrunt@@QAEXPAVCBaseEntity@@@Z 10094670 f   hgrunt.obj
 0001:000936d0       ?StartTask@CHGrunt@@UAEXPAUTask_t@@@Z 100946d0 f   hgrunt.obj
 0001:00093850       ?RunTask@CHGrunt@@UAEXPAUTask_t@@@Z 10094850 f   hgrunt.obj
 0001:00093a70       ?Spawn@CHGruntRepel@@UAEXXZ 10094a70 f   hgrunt.obj
 0001:00093ab0       ?checkHeadGore@CHGrunt@@QAEXXZ 10094ab0 f   hgrunt.obj
 0001:00093ac0       ??$GetClassPtr@VCHGruntRepel@@@@YAPAVCHGruntRepel@@PAV0@@Z 10094ac0 f i hgrunt.obj
 0001:00093b70       ??$GetClassPtr@VCDeadHGrunt@@@@YAPAVCDeadHGrunt@@PAV0@@Z 10094b70 f i hgrunt.obj
 0001:00093c20       ?DeadTakeDamage@CHGrunt@@UAEHPAUentvars_s@@0MHH@Z 10094c20 f   hgrunt.obj
 0001:00093c50       ?Killed@CHGrunt@@UAEXPAUentvars_s@@H@Z 10094c50 f   hgrunt.obj
 0001:00093c70       ?TakeDamage@CHGrunt@@UAEHPAUentvars_s@@0MHH@Z 10094c70 f   hgrunt.obj
 0001:00094220       _monster_grunt_repel       10095220 f   hgrunt.obj
 0001:00094230       _hgrunt_repel              10095230 f   hgrunt.obj
 0001:00094240       _monster_human_grunt_repel 10095240 f   hgrunt.obj
 0001:00094250       _monster_hgrunt_repel      10095250 f   hgrunt.obj
 0001:00094260       _grunt_repel               10095260 f   hgrunt.obj
 0001:00094270       _human_grunt_repel         10095270 f   hgrunt.obj
 0001:00094280       _monster_hgrunt_dead       10095280 f   hgrunt.obj
 0001:00094290       _hgrunt_dead               10095290 f   hgrunt.obj
 0001:000942a0       _monster_human_grunt_dead  100952a0 f   hgrunt.obj
 0001:000942b0       _human_grunt_dead          100952b0 f   hgrunt.obj
 0001:000942c0       ?DeadTakeDamage@CHGrunt@@UAEHPAUentvars_s@@0MH@Z 100952c0 f   hgrunt.obj
 0001:000942f0       ?TakeDamage@CHGrunt@@UAEHPAUentvars_s@@0MH@Z 100952f0 f   hgrunt.obj
 0001:00094320       ??0CKingPin@@QAE@XZ        10095320 f   kingpin.obj
 0001:00094360       ?SetObjectCollisionBox@CKingPin@@UAEXXZ 10095360 f i kingpin.obj
 0001:00094400       ?DeathSound@CKingPin@@UAEXXZ 10095400 f   kingpin.obj
 0001:00094460       ?AlertSound@CKingPin@@UAEXXZ 10095460 f   kingpin.obj
 0001:000944c0       ?IdleSound@CKingPin@@UAEXXZ 100954c0 f   kingpin.obj
 0001:00094520       ?PainSound@CKingPin@@UAEXXZ 10095520 f   kingpin.obj
 0001:00094590       ?AttackSound@CKingPin@@QAEXXZ 10095590 f   kingpin.obj
 0001:000945f0       ?Precache@CKingPin@@UAEXXZ 100955f0 f   kingpin.obj
 0001:00094610       ?Spawn@CKingPin@@UAEXXZ    10095610 f   kingpin.obj
 0001:00094730       ?GetSchedule@CKingPin@@UAEPAUSchedule_t@@XZ 10095730 f   kingpin.obj
 0001:00094ab0       ?GetScheduleOfType@CKingPin@@UAEPAUSchedule_t@@H@Z 10095ab0 f   kingpin.obj
 0001:00094ae0       ?StartTask@CKingPin@@UAEXPAUTask_t@@@Z 10095ae0 f   kingpin.obj
 0001:00094b00       ?RunTask@CKingPin@@UAEXPAUTask_t@@@Z 10095b00 f   kingpin.obj
 0001:00094b20       ?CheckMeleeAttack1@CKingPin@@UAEHMM@Z 10095b20 f   kingpin.obj
 0001:00094b30       ?CheckMeleeAttack2@CKingPin@@UAEHMM@Z 10095b30 f   kingpin.obj
 0001:00094b40       ?CheckRangeAttack1@CKingPin@@UAEHMM@Z 10095b40 f   kingpin.obj
 0001:00094b50       ?CheckRangeAttack2@CKingPin@@UAEHMM@Z 10095b50 f   kingpin.obj
 0001:00094b60       ?CustomTouch@CKingPin@@QAEXPAVCBaseEntity@@@Z 10095b60 f   kingpin.obj
 0001:00094b70       ?Classify@CKingPin@@UAEHXZ 10095b70 f   kingpin.obj
 0001:00094b80       ?isOrganic@CKingPin@@UAEHXZ 10095b80 f   kingpin.obj
 0001:00094b90       ?IRelationship@CKingPin@@UAEHPAVCBaseEntity@@@Z 10095b90 f   kingpin.obj
 0001:00094ba0       ?ReportAIState@CKingPin@@UAEXXZ 10095ba0 f   kingpin.obj
 0001:00094bb0       ?TraceAttack@CKingPin@@UAEXPAUentvars_s@@MVVector@@PAUTraceResult@@HHHPAH@Z 10095bb0 f   kingpin.obj
 0001:00094c20       ?TakeDamage@CKingPin@@UAEHPAUentvars_s@@0MHH@Z 10095c20 f   kingpin.obj
 0001:00094cc0       ?DeadTakeDamage@CKingPin@@UAEHPAUentvars_s@@0MHH@Z 10095cc0 f   kingpin.obj
 0001:00094cf0       ?GibMonster@CKingPin@@UAEXH@Z 10095cf0 f   kingpin.obj
 0001:00094d00       ?SetYawSpeed@CKingPin@@UAEXXZ 10095d00 f   kingpin.obj
 0001:00094d10       ?getMonsterBlockIdleAutoUpdate@CKingPin@@UAEHXZ 10095d10 f   kingpin.obj
 0001:00094d20       ?forceIdleFrameReset@CKingPin@@UAEHXZ 10095d20 f   kingpin.obj
 0001:00094d30       ?usesAdvancedAnimSystem@CKingPin@@UAEHXZ 10095d30 f   kingpin.obj
 0001:00094d40       ?SetActivity@CKingPin@@UAEXW4Activity@@@Z 10095d40 f   kingpin.obj
 0001:00094d50       ?LookupActivityHard@CKingPin@@UAEHH@Z 10095d50 f   kingpin.obj
 0001:00094d90       ?tryActivitySubstitute@CKingPin@@UAEHH@Z 10095d90 f   kingpin.obj
 0001:00094db0       ?HandleEventQueueEvent@CKingPin@@UAEXH@Z 10095db0 f   kingpin.obj
 0001:00094dc0       ?HandleAnimEvent@CKingPin@@UAEXPAUMonsterEvent_t@@@Z 10095dc0 f   kingpin.obj
 0001:00094de0       ?findClosestPowerupableMonster@CKingPin@@QAEPAVCBaseMonster@@XZ 10095de0 f   kingpin.obj
 0001:00094f30       ?powerUpMonsters@CKingPin@@QAEXXZ 10095f30 f   kingpin.obj
 0001:00095020       ?removeFromPoweredUpCommandList@CKingPin@@UAEXPAVCBaseMonster@@@Z 10096020 f   kingpin.obj
 0001:00095030       ?deTargetMyCommandedMonsters@CKingPin@@QAEXXZ 10096030 f   kingpin.obj
 0001:00095110       ?forceEnemyOnPoweredUpMonsters@CKingPin@@QAEXPAVCBaseEntity@@H@Z 10096110 f   kingpin.obj
 0001:000951f0       ??$GetClassPtr@VCKingPin@@@@YAPAVCKingPin@@PAV0@@Z 100961f0 f i kingpin.obj
 0001:00095290       _monster_kingpin           10096290 f   kingpin.obj
 0001:000952a0       _kingpin                   100962a0 f   kingpin.obj
 0001:000952b0       _king                      100962b0 f   kingpin.obj
 0001:000952c0       ?MonsterThink@CKingPin@@UAEXXZ 100962c0 f   kingpin.obj
 0001:00095450       ?TraceAttack@CKingPin@@UAEXPAUentvars_s@@MVVector@@PAUTraceResult@@H@Z 10096450 f   kingpin.obj
 0001:00095490       ?TraceAttack@CKingPin@@UAEXPAUentvars_s@@MVVector@@PAUTraceResult@@HH@Z 10096490 f   kingpin.obj
 0001:000954d0       ?TraceAttack@CKingPin@@UAEXPAUentvars_s@@MVVector@@PAUTraceResult@@HHH@Z 100964d0 f   kingpin.obj
 0001:00095510       ?TakeDamage@CKingPin@@UAEHPAUentvars_s@@0MH@Z 10096510 f   kingpin.obj
 0001:00095540       ?DeadTakeDamage@CKingPin@@UAEHPAUentvars_s@@0MH@Z 10096540 f   kingpin.obj
 0001:00095570       ?GibMonster@CKingPin@@UAEXXZ 10096570 f   kingpin.obj
 0001:00095580       ?Killed@CKingPin@@UAEXPAUentvars_s@@0H@Z 10096580 f   kingpin.obj
 0001:00095680       ?Killed@CKingPin@@UAEXPAUentvars_s@@H@Z 10096680 f   kingpin.obj
 0001:000956a0       ?Save@CPantherEye@@UAEHAAVCSave@@@Z 100966a0 f   panthereye.obj
 0001:000956e0       ?Restore@CPantherEye@@UAEHAAVCRestore@@@Z 100966e0 f   panthereye.obj
 0001:00095720       ?ScheduleFromName@CPantherEye@@UAEPAUSchedule_t@@PBD@Z 10096720 f   panthereye.obj
 0001:00095750       ?IRelationship@CPantherEye@@UAEHPAVCBaseEntity@@@Z 10096750 f   panthereye.obj
 0001:000957a0       ?Classify@CPantherEye@@UAEHXZ 100967a0 f   panthereye.obj
 0001:000957b0       ?SetYawSpeed@CPantherEye@@UAEXXZ 100967b0 f   panthereye.obj
 0001:000957c0       ?TraceAttack@CPantherEye@@UAEXPAUentvars_s@@MVVector@@PAUTraceResult@@HHHPAH@Z 100967c0 f   panthereye.obj
 0001:00095810       ?TakeDamage@CPantherEye@@UAEHPAUentvars_s@@0MHH@Z 10096810 f   panthereye.obj
 0001:00095860       ?forceIdleFrameReset@CPantherEye@@UAEHXZ 10096860 f   panthereye.obj
 0001:00095870       ?usesAdvancedAnimSystem@CPantherEye@@UAEHXZ 10096870 f   panthereye.obj
 0001:00095880       ?LookupActivityHard@CPantherEye@@UAEHH@Z 10096880 f   panthereye.obj
 0001:00095bd0       ?tryActivitySubstitute@CPantherEye@@UAEHH@Z 10096bd0 f   panthereye.obj
 0001:00095de0       ?PainSound@CPantherEye@@UAEXXZ 10096de0 f   panthereye.obj
 0001:00095df0       ?AlertSound@CPantherEye@@UAEXXZ 10096df0 f   panthereye.obj
 0001:00095e00       ?IdleSound@CPantherEye@@UAEXXZ 10096e00 f   panthereye.obj
 0001:00095e60       ?AttackSound@CPantherEye@@QAEXXZ 10096e60 f   panthereye.obj
 0001:00095ec0       ?HandleAnimEvent@CPantherEye@@UAEXPAUMonsterEvent_t@@@Z 10096ec0 f   panthereye.obj
 0001:00096060       ??0CPantherEye@@QAE@XZ     10097060 f   panthereye.obj
 0001:000960d0       ?CheckRangeAttack1@CPantherEye@@UAEHMM@Z 100970d0 f i panthereye.obj
 0001:000960e0       ?CheckRangeAttack2@CPantherEye@@UAEHMM@Z 100970e0 f i panthereye.obj
 0001:000960f0       ?CoverRadius@CPantherEye@@UAEMXZ 100970f0 f i panthereye.obj
 0001:00096100       ?Spawn@CPantherEye@@UAEXXZ 10097100 f   panthereye.obj
 0001:00096220       ?Precache@CPantherEye@@UAEXXZ 10097220 f   panthereye.obj
 0001:00096330       ?DeathSound@CPantherEye@@UAEXXZ 10097330 f   panthereye.obj
 0001:000963a0       ?CheckMeleeAttack1@CPantherEye@@UAEHMM@Z 100973a0 f   panthereye.obj
 0001:00096420       ?IgnoreConditions@CPantherEye@@UAEHXZ 10097420 f   panthereye.obj
 0001:00096430       ?hasSeeEnemyFix@CPantherEye@@UAEHXZ 10097430 f   panthereye.obj
 0001:00096440       ?LeapTouch@CPantherEye@@QAEXPAVCBaseEntity@@@Z 10097440 f   panthereye.obj
 0001:00096510       ?MonsterThink@CPantherEye@@UAEXXZ 10097510 f   panthereye.obj
 0001:00096850       ?SetActivity@CPantherEye@@UAEXW4Activity@@@Z 10097850 f   panthereye.obj
 0001:00096970       ?GetSchedule@CPantherEye@@UAEPAUSchedule_t@@XZ 10097970 f   panthereye.obj
 0001:00096d00       ?GetScheduleOfType@CPantherEye@@UAEPAUSchedule_t@@H@Z 10097d00 f   panthereye.obj
 0001:00096e80       ??$GetClassPtr@VCPantherEye@@@@YAPAVCPantherEye@@PAV0@@Z 10097e80 f i panthereye.obj
 0001:00096f20       _monster_panthereye        10097f20 f   panthereye.obj
 0001:00096f30       _panthereye                10097f30 f   panthereye.obj
 0001:00096f40       _panther                   10097f40 f   panthereye.obj
 0001:00096f50       ?panthereye_findCoverFromEnemy@CPantherEye@@QAEXXZ 10097f50 f   panthereye.obj
 0001:000970d0       ?TraceAttack@CPantherEye@@UAEXPAUentvars_s@@MVVector@@PAUTraceResult@@H@Z 100980d0 f   panthereye.obj
 0001:00097110       ?TraceAttack@CPantherEye@@UAEXPAUentvars_s@@MVVector@@PAUTraceResult@@HH@Z 10098110 f   panthereye.obj
 0001:00097150       ?TraceAttack@CPantherEye@@UAEXPAUentvars_s@@MVVector@@PAUTraceResult@@HHH@Z 10098150 f   panthereye.obj
 0001:00097190       ?TakeDamage@CPantherEye@@UAEHPAUentvars_s@@0MH@Z 10098190 f   panthereye.obj
 0001:000971c0       ?HandleEventQueueEvent@CPantherEye@@UAEXH@Z 100981c0 f   panthereye.obj
 0001:00097850       ?ChaseOrCircle@CPantherEye@@QAEPAUSchedule_t@@XZ 10098850 f   panthereye.obj
 0001:000978e0       ?StartTask@CPantherEye@@UAEXPAUTask_t@@@Z 100988e0 f   panthereye.obj
 0001:00097d30       ?RunTask@CPantherEye@@UAEXPAUTask_t@@@Z 10098d30 f   panthereye.obj
 0001:00098890       ?ScheduleFromName@CPickupWalker@@UAEPAUSchedule_t@@PBD@Z 10099890 f   pickupwalker.obj
 0001:000988c0       ?Precache@CPickupWalker@@UAEXXZ 100998c0 f   pickupwalker.obj
 0001:000988d0       ?IdleSound@CPickupWalker@@UAEXXZ 100998d0 f   pickupwalker.obj
 0001:000988e0       ?Spawn@CPickupWalker@@UAEXXZ 100998e0 f   pickupwalker.obj
 0001:00098910       ?GetSchedule@CPickupWalker@@UAEPAUSchedule_t@@XZ 10099910 f   pickupwalker.obj
 0001:00098920       ?GetScheduleOfType@CPickupWalker@@UAEPAUSchedule_t@@H@Z 10099920 f   pickupwalker.obj
 0001:00098940       ?PickupWalkerThink@CPickupWalker@@QAEXXZ 10099940 f   pickupwalker.obj
 0001:00098950       ?myWeaponClassname@CPickupWalker@@UAEPBDXZ 10099950 f   pickupwalker.obj
 0001:00098960       ?myWeaponAmmoName@CPickupWalker@@UAEPBDXZ 10099960 f   pickupwalker.obj
 0001:00098970       ?myWeaponSlot@CPickupWalker@@UAEHXZ 10099970 f   pickupwalker.obj
 0001:00098980       ?myWeaponMaxAmmo@CPickupWalker@@UAEHXZ 10099980 f   pickupwalker.obj
 0001:00098990       ?skipSpawnStuckCheck@CPickupWalker@@UAEHXZ 10099990 f   pickupwalker.obj
 0001:000989a0       ?isOrganic@CPickupWalker@@UAEHXZ 100999a0 f   pickupwalker.obj
 0001:000989b0       ?PickupWalkerTouch@CPickupWalker@@QAEXPAVCBaseEntity@@@Z 100999b0 f   pickupwalker.obj
 0001:00098ac0       ?MonsterThink@CPickupWalker@@UAEXXZ 10099ac0 f   pickupwalker.obj
 0001:00098ad0       ?TraceAttack@CPickupWalker@@UAEXPAUentvars_s@@MVVector@@PAUTraceResult@@HHHPAH@Z 10099ad0 f   pickupwalker.obj
 0001:00098ae0       ?TakeDamage@CPickupWalker@@UAEHPAUentvars_s@@0MHH@Z 10099ae0 f   pickupwalker.obj
 0001:00098af0       ?DeadTakeDamage@CPickupWalker@@UAEHPAUentvars_s@@0MHH@Z 10099af0 f   pickupwalker.obj
 0001:00098b00       ?Killed@CPickupWalker@@UAEXPAUentvars_s@@0H@Z 10099b00 f   pickupwalker.obj
 0001:00098b10       ?Precache@CChumToadPickupWalker@@UAEXXZ 10099b10 f   pickupwalker.obj
 0001:00098b60       ?Spawn@CChumToadPickupWalker@@UAEXXZ 10099b60 f   pickupwalker.obj
 0001:00098c90       ?IdleSound@CChumToadPickupWalker@@UAEXXZ 10099c90 f   pickupwalker.obj
 0001:00098cf0       ?myWeaponClassname@CChumToadPickupWalker@@UAEPBDXZ 10099cf0 f   pickupwalker.obj
 0001:00098d00       ?myWeaponAmmoName@CChumToadPickupWalker@@UAEPBDXZ 10099d00 f   pickupwalker.obj
 0001:00098d10       ?myWeaponSlot@CChumToadPickupWalker@@UAEHXZ 10099d10 f   pickupwalker.obj
 0001:00098d20       ?myWeaponMaxAmmo@CChumToadPickupWalker@@UAEHXZ 10099d20 f   pickupwalker.obj
 0001:00098d30       ?forceIdleFrameReset@CChumToadPickupWalker@@UAEHXZ 10099d30 f   pickupwalker.obj
 0001:00098d40       ?usesAdvancedAnimSystem@CChumToadPickupWalker@@UAEHXZ 10099d40 f   pickupwalker.obj
 0001:00098d50       ?LookupActivityHard@CChumToadPickupWalker@@UAEHH@Z 10099d50 f   pickupwalker.obj
 0001:00098db0       ?tryActivitySubstitute@CChumToadPickupWalker@@UAEHH@Z 10099db0 f   pickupwalker.obj
 0001:00098df0       ?Precache@CSqueakPickupWalker@@UAEXXZ 10099df0 f   pickupwalker.obj
 0001:00098e40       ?Spawn@CSqueakPickupWalker@@UAEXXZ 10099e40 f   pickupwalker.obj
 0001:00098f70       ?IdleSound@CSqueakPickupWalker@@UAEXXZ 10099f70 f   pickupwalker.obj
 0001:00098fd0       ?myWeaponClassname@CSqueakPickupWalker@@UAEPBDXZ 10099fd0 f   pickupwalker.obj
 0001:00098fe0       ?myWeaponAmmoName@CSqueakPickupWalker@@UAEPBDXZ 10099fe0 f   pickupwalker.obj
 0001:00098ff0       ?myWeaponSlot@CSqueakPickupWalker@@UAEHXZ 10099ff0 f   pickupwalker.obj
 0001:00099000       ?myWeaponMaxAmmo@CSqueakPickupWalker@@UAEHXZ 1009a000 f   pickupwalker.obj
 0001:00099010       ?forceIdleFrameReset@CSqueakPickupWalker@@UAEHXZ 1009a010 f   pickupwalker.obj
 0001:00099020       ?usesAdvancedAnimSystem@CSqueakPickupWalker@@UAEHXZ 1009a020 f   pickupwalker.obj
 0001:00099030       ?LookupActivityHard@CSqueakPickupWalker@@UAEHH@Z 1009a030 f   pickupwalker.obj
 0001:00099090       ?tryActivitySubstitute@CSqueakPickupWalker@@UAEHH@Z 1009a090 f   pickupwalker.obj
 0001:000990d0       ??0CPickupWalker@@QAE@XZ   1009a0d0 f i pickupwalker.obj
 0001:000990f0       ?Classify@CPickupWalker@@UAEHXZ 1009a0f0 f i pickupwalker.obj
 0001:00099100       ?StartTask@CPickupWalker@@UAEXPAUTask_t@@@Z 1009a100 f   pickupwalker.obj
 0001:00099140       ?RunTask@CPickupWalker@@UAEXPAUTask_t@@@Z 1009a140 f   pickupwalker.obj
 0001:00099190       ?TraceAttack@CPickupWalker@@UAEXPAUentvars_s@@MVVector@@PAUTraceResult@@H@Z 1009a190 f   pickupwalker.obj
 0001:000991d0       ?TraceAttack@CPickupWalker@@UAEXPAUentvars_s@@MVVector@@PAUTraceResult@@HH@Z 1009a1d0 f   pickupwalker.obj
 0001:00099210       ?TraceAttack@CPickupWalker@@UAEXPAUentvars_s@@MVVector@@PAUTraceResult@@HHH@Z 1009a210 f   pickupwalker.obj
 0001:00099250       ?TakeDamage@CPickupWalker@@UAEHPAUentvars_s@@0MH@Z 1009a250 f   pickupwalker.obj
 0001:00099280       ?DeadTakeDamage@CPickupWalker@@UAEHPAUentvars_s@@0MH@Z 1009a280 f   pickupwalker.obj
 0001:000992b0       ?Killed@CPickupWalker@@UAEXPAUentvars_s@@H@Z 1009a2b0 f   pickupwalker.obj
 0001:000992d0       ??0CChumToadPickupWalker@@QAE@XZ 1009a2d0 f i pickupwalker.obj
 0001:000992f0       ??0CSqueakPickupWalker@@QAE@XZ 1009a2f0 f i pickupwalker.obj
 0001:00099310       ??$GetClassPtr@VCChumToadPickupWalker@@@@YAPAVCChumToadPickupWalker@@PAV0@@Z 1009a310 f i pickupwalker.obj
 0001:000993c0       ??$GetClassPtr@VCSqueakPickupWalker@@@@YAPAVCSqueakPickupWalker@@PAV0@@Z 1009a3c0 f i pickupwalker.obj
 0001:00099470       _monster_chumtoadpickupwalker 1009a470 f   pickupwalker.obj
 0001:00099480       _chumtoadpickupwalker      1009a480 f   pickupwalker.obj
 0001:00099490       _monster_snarkpickupwalker 1009a490 f   pickupwalker.obj
 0001:000994a0       _snarkpickupwalker         1009a4a0 f   pickupwalker.obj
 0001:000994b0       ?GetNumSegments@CRope@@QBEIXZ 1009a4b0 f i CElectrifiedWire.obj
 0001:000994c0       ?GetSegments@CRope@@QAEPAPAVCRopeSegment@@XZ 1009a4c0 f i CElectrifiedWire.obj
 0001:000994d0       ?GetAltSegments@CRope@@QAEPAPAVCRopeSegment@@XZ 1009a4d0 f i CElectrifiedWire.obj
 0001:000994e0       ?GetToggleValue@CRope@@QBEHXZ 1009a4e0 f i CElectrifiedWire.obj
 0001:000994f0       ?SetSoundAllowed@CRope@@QAEX_N@Z 1009a4f0 f i CElectrifiedWire.obj
 0001:00099510       ?IsActive@CElectrifiedWire@@QBEHXZ 1009a510 f i CElectrifiedWire.obj
 0001:00099520       ?Save@CElectrifiedWire@@UAEHAAVCSave@@@Z 1009a520 f   CElectrifiedWire.obj
 0001:00099560       ?Restore@CElectrifiedWire@@UAEHAAVCRestore@@@Z 1009a560 f   CElectrifiedWire.obj
 0001:000995a0       ??0CElectrifiedWire@@QAE@XZ 1009a5a0 f   CElectrifiedWire.obj
 0001:00099600       ?KeyValue@CElectrifiedWire@@UAEXPAUKeyValueData_s@@@Z 1009a600 f   CElectrifiedWire.obj
 0001:000997c0       ?Precache@CElectrifiedWire@@UAEXXZ 1009a7c0 f   CElectrifiedWire.obj
 0001:000997e0       ?Spawn@CElectrifiedWire@@UAEXXZ 1009a7e0 f   CElectrifiedWire.obj
 0001:000998e0       ?Use@CElectrifiedWire@@UAEXPAVCBaseEntity@@0W4USE_TYPE@@M@Z 1009a8e0 f   CElectrifiedWire.obj
 0001:00099990       ?ShouldDoEffect@CElectrifiedWire@@QAEHH@Z 1009a990 f   CElectrifiedWire.obj
 0001:000999c0       ?DoSpark@CElectrifiedWire@@QAEXIH@Z 1009a9c0 f   CElectrifiedWire.obj
 0001:00099a90       ?DoLightning@CElectrifiedWire@@QAEXXZ 1009aa90 f   CElectrifiedWire.obj
 0001:00099bc0       ??$GetClassPtr@VCElectrifiedWire@@@@YAPAVCElectrifiedWire@@PAV0@@Z 1009abc0 f i CElectrifiedWire.obj
 0001:00099c60       _env_electrified_wire      1009ac60 f   CElectrifiedWire.obj
 0001:00099c70       ?Think@CElectrifiedWire@@UAEXXZ 1009ac70 f   CElectrifiedWire.obj
 0001:00099d30       _acosf                     1009ad30 f i CRope.obj
 0001:00099d50       ?acos@@YAMM@Z              1009ad50 f i CRope.obj
 0001:00099d70       ?NormalizeInPlace@Vector@@QAEMXZ 1009ad70 f i CRope.obj
 0001:00099e00       ?GetData@CRopeSample@@QAEAAURopeSampleData@@XZ 1009ae00 f i CRope.obj
 0001:00099e10       ?SetMasterRope@CRopeSample@@QAEXPAVCRope@@@Z 1009ae10 f i CRope.obj
 0001:00099e20       ?GetSample@CRopeSegment@@QAEPAVCRopeSample@@XZ 1009ae20 f i CRope.obj
 0001:00099e30       ?GetBodyModel@CRope@@QBEHXZ 1009ae30 f i CRope.obj
 0001:00099e40       ?GetEndingModel@CRope@@QBEHXZ 1009ae40 f i CRope.obj
 0001:00099e50       ??1CRope@@QAE@XZ           1009ae50 f   CRope.obj
 0001:00099e90       ?KeyValue@CRope@@UAEXPAUKeyValueData_s@@@Z 1009ae90 f   CRope.obj
 0001:0009a000       ?Precache@CRope@@UAEXXZ    1009b000 f   CRope.obj
 0001:0009a040       ?Touch@CRope@@UAEXPAVCBaseEntity@@@Z 1009b040 f   CRope.obj
 0001:0009a050       ?Save@CRope@@UAEHAAVCSave@@@Z 1009b050 f   CRope.obj
 0001:0009a090       ??0RopeSampleData@@QAE@XZ  1009b090 f i CRope.obj
 0001:0009a0a0       ?InitializeRopeSim@CRope@@QAEXXZ 1009b0a0 f   CRope.obj
 0001:0009a490       ?InitializeSprings@CRope@@QAEXI@Z 1009b490 f   CRope.obj
 0001:0009a5c0       ?ComputeSampleForce@CRope@@QAEXAAURopeSampleData@@@Z 1009b5c0 f   CRope.obj
 0001:0009a750       ?ComputeSpringForce@CRope@@QAEXAAURopeSampleData@@0ABUSpring@@@Z 1009b750 f   CRope.obj
 0001:0009a8a0       ?GetAlignmentAngles@@YAXABVVector@@0AAV1@@Z 1009b8a0 f   CRope.obj
 0001:0009a9a0       ?TruncateEpsilon@@YAXAAVVector@@@Z 1009b9a0 f   CRope.obj
 0001:0009aa20       ?MoveUp@CRope@@QAEHM@Z     1009ba20 f   CRope.obj
 0001:0009ab50       ?MoveDown@CRope@@QAEHM@Z   1009bb50 f   CRope.obj
 0001:0009acb0       ?GetAttachedObjectsVelocity@CRope@@QBE?AVVector@@XZ 1009bcb0 f   CRope.obj
 0001:0009ad20       ?ApplyForceToSegment@CRope@@QAEXABVVector@@I@Z 1009bd20 f   CRope.obj
 0001:0009ada0       ?DetachObject@CRope@@QAEXXZ 1009bda0 f   CRope.obj
 0001:0009adc0       ?IsAcceptingAttachment@CRope@@QBEHXZ 1009bdc0 f   CRope.obj
 0001:0009ae00       ?ShouldCreak@CRope@@QBEHXZ 1009be00 f   CRope.obj
 0001:0009ae90       ?Creak@CRope@@QAEXXZ       1009be90 f   CRope.obj
 0001:0009aee0       ?GetSegmentLength@CRope@@QBEMI@Z 1009bee0 f   CRope.obj
 0001:0009af70       ?GetRopeLength@CRope@@QBEMXZ 1009bf70 f   CRope.obj
 0001:0009b030       ?GetRopeOrigin@CRope@@QBE?AVVector@@XZ 1009c030 f   CRope.obj
 0001:0009b060       ?IsValidSegmentIndex@CRope@@QBEHI@Z 1009c060 f   CRope.obj
 0001:0009b080       ?GetSegmentOrigin@CRope@@QBE?AVVector@@I@Z 1009c080 f   CRope.obj
 0001:0009b0e0       ?GetSegmentAttachmentPoint@CRope@@QBE?AVVector@@I@Z 1009c0e0 f   CRope.obj
 0001:0009b160       ?SetAttachedObjectsSegment@CRope@@QAEXPAVCRopeSegment@@@Z 1009c160 f   CRope.obj
 0001:0009b1a0       ?GetSegmentDirFromOrigin@CRope@@QBE?AVVector@@I@Z 1009c1a0 f   CRope.obj
 0001:0009b240       ?GetAttachedObjectsPosition@CRope@@QBE?AVVector@@XZ 1009c240 f   CRope.obj
 0001:0009b320       ??0CRope@@QAE@XZ           1009c320 f   CRope.obj
 0001:0009b360       ?Spawn@CRope@@UAEXXZ       1009c360 f   CRope.obj
 0001:0009b7d0       ?Restore@CRope@@UAEHAAVCRestore@@@Z 1009c7d0 f   CRope.obj
 0001:0009b860       ?ComputeForces@CRope@@QAEXPAURopeSampleData@@@Z 1009c860 f   CRope.obj
 0001:0009b8e0       ?ComputeForces@CRope@@QAEXPAPAVCRopeSample@@@Z 1009c8e0 f   CRope.obj
 0001:0009b960       ?RK4Integrate@CRope@@QAEXMPAPAVCRopeSample@@0@Z 1009c960 f   CRope.obj
 0001:0009bfb0       ?TraceModels@CRope@@QAEXPAPAVCRopeSegment@@0@Z 1009cfb0 f   CRope.obj
 0001:0009c590       ?SetRopeSegments@CRope@@QAEXIPAPAVCRopeSegment@@0@Z 1009d590 f   CRope.obj
 0001:0009c680       ?ApplyForceFromPlayer@CRope@@QAEXABVVector@@@Z 1009d680 f   CRope.obj
 0001:0009c700       ?AttachObjectToSegment@CRope@@QAEXPAVCRopeSegment@@@Z 1009d700 f   CRope.obj
 0001:0009c730       ??$GetClassPtr@VCRope@@@@YAPAVCRope@@PAV0@@Z 1009d730 f i CRope.obj
 0001:0009c7d0       _env_rope                  1009d7d0 f   CRope.obj
 0001:0009c7e0       ?RunSimOnSamples@CRope@@QAEXXZ 1009d7e0 f   CRope.obj
 0001:0009c8a0       ?Think@CRope@@UAEXXZ       1009d8a0 f   CRope.obj
 0001:0009c940       ?Save@CRopeSample@@UAEHAAVCSave@@@Z 1009d940 f   CRopeSample.obj
 0001:0009c980       ?Restore@CRopeSample@@UAEHAAVCRestore@@@Z 1009d980 f   CRopeSample.obj
 0001:0009c9c0       ?Spawn@CRopeSample@@UAEXXZ 1009d9c0 f   CRopeSample.obj
 0001:0009c9d0       ?CreateSample@CRopeSample@@SAPAV1@XZ 1009d9d0 f   CRopeSample.obj
 0001:0009c9f0       ??0CRopeSample@@QAE@XZ     1009d9f0 f i CRopeSample.obj
 0001:0009ca10       ??$GetClassPtr@VCRopeSample@@@@YAPAVCRopeSample@@PAV0@@Z 1009da10 f i CRopeSample.obj
 0001:0009cac0       _rope_sample               1009dac0 f   CRopeSample.obj
 0001:0009cad0       ?IsSoundAllowed@CRope@@QBEHXZ 1009dad0 f i CRopeSegment.obj
 0001:0009cae0       ?IsOnRope@CBasePlayer@@QBEHXZ 1009dae0 f i CRopeSegment.obj
 0001:0009caf0       ?SetOnRopeState@CBasePlayer@@QAEX_N@Z 1009daf0 f i CRopeSegment.obj
 0001:0009cb10       ?SetRope@CBasePlayer@@QAEXPAVCRope@@@Z 1009db10 f i CRopeSegment.obj
 0001:0009cb20       ?GetMasterRope@CRopeSample@@QAEPAVCRope@@XZ 1009db20 f i CRopeSegment.obj
 0001:0009cb30       ?Save@CRopeSegment@@UAEHAAVCSave@@@Z 1009db30 f   CRopeSegment.obj
 0001:0009cb70       ?Restore@CRopeSegment@@UAEHAAVCRestore@@@Z 1009db70 f   CRopeSegment.obj
 0001:0009cbb0       ??0CRopeSegment@@QAE@XZ    1009dbb0 f   CRopeSegment.obj
 0001:0009cbe0       ?Precache@CRopeSegment@@UAEXXZ 1009dbe0 f   CRopeSegment.obj
 0001:0009cc10       ?Spawn@CRopeSegment@@UAEXXZ 1009dc10 f   CRopeSegment.obj
 0001:0009cce0       ?Think@CRopeSegment@@UAEXXZ 1009dce0 f   CRopeSegment.obj
 0001:0009ccf0       ?CreateSegment@CRopeSegment@@SAPAV1@PAVCRopeSample@@H@Z 1009dcf0 f   CRopeSegment.obj
 0001:0009cd50       ?ApplyExternalForce@CRopeSegment@@QAEXABVVector@@@Z 1009dd50 f   CRopeSegment.obj
 0001:0009cdb0       ?SetMassToDefault@CRopeSegment@@QAEXXZ 1009ddb0 f   CRopeSegment.obj
 0001:0009cdd0       ?SetDefaultMass@CRopeSegment@@QAEXM@Z 1009ddd0 f   CRopeSegment.obj
 0001:0009cde0       ?SetMass@CRopeSegment@@QAEXM@Z 1009dde0 f   CRopeSegment.obj
 0001:0009ce00       ?SetCauseDamageOnTouch@CRopeSegment@@QAEXH@Z 1009de00 f   CRopeSegment.obj
 0001:0009ce10       ?SetCanBeGrabbed@CRopeSegment@@QAEXH@Z 1009de10 f   CRopeSegment.obj
 0001:0009ce20       ??$GetClassPtr@VCRopeSegment@@@@YAPAVCRopeSegment@@PAV0@@Z 1009de20 f i CRopeSegment.obj
 0001:0009cec0       _rope_segment              1009dec0 f   CRopeSegment.obj
 0001:0009ced0       ?Touch@CRopeSegment@@UAEXPAVCBaseEntity@@@Z 1009ded0 f   CRopeSegment.obj
 0001:0009d0a0       ??0PrintQueue@@QAE@PBD@Z   1009e0a0 f i stukabat.obj
 0001:0009d0e0       ?sendToPrintQueue@PrintQueue@@QAAXPBDZZ 1009e0e0 f i stukabat.obj
 0001:0009d130       ?receivePrintQueue@PrintQueue@@QAEXPADPAH@Z 1009e130 f i stukabat.obj
 0001:0009d1f0       ?clearPrintQueue@PrintQueue@@QAEXXZ 1009e1f0 f i stukabat.obj
 0001:0009d200       ??0StukaPrintQueueManager@@QAE@PBD@Z 1009e200 f i stukabat.obj
 0001:0009d380       ?clearAll@StukaPrintQueueManager@@QAEXXZ 1009e380 f i stukabat.obj
 0001:0009d3c0       ?printOutAll@StukaPrintQueueManager@@QAEXXZ 1009e3c0 f i stukabat.obj
 0001:0009d510       ?Save@CStukaBat@@UAEHAAVCSave@@@Z 1009e510 f   stukabat.obj
 0001:0009d550       ?Restore@CStukaBat@@UAEHAAVCRestore@@@Z 1009e550 f   stukabat.obj
 0001:0009d5a0       ?Classify@CStukaBat@@UAEHXZ 1009e5a0 f   stukabat.obj
 0001:0009d5b0       ?SetYawSpeed@CStukaBat@@UAEXXZ 1009e5b0 f   stukabat.obj
 0001:0009d650       ?getMeleeAnimScaler@CStukaBat@@QAEMXZ 1009e650 f   stukabat.obj
 0001:0009d680       ?getAttackDelay@CStukaBat@@QAEMXZ 1009e680 f   stukabat.obj
 0001:0009d6f0       ?TraceAttack@CStukaBat@@UAEXPAUentvars_s@@MVVector@@PAUTraceResult@@HHHPAH@Z 1009e6f0 f   stukabat.obj
 0001:0009d740       ?TakeDamage@CStukaBat@@UAEHPAUentvars_s@@0MHH@Z 1009e740 f   stukabat.obj
 0001:0009d7a0       ?Killed@CStukaBat@@UAEXPAUentvars_s@@0H@Z 1009e7a0 f   stukabat.obj
 0001:0009d810       ?GibMonster@CStukaBat@@UAEXXZ 1009e810 f   stukabat.obj
 0001:0009d820       ?GibMonster@CStukaBat@@UAEXH@Z 1009e820 f   stukabat.obj
 0001:0009d830       ?PainSound@CStukaBat@@UAEXXZ 1009e830 f   stukabat.obj
 0001:0009d8c0       ?tryDetachFromCeiling@CStukaBat@@QAEXXZ 1009e8c0 f   stukabat.obj
 0001:0009d940       ?MakeIdealYaw@CStukaBat@@UAEXVVector@@@Z 1009e940 f   stukabat.obj
 0001:0009d970       ?ForceMakeIdealYaw@CStukaBat@@QAEXVVector@@@Z 1009e970 f   stukabat.obj
 0001:0009d9a0       ?ForceChangeYaw@CStukaBat@@UAEMH@Z 1009e9a0 f   stukabat.obj
 0001:0009d9b0       ?CallForHelp@CStukaBat@@QAEXPADMVEHANDLE@@AAVVector@@@Z 1009e9b0 f   stukabat.obj
 0001:0009db10       ?AlertSound@CStukaBat@@UAEXXZ 1009eb10 f   stukabat.obj
 0001:0009dbc0       ?IdleSound@CStukaBat@@UAEXXZ 1009ebc0 f   stukabat.obj
 0001:0009dc30       ?AttackSound@CStukaBat@@QAEXXZ 1009ec30 f   stukabat.obj
 0001:0009dca0       ?DeathSound@CStukaBat@@UAEXXZ 1009eca0 f   stukabat.obj
 0001:0009dd10       ?KeyValue@CStukaBat@@UAEXPAUKeyValueData_s@@@Z 1009ed10 f   stukabat.obj
 0001:0009dd20       ?HandleAnimEvent@CStukaBat@@UAEXPAUMonsterEvent_t@@@Z 1009ed20 f   stukabat.obj
 0001:0009dd30       ??0CStukaBat@@QAE@XZ       1009ed30 f   stukabat.obj
 0001:0009ddf0       ?SetObjectCollisionBox@CStukaBat@@UAEXXZ 1009edf0 f i stukabat.obj
 0001:0009dee0       ?heardBulletHit@CStukaBat@@UAEXPAUentvars_s@@@Z 1009eee0 f   stukabat.obj
 0001:0009df00       ?isProvokable@CStukaBat@@UAEHXZ 1009ef00 f   stukabat.obj
 0001:0009df10       ?isProvoked@CStukaBat@@UAEHXZ 1009ef10 f   stukabat.obj
 0001:0009df20       ?IRelationship@CStukaBat@@UAEHPAVCBaseEntity@@@Z 1009ef20 f   stukabat.obj
 0001:0009dfd0       ?Precache@CStukaBat@@UAEXXZ 1009efd0 f   stukabat.obj
 0001:0009e0f0       ?ScheduleFromName@CStukaBat@@UAEPAUSchedule_t@@PBD@Z 1009f0f0 f   stukabat.obj
 0001:0009e120       ?LookupFloat@CStukaBat@@QAEHXZ 1009f120 f   stukabat.obj
 0001:0009e250       ?getEnemy@CStukaBat@@QAEPAVEHANDLE@@XZ 1009f250 f   stukabat.obj
 0001:0009e280       ?updateMoveAnim@CStukaBat@@QAEXXZ 1009f280 f   stukabat.obj
 0001:0009e380       ?getHasPathFindingModA@CStukaBat@@UAEHXZ 1009f380 f   stukabat.obj
 0001:0009e390       ?getHasPathFindingMod@CStukaBat@@UAEHXZ 1009f390 f   stukabat.obj
 0001:0009e3a0       ?abortAttack@CStukaBat@@QAEXXZ 1009f3a0 f   stukabat.obj
 0001:0009e420       ?RadiusDamageNoFriendly@CStukaBat@@QAEXPAUentvars_s@@0MHH@Z 1009f420 f   stukabat.obj
 0001:0009e6d0       ?GetScheduleOfType@CStukaBat@@UAEPAUSchedule_t@@H@Z 1009f6d0 f   stukabat.obj
 0001:0009e8d0       ?CheckRangeAttack1@CStukaBat@@UAEHMM@Z 1009f8d0 f   stukabat.obj
 0001:0009e8e0       ?CheckRangeAttack2@CStukaBat@@UAEHMM@Z 1009f8e0 f   stukabat.obj
 0001:0009e8f0       ?CheckMeleeAttack1@CStukaBat@@UAEHMM@Z 1009f8f0 f   stukabat.obj
 0001:0009e900       ?allowedToSetActivity@CStukaBat@@UAEHXZ 1009f900 f   stukabat.obj
 0001:0009e910       ?SetActivity@CStukaBat@@UAEXW4Activity@@@Z 1009f910 f   stukabat.obj
 0001:0009e930       ?SetActivity@CStukaBat@@UAEXW4Activity@@H@Z 1009f930 f   stukabat.obj
 0001:0009ed80       ?RunAI@CStukaBat@@UAEXXZ   1009fd80 f   stukabat.obj
 0001:0009ed90       ?SetTurnActivity@CStukaBat@@UAEXXZ 1009fd90 f   stukabat.obj
 0001:0009edb0       ?GetStoppedActivity@CStukaBat@@UAE?AW4Activity@@XZ 1009fdb0 f   stukabat.obj
 0001:0009edd0       ?Stop@CStukaBat@@UAEXXZ    1009fdd0 f   stukabat.obj
 0001:0009ede0       ?Move@CStukaBat@@UAEXM@Z   1009fde0 f   stukabat.obj
 0001:0009ee00       ?ShouldAdvanceRoute@CStukaBat@@QAEHM@Z 1009fe00 f   stukabat.obj
 0001:0009ee30       ?CheckLocalMove@CStukaBat@@UAEHABVVector@@0PAVCBaseEntity@@PAM@Z 1009fe30 f   stukabat.obj
 0001:0009ef50       ?setAnimation@CStukaBat@@QAEXPAD@Z 1009ff50 f   stukabat.obj
 0001:0009efd0       ?setAnimation@CStukaBat@@QAEXPADH@Z 1009ffd0 f   stukabat.obj
 0001:0009f050       ?setAnimation@CStukaBat@@QAEXPADHH@Z 100a0050 f   stukabat.obj
 0001:0009f0d0       ?setAnimation@CStukaBat@@QAEXPADHHH@Z 100a00d0 f   stukabat.obj
 0001:0009f190       ?safeSetMoveFlyNoInterrupt@CStukaBat@@QAEXM@Z 100a0190 f   stukabat.obj
 0001:0009f1b0       ?safeSetBlockSetActivity@CStukaBat@@QAEXM@Z 100a01b0 f   stukabat.obj
 0001:0009f1f0       ?ISoundMask@CStukaBat@@UAEHXZ 100a01f0 f   stukabat.obj
 0001:0009f200       ?Activate@CStukaBat@@UAEXXZ 100a0200 f   stukabat.obj
 0001:0009f210       ?DefaultSpawnNotice@CStukaBat@@UAEXXZ 100a0210 f   stukabat.obj
 0001:0009f220       ?ForceSpawnFlag@CStukaBat@@UAEXH@Z 100a0220 f   stukabat.obj
 0001:0009f230       ?HearingSensitivity@CStukaBat@@UAEMXZ 100a0230 f   stukabat.obj
 0001:0009f280       ?customTouch@CStukaBat@@QAEXPAVCBaseEntity@@@Z 100a0280 f   stukabat.obj
 0001:0009f290       ?checkTraceLine@CStukaBat@@QAEXABVVector@@ABM100ABHH@Z 100a0290 f   stukabat.obj
 0001:0009f5d0       ?MoveYawDegreeTolerance@CStukaBat@@UAEMXZ 100a05d0 f   stukabat.obj
 0001:0009f5f0       ?usesAdvancedAnimSystem@CStukaBat@@UAEHXZ 100a05f0 f   stukabat.obj
 0001:0009f600       ?LookupActivityHard@CStukaBat@@UAEHH@Z 100a0600 f   stukabat.obj
 0001:0009f6e0       ?tryActivitySubstitute@CStukaBat@@UAEHH@Z 100a06e0 f   stukabat.obj
 0001:0009f700       ?ReportAIState@CStukaBat@@UAEXXZ 100a0700 f   stukabat.obj
 0001:0009f790       ?GetStumpedWaitSchedule@CStukaBat@@UAEPAUSchedule_t@@XZ 100a0790 f   stukabat.obj
 0001:0009f7a0       ??$GetClassPtr@VCStukaBat@@@@YAPAVCStukaBat@@PAV0@@Z 100a07a0 f i stukabat.obj
 0001:0009f840       _monster_stukabat          100a0840 f   stukabat.obj
 0001:0009f850       _stukabat                  100a0850 f   stukabat.obj
 0001:0009f860       _stuka                     100a0860 f   stukabat.obj
 0001:0009f870       ?TraceAttack@CStukaBat@@UAEXPAUentvars_s@@MVVector@@PAUTraceResult@@H@Z 100a0870 f   stukabat.obj
 0001:0009f8b0       ?TraceAttack@CStukaBat@@UAEXPAUentvars_s@@MVVector@@PAUTraceResult@@HH@Z 100a08b0 f   stukabat.obj
 0001:0009f8f0       ?TraceAttack@CStukaBat@@UAEXPAUentvars_s@@MVVector@@PAUTraceResult@@HHH@Z 100a08f0 f   stukabat.obj
 0001:0009f930       ?TakeDamage@CStukaBat@@UAEHPAUentvars_s@@0MH@Z 100a0930 f   stukabat.obj
 0001:0009f960       ?Killed@CStukaBat@@UAEXPAUentvars_s@@H@Z 100a0960 f   stukabat.obj
 0001:0009f980       ?ChangeYaw@CStukaBat@@UAEMH@Z 100a0980 f   stukabat.obj
 0001:0009fad0       ?checkStartSnap@CStukaBat@@QAEXXZ 100a0ad0 f   stukabat.obj
 0001:0009ff50       ?getPathToEnemyCustom@CStukaBat@@QAEXXZ 100a0f50 f   stukabat.obj
 0001:000a0120       ?StartTask@CStukaBat@@UAEXPAUTask_t@@@Z 100a1120 f   stukabat.obj
 0001:000a04c0       ?RunTask@CStukaBat@@UAEXPAUTask_t@@@Z 100a14c0 f   stukabat.obj
 0001:000a17e0       ?GetSchedule@CStukaBat@@UAEPAUSchedule_t@@XZ 100a27e0 f   stukabat.obj
 0001:000a1ef0       ?SetTurnActivityCustom@CStukaBat@@QAEXXZ 100a2ef0 f   stukabat.obj
 0001:000a2080       ?MonsterThink@CStukaBat@@UAEXXZ 100a3080 f   stukabat.obj
 0001:000a26a0       ?checkTraceLine@CStukaBat@@QAEXABVVector@@ABM100ABH@Z 100a36a0 f   stukabat.obj
 0001:000a26d0       ?checkFloor@CStukaBat@@QAEXABVVector@@ABM1@Z 100a36d0 f   stukabat.obj
 0001:000a3170       ?Spawn@CStukaBat@@UAEXXZ   100a4170 f   stukabat.obj
 0001:000a32f0       ?MoveExecute@CStukaBat@@UAEXPAVCBaseEntity@@ABVVector@@M@Z 100a42f0 f   stukabat.obj
 0001:000a3aa0       ?Save@CHornet@@UAEHAAVCSave@@@Z 100a4aa0 f   hornet.obj
 0001:000a3ae0       ?Restore@CHornet@@UAEHAAVCRestore@@@Z 100a4ae0 f   hornet.obj
 0001:000a3b20       ?useSpiral@CHornet@@SAHXZ  100a4b20 f   hornet.obj
 0001:000a3b60       ?getDifficultyMod@CHornet@@SAMXZ 100a4b60 f   hornet.obj
 0001:000a3b90       ?TraceAttack@CHornet@@UAEXPAUentvars_s@@MVVector@@PAUTraceResult@@HHHPAH@Z 100a4b90 f   hornet.obj
 0001:000a3be0       ?TakeDamage@CHornet@@UAEHPAUentvars_s@@0MHH@Z 100a4be0 f   hornet.obj
 0001:000a3c40       ??0CHornet@@QAE@XZ         100a4c40 f   hornet.obj
 0001:000a3cf0       ?Precache@CHornet@@UAEXXZ  100a4cf0 f   hornet.obj
 0001:000a3d90       ?IRelationship@CHornet@@UAEHPAVCBaseEntity@@@Z 100a4d90 f   hornet.obj
 0001:000a3dc0       ?Classify@CHornet@@UAEHXZ  100a4dc0 f   hornet.obj
 0001:000a3df0       ?IgniteTrail@CHornet@@QAEXXZ 100a4df0 f   hornet.obj
 0001:000a4090       ?TrackTarget@CHornet@@QAEXXZ 100a5090 f   hornet.obj
 0001:000a4a50       ?DieTouch@CHornet@@QAEXPAVCBaseEntity@@@Z 100a5a50 f   hornet.obj
 0001:000a4b80       ?DeadTakeDamage@CHornet@@UAEHPAUentvars_s@@0MHH@Z 100a5b80 f   hornet.obj
 0001:000a4bd0       ?Killed@CHornet@@UAEXPAUentvars_s@@0H@Z 100a5bd0 f   hornet.obj
 0001:000a4e30       ??$GetClassPtr@VCHornet@@@@YAPAVCHornet@@PAV0@@Z 100a5e30 f i hornet.obj
 0001:000a4ed0       _hornet                    100a5ed0 f   hornet.obj
 0001:000a4ee0       ?TraceAttack@CHornet@@UAEXPAUentvars_s@@MVVector@@PAUTraceResult@@H@Z 100a5ee0 f   hornet.obj
 0001:000a4f20       ?TraceAttack@CHornet@@UAEXPAUentvars_s@@MVVector@@PAUTraceResult@@HH@Z 100a5f20 f   hornet.obj
 0001:000a4f60       ?TraceAttack@CHornet@@UAEXPAUentvars_s@@MVVector@@PAUTraceResult@@HHH@Z 100a5f60 f   hornet.obj
 0001:000a4fa0       ?TakeDamage@CHornet@@UAEHPAUentvars_s@@0MH@Z 100a5fa0 f   hornet.obj
 0001:000a4fd0       ?TrackTouch@CHornet@@QAEXPAVCBaseEntity@@@Z 100a5fd0 f   hornet.obj
 0001:000a5150       ?DartTouch@CHornet@@QAEXPAVCBaseEntity@@@Z 100a6150 f   hornet.obj
 0001:000a5160       ?DeadTakeDamage@CHornet@@UAEHPAUentvars_s@@0MH@Z 100a6160 f   hornet.obj
 0001:000a5190       ?Killed@CHornet@@UAEXPAUentvars_s@@H@Z 100a6190 f   hornet.obj
 0001:000a51b0       ?StartTrack@CHornet@@QAEXXZ 100a61b0 f   hornet.obj
 0001:000a5270       ?StartDart@CHornet@@QAEXXZ 100a6270 f   hornet.obj
 0001:000a52c0       ?Spawn@CHornet@@UAEXXZ     100a62c0 f   hornet.obj
 0001:000a54b0       ?IsUseable@CHgun@@UAEHXZ   100a64b0 f   hornetgun.obj
 0001:000a54c0       ?Spawn@CHgun@@UAEXXZ       100a64c0 f   hornetgun.obj
 0001:000a5510       ?Precache@CHgun@@UAEXXZ    100a6510 f   hornetgun.obj
 0001:000a5560       ?customAttachToPlayer@CHgun@@UAEXPAVCBasePlayer@@@Z 100a6560 f   hornetgun.obj
 0001:000a5580       ?AddToPlayer@CHgun@@UAEHPAVCBasePlayer@@@Z 100a6580 f   hornetgun.obj
 0001:000a5600       ?GetItemInfo@CHgun@@UAEHPAUItemInfo@@@Z 100a6600 f   hornetgun.obj
 0001:000a5670       ?Deploy@CHgun@@UAEHXZ      100a6670 f   hornetgun.obj
 0001:000a56a0       ?Holster@CHgun@@UAEXH@Z    100a66a0 f   hornetgun.obj
 0001:000a5720       ?PrimaryAttack@CHgun@@UAEXXZ 100a6720 f   hornetgun.obj
 0001:000a59f0       ?SecondaryAttack@CHgun@@UAEXXZ 100a69f0 f   hornetgun.obj
 0001:000a6050       ?Reload@CHgun@@UAEXXZ      100a7050 f   hornetgun.obj
 0001:000a60d0       ?WeaponIdle@CHgun@@UAEXXZ  100a70d0 f   hornetgun.obj
 0001:000a61c0       ??0CHgun@@QAE@XZ           100a71c0 f i hornetgun.obj
 0001:000a61e0       ?iItemSlot@CHgun@@UAEHXZ   100a71e0 f i hornetgun.obj
 0001:000a61f0       ?UseDecrement@CHgun@@UAEHXZ 100a71f0 f i hornetgun.obj
 0001:000a6200       ??$GetClassPtr@VCHgun@@@@YAPAVCHgun@@PAV0@@Z 100a7200 f i hornetgun.obj
 0001:000a62b0       _weapon_hornetgun          100a72b0 f   hornetgun.obj
 0001:000a62c0       ?Save@CHoundeye@@UAEHAAVCSave@@@Z 100a72c0 f   houndeye.obj
 0001:000a6300       ?Restore@CHoundeye@@UAEHAAVCRestore@@@Z 100a7300 f   houndeye.obj
 0001:000a6340       ?Classify@CHoundeye@@UAEHXZ 100a7340 f   houndeye.obj
 0001:000a6350       ?FValidateHintType@CHoundeye@@UAEHF@Z 100a7350 f   houndeye.obj
 0001:000a6390       ?FCanActiveIdle@CHoundeye@@UAEHXZ 100a7390 f   houndeye.obj
 0001:000a6410       ?CheckRangeAttack1@CHoundeye@@UAEHMM@Z 100a7410 f   houndeye.obj
 0001:000a6450       ?SetYawSpeed@CHoundeye@@UAEXXZ 100a7450 f   houndeye.obj
 0001:000a64e0       ?SetActivity@CHoundeye@@UAEXW4Activity@@@Z 100a74e0 f   houndeye.obj
 0001:000a65e0       ??0CHoundeye@@QAE@XZ       100a75e0 f   houndeye.obj
 0001:000a6610       ?SetObjectCollisionBox@CHoundeye@@UAEXXZ 100a7610 f i houndeye.obj
 0001:000a66b0       ?setModel@CHoundeye@@UAEXPBD@Z 100a76b0 f   houndeye.obj
 0001:000a6750       ?Activate@CHoundeye@@UAEXXZ 100a7750 f   houndeye.obj
 0001:000a6760       ?Spawn@CHoundeye@@UAEXXZ   100a7760 f   houndeye.obj
 0001:000a6870       ?Precache@CHoundeye@@UAEXXZ 100a7870 f   houndeye.obj
 0001:000a69b0       ?IdleSound@CHoundeye@@UAEXXZ 100a79b0 f   houndeye.obj
 0001:000a6a90       ?WarmUpSound@CHoundeye@@QAEXXZ 100a7a90 f   houndeye.obj
 0001:000a6b80       ?WarnSound@CHoundeye@@QAEXXZ 100a7b80 f   houndeye.obj
 0001:000a6c60       ?AlertSound@CHoundeye@@UAEXXZ 100a7c60 f   houndeye.obj
 0001:000a6d40       ?DeathSound@CHoundeye@@UAEXXZ 100a7d40 f   houndeye.obj
 0001:000a6e00       ?PainSound@CHoundeye@@UAEXXZ 100a7e00 f   houndeye.obj
 0001:000a6f20       ?WriteBeamColor@CHoundeye@@QAEXH@Z 100a7f20 f   houndeye.obj
 0001:000a6fc0       ?SonicAttack@CHoundeye@@QAEXH@Z 100a7fc0 f   houndeye.obj
 0001:000a7480       ?StartTask@CHoundeye@@UAEXPAUTask_t@@@Z 100a8480 f   houndeye.obj
 0001:000a7670       ?TraceAttack@CHoundeye@@UAEXPAUentvars_s@@MVVector@@PAUTraceResult@@HHHPAH@Z 100a8670 f   houndeye.obj
 0001:000a76c0       ?TakeDamage@CHoundeye@@UAEHPAUentvars_s@@0MHH@Z 100a86c0 f   houndeye.obj
 0001:000a76f0       ?MonsterThink@CHoundeye@@UAEXXZ 100a86f0 f   houndeye.obj
 0001:000a77c0       ?ChangeSchedule@CHoundeye@@QAEXPAUSchedule_t@@@Z 100a87c0 f   houndeye.obj
 0001:000a7800       ?PrescheduleThink@CHoundeye@@UAEXXZ 100a8800 f   houndeye.obj
 0001:000a7970       ?ScheduleFromName@CHoundeye@@UAEPAUSchedule_t@@PBD@Z 100a8970 f   houndeye.obj
 0001:000a79a0       ?GetScheduleOfType@CHoundeye@@UAEPAUSchedule_t@@H@Z 100a89a0 f   houndeye.obj
 0001:000a7bd0       ?GetSchedule@CHoundeye@@UAEPAUSchedule_t@@XZ 100a8bd0 f   houndeye.obj
 0001:000a7da0       ??$GetClassPtr@VCHoundeye@@@@YAPAVCHoundeye@@PAV0@@Z 100a8da0 f i houndeye.obj
 0001:000a7e40       _monster_houndeye          100a8e40 f   houndeye.obj
 0001:000a7e50       _houndeye                  100a8e50 f   houndeye.obj
 0001:000a7e60       _hound                     100a8e60 f   houndeye.obj
 0001:000a7e70       _monster_hound             100a8e70 f   houndeye.obj
 0001:000a7e80       ?setModel@CHoundeye@@UAEXXZ 100a8e80 f   houndeye.obj
 0001:000a7e90       ?WriteBeamColor@CHoundeye@@QAEXXZ 100a8e90 f   houndeye.obj
 0001:000a7ea0       ?SonicAttack@CHoundeye@@QAEXXZ 100a8ea0 f   houndeye.obj
 0001:000a7eb0       ?SquadRecruit@CHoundeye@@UAEHHH@Z 100a8eb0 f   houndeye.obj
 0001:000a8190       ?RunTask@CHoundeye@@UAEXPAUTask_t@@@Z 100a9190 f   houndeye.obj
 0001:000a86a0       ?TraceAttack@CHoundeye@@UAEXPAUentvars_s@@MVVector@@PAUTraceResult@@H@Z 100a96a0 f   houndeye.obj
 0001:000a86e0       ?TraceAttack@CHoundeye@@UAEXPAUentvars_s@@MVVector@@PAUTraceResult@@HH@Z 100a96e0 f   houndeye.obj
 0001:000a8720       ?TraceAttack@CHoundeye@@UAEXPAUentvars_s@@MVVector@@PAUTraceResult@@HHH@Z 100a9720 f   houndeye.obj
 0001:000a8760       ?TakeDamage@CHoundeye@@UAEHPAUentvars_s@@0MH@Z 100a9760 f   houndeye.obj
 0001:000a8790       ?HandleAnimEvent@CHoundeye@@UAEXPAUMonsterEvent_t@@@Z 100a9790 f   houndeye.obj
 0001:000a8910       ?SetFlyingMomentum@CFlyingMonster@@QAEXM@Z 100a9910 f i ichthyosaur.obj
 0001:000a8920       ?SetFlyingSpeed@CFlyingMonster@@QAEXM@Z 100a9920 f i ichthyosaur.obj
 0001:000a8930       ?Save@CIchthyosaur@@UAEHAAVCSave@@@Z 100a9930 f   ichthyosaur.obj
 0001:000a8970       ?Restore@CIchthyosaur@@UAEHAAVCRestore@@@Z 100a9970 f   ichthyosaur.obj
 0001:000a89b0       ?IdleSound@CIchthyosaur@@UAEXXZ 100a99b0 f   ichthyosaur.obj
 0001:000a8a00       ?AlertSound@CIchthyosaur@@UAEXXZ 100a9a00 f   ichthyosaur.obj
 0001:000a8a50       ?AttackSound@CIchthyosaur@@QAEXXZ 100a9a50 f   ichthyosaur.obj
 0001:000a8aa0       ?BiteSound@CIchthyosaur@@QAEXXZ 100a9aa0 f   ichthyosaur.obj
 0001:000a8af0       ?DeathSound@CIchthyosaur@@UAEXXZ 100a9af0 f   ichthyosaur.obj
 0001:000a8b40       ?PainSound@CIchthyosaur@@UAEXXZ 100a9b40 f   ichthyosaur.obj
 0001:000a8b90       ?ScheduleFromName@CIchthyosaur@@UAEPAUSchedule_t@@PBD@Z 100a9b90 f   ichthyosaur.obj
 0001:000a8bc0       ?Classify@CIchthyosaur@@UAEHXZ 100a9bc0 f   ichthyosaur.obj
 0001:000a8bd0       ?CheckMeleeAttack1@CIchthyosaur@@UAEHMM@Z 100a9bd0 f   ichthyosaur.obj
 0001:000a8c10       ?BiteTouch@CIchthyosaur@@QAEXPAVCBaseEntity@@@Z 100a9c10 f   ichthyosaur.obj
 0001:000a8c50       ?CombatUse@CIchthyosaur@@QAEXPAVCBaseEntity@@0W4USE_TYPE@@M@Z 100a9c50 f   ichthyosaur.obj
 0001:000a8c90       ?CheckRangeAttack1@CIchthyosaur@@UAEHMM@Z 100a9c90 f   ichthyosaur.obj
 0001:000a8ce0       ?SetYawSpeed@CIchthyosaur@@UAEXXZ 100a9ce0 f   ichthyosaur.obj
 0001:000a8cf0       ?TraceAttack@CIchthyosaur@@UAEXPAUentvars_s@@MVVector@@PAUTraceResult@@HHHPAH@Z 100a9cf0 f   ichthyosaur.obj
 0001:000a8d40       ?TakeDamage@CIchthyosaur@@UAEHPAUentvars_s@@0MHH@Z 100a9d40 f   ichthyosaur.obj
 0001:000a8d70       ?Killed@CIchthyosaur@@UAEXPAUentvars_s@@0H@Z 100a9d70 f   ichthyosaur.obj
 0001:000a8dc0       ?BecomeDead@CIchthyosaur@@UAEXXZ 100a9dc0 f   ichthyosaur.obj
 0001:000a8df0       ?HandleAnimEvent@CIchthyosaur@@UAEXPAUMonsterEvent_t@@@Z 100a9df0 f   ichthyosaur.obj
 0001:000a9120       ??0CFlyingMonster@@QAE@XZ  100aa120 f i ichthyosaur.obj
 0001:000a9140       ?Spawn@CIchthyosaur@@UAEXXZ 100aa140 f   ichthyosaur.obj
 0001:000a9320       ?Precache@CIchthyosaur@@UAEXXZ 100aa320 f   ichthyosaur.obj
 0001:000a9410       ?GetSchedule@CIchthyosaur@@UAEPAUSchedule_t@@XZ 100aa410 f   ichthyosaur.obj
 0001:000a94e0       ?GetScheduleOfType@CIchthyosaur@@UAEPAUSchedule_t@@H@Z 100aa4e0 f   ichthyosaur.obj
 0001:000a9590       ?StartTask@CIchthyosaur@@UAEXPAUTask_t@@@Z 100aa590 f   ichthyosaur.obj
 0001:000a9670       ?VectorToPitch@CIchthyosaur@@QAEMABVVector@@@Z 100aa670 f   ichthyosaur.obj
 0001:000a9710       ?Move@CIchthyosaur@@UAEXM@Z 100aa710 f   ichthyosaur.obj
 0001:000a9730       ?FlPitchDiff@CIchthyosaur@@QAEMXZ 100aa730 f   ichthyosaur.obj
 0001:000a97e0       ?ChangePitch@CIchthyosaur@@QAEMH@Z 100aa7e0 f   ichthyosaur.obj
 0001:000a9890       ?ChangeYaw@CIchthyosaur@@UAEMH@Z 100aa890 f   ichthyosaur.obj
 0001:000a9940       ?GetStoppedActivity@CIchthyosaur@@UAE?AW4Activity@@XZ 100aa940 f   ichthyosaur.obj
 0001:000a9960       ?MoveExecute@CIchthyosaur@@UAEXPAVCBaseEntity@@ABVVector@@M@Z 100aa960 f   ichthyosaur.obj
 0001:000a99b0       ?Stop@CIchthyosaur@@UAEXXZ 100aa9b0 f   ichthyosaur.obj
 0001:000a99d0       ?DoProbe@CIchthyosaur@@QAE?AVVector@@ABV2@@Z 100aa9d0 f   ichthyosaur.obj
 0001:000a9c30       ?TraceAttack@CIchthyosaur@@UAEXPAUentvars_s@@MVVector@@PAUTraceResult@@H@Z 100aac30 f   ichthyosaur.obj
 0001:000a9c70       ?TraceAttack@CIchthyosaur@@UAEXPAUentvars_s@@MVVector@@PAUTraceResult@@HH@Z 100aac70 f   ichthyosaur.obj
 0001:000a9cb0       ?TraceAttack@CIchthyosaur@@UAEXPAUentvars_s@@MVVector@@PAUTraceResult@@HHH@Z 100aacb0 f   ichthyosaur.obj
 0001:000a9cf0       ?TakeDamage@CIchthyosaur@@UAEHPAUentvars_s@@0MH@Z 100aacf0 f   ichthyosaur.obj
 0001:000a9d20       ?Killed@CIchthyosaur@@UAEXPAUentvars_s@@H@Z 100aad20 f   ichthyosaur.obj
 0001:000a9d40       ??0CIchthyosaur@@QAE@XZ    100aad40 f   ichthyosaur.obj
 0001:000a9d60       ?RunTask@CIchthyosaur@@UAEXPAUTask_t@@@Z 100aad60 f   ichthyosaur.obj
 0001:000aa300       ?Swim@CIchthyosaur@@QAEXXZ 100ab300 f   ichthyosaur.obj
 0001:000aacd0       ??$GetClassPtr@VCIchthyosaur@@@@YAPAVCIchthyosaur@@PAV0@@Z 100abcd0 f i ichthyosaur.obj
 0001:000aad70       _monster_ichthyosaur       100abd70 f   ichthyosaur.obj
 0001:000aad80       _ichthyosaur               100abd80 f   ichthyosaur.obj
 0001:000aad90       _evilfish                  100abd90 f   ichthyosaur.obj
 0001:000aada0       ?MonsterThink@CIchthyosaur@@UAEXXZ 100abda0 f   ichthyosaur.obj
 0001:000aae60       ??0Vector@@QAE@QAM@Z       100abe60 f i islave.obj
 0001:000aae80       ?GetBrightness@CBeam@@QAEHXZ 100abe80 f i islave.obj
 0001:000aae90       ?Save@CISlave@@UAEHAAVCSave@@@Z 100abe90 f   islave.obj
 0001:000aaed0       ?Restore@CISlave@@UAEHAAVCRestore@@@Z 100abed0 f   islave.obj
 0001:000aaf10       ?ReportAIState@CISlave@@UAEXXZ 100abf10 f   islave.obj
 0001:000ab040       ?Classify@CISlave@@UAEHXZ  100ac040 f   islave.obj
 0001:000ab050       ?isProvokable@CISlave@@UAEHXZ 100ac050 f   islave.obj
 0001:000ab060       ?isProvoked@CISlave@@UAEHXZ 100ac060 f   islave.obj
 0001:000ab080       ?IRelationship@CISlave@@UAEHPAVCBaseEntity@@@Z 100ac080 f   islave.obj
 0001:000ab0e0       ?CallForHelp@CISlave@@QAEXPADMVEHANDLE@@AAVVector@@@Z 100ac0e0 f   islave.obj
 0001:000ab1e0       ?AlertSound@CISlave@@UAEXXZ 100ac1e0 f   islave.obj
 0001:000ab280       ?IdleSound@CISlave@@UAEXXZ 100ac280 f   islave.obj
 0001:000ab2f0       ?PainSound@CISlave@@UAEXXZ 100ac2f0 f   islave.obj
 0001:000ab370       ?DeathSound@CISlave@@UAEXXZ 100ac370 f   islave.obj
 0001:000ab3e0       ?ISoundMask@CISlave@@UAEHXZ 100ac3e0 f   islave.obj
 0001:000ab3f0       ?onDeathAnimationEnd@CISlave@@UAEXXZ 100ac3f0 f   islave.obj
 0001:000ab480       ?SetYawSpeed@CISlave@@UAEXXZ 100ac480 f   islave.obj
 0001:000ab500       ?CheckRangeAttack1@CISlave@@UAEHMM@Z 100ac500 f   islave.obj
 0001:000ab540       ?findISlaveToRevive@CISlave@@QAEPAV1@HM@Z 100ac540 f   islave.obj
 0001:000ab730       ?riseFromTheGrave@CISlave@@QAEXXZ 100ac730 f   islave.obj
 0001:000ab740       ?EndOfRevive@CISlave@@UAEXH@Z 100ac740 f   islave.obj
 0001:000ab750       ?makeThingForgetReviveInfo@CISlave@@QAEXPAVCBaseEntity@@PAV1@@Z 100ac750 f   islave.obj
 0001:000ab860       ?forgetReviveTarget@CISlave@@QAEXXZ 100ac860 f   islave.obj
 0001:000ab960       ?okayToRevive@CISlave@@QAEHXZ 100ac960 f   islave.obj
 0001:000aba90       ?getBarnacleForwardOffset@CISlave@@UAEMXZ 100aca90 f   islave.obj
 0001:000abaa0       ?getIsBarnacleVictimException@CISlave@@UAEHXZ 100acaa0 f   islave.obj
 0001:000abab0       ?getBarnaclePulledTopOffset@CISlave@@UAEMXZ 100acab0 f   islave.obj
 0001:000abac0       ?LookupActivityHard@CISlave@@UAEHH@Z 100acac0 f   islave.obj
 0001:000abbc0       ?tryActivitySubstitute@CISlave@@UAEHH@Z 100acbc0 f   islave.obj
 0001:000abc60       ?usesAdvancedAnimSystem@CISlave@@UAEHXZ 100acc60 f   islave.obj
 0001:000abc70       ??0CISlave@@QAE@XZ         100acc70 f   islave.obj
 0001:000abcc0       ?SetObjectCollisionBox@CISlave@@UAEXXZ 100accc0 f i islave.obj
 0001:000abd60       ?Spawn@CISlave@@UAEXXZ     100acd60 f   islave.obj
 0001:000abe80       ?Precache@CISlave@@UAEXXZ  100ace80 f   islave.obj
 0001:000abf70       ?TakeDamage@CISlave@@UAEHPAUentvars_s@@0MHH@Z 100acf70 f   islave.obj
 0001:000abff0       ?TraceAttack@CISlave@@UAEXPAUentvars_s@@MVVector@@PAUTraceResult@@HHHPAH@Z 100acff0 f   islave.obj
 0001:000ac040       ?ScheduleFromName@CISlave@@UAEPAUSchedule_t@@PBD@Z 100ad040 f   islave.obj
 0001:000ac070       ?GetScheduleOfType@CISlave@@UAEPAUSchedule_t@@H@Z 100ad070 f   islave.obj
 0001:000ac0b0       ?ArmBeam@CISlave@@QAEXH@Z  100ad0b0 f   islave.obj
 0001:000ac430       ?BeamGlow@CISlave@@QAEXXZ  100ad430 f   islave.obj
 0001:000ac4a0       ?WackBeam@CISlave@@QAEXHPAVCBaseEntity@@@Z 100ad4a0 f   islave.obj
 0001:000ac600       ?ZapBeam@CISlave@@QAEXH@Z  100ad600 f   islave.obj
 0001:000ac9b0       ?ClearBeams@CISlave@@QAEXXZ 100ad9b0 f   islave.obj
 0001:000aca20       ??$GetClassPtr@VCISlave@@@@YAPAVCISlave@@PAV0@@Z 100ada20 f i islave.obj
 0001:000acac0       _monster_alien_slave       100adac0 f   islave.obj
 0001:000acad0       _monster_vortigaunt        100adad0 f   islave.obj
 0001:000acae0       _islave                    100adae0 f   islave.obj
 0001:000acaf0       _alien_slave               100adaf0 f   islave.obj
 0001:000acb00       _vortigaunt                100adb00 f   islave.obj
 0001:000acb10       _vort                      100adb10 f   islave.obj
 0001:000acb20       _slave                     100adb20 f   islave.obj
 0001:000acb30       _monster_vort              100adb30 f   islave.obj
 0001:000acb40       _monster_slave             100adb40 f   islave.obj
 0001:000acb50       _monster_islave            100adb50 f   islave.obj
 0001:000acb60       _monster_alien_islave      100adb60 f   islave.obj
 0001:000acb70       ?MonsterThink@CISlave@@UAEXXZ 100adb70 f   islave.obj
 0001:000acfb0       ?Killed@CISlave@@UAEXPAUentvars_s@@0H@Z 100adfb0 f   islave.obj
 0001:000acff0       ?HandleAnimEvent@CISlave@@UAEXPAUMonsterEvent_t@@@Z 100adff0 f   islave.obj
 0001:000ad6a0       ?CheckRangeAttack2@CISlave@@UAEHMM@Z 100ae6a0 f   islave.obj
 0001:000ad6b0       ?StartTask@CISlave@@UAEXPAUTask_t@@@Z 100ae6b0 f   islave.obj
 0001:000adae0       ?startReanimation@CISlave@@UAEXXZ 100aeae0 f   islave.obj
 0001:000adb10       ?RunTask@CISlave@@UAEXPAUTask_t@@@Z 100aeb10 f   islave.obj
 0001:000add50       ?TakeDamage@CISlave@@UAEHPAUentvars_s@@0MH@Z 100aed50 f   islave.obj
 0001:000add80       ?TraceAttack@CISlave@@UAEXPAUentvars_s@@MVVector@@PAUTraceResult@@H@Z 100aed80 f   islave.obj
 0001:000addc0       ?TraceAttack@CISlave@@UAEXPAUentvars_s@@MVVector@@PAUTraceResult@@HH@Z 100aedc0 f   islave.obj
 0001:000ade00       ?TraceAttack@CISlave@@UAEXPAUentvars_s@@MVVector@@PAUTraceResult@@HHH@Z 100aee00 f   islave.obj
 0001:000ade40       ?ScheduleChange@CISlave@@UAEXXZ 100aee40 f   islave.obj
 0001:000ade70       ?GetSchedule@CISlave@@UAEPAUSchedule_t@@XZ 100aee70 f   islave.obj
 0001:000ae220       ?Killed@CISlave@@UAEXPAUentvars_s@@H@Z 100af220 f   islave.obj
 0001:000ae240       ?KeyValue@CWorldItem@@UAEXPAUKeyValueData_s@@@Z 100af240 f   items.obj
 0001:000ae2b0       ?Spawn@CWorldItem@@UAEXXZ  100af2b0 f   items.obj
 0001:000ae3a0       ?ItemTouch@CItem@@QAEXPAVCBaseEntity@@@Z 100af3a0 f   items.obj
 0001:000ae460       ?Materialize@CItem@@QAEXXZ 100af460 f   items.obj
 0001:000ae4d0       ??0CWorldItem@@QAE@XZ      100af4d0 f i items.obj
 0001:000ae4f0       ?Spawn@CItem@@UAEXXZ       100af4f0 f   items.obj
 0001:000ae5c0       ?Respawn@CItem@@UAEPAVCBaseEntity@@XZ 100af5c0 f   items.obj
 0001:000ae630       ??$GetClassPtr@VCWorldItem@@@@YAPAVCWorldItem@@PAV0@@Z 100af630 f i items.obj
 0001:000ae6e0       ??0CItemSuit@@QAE@XZ       100af6e0 f i items.obj
 0001:000ae700       ?Precache@CItemSuit@@EAEXXZ 100af700 f i items.obj
 0001:000ae710       ?MyTouch@CItemSuit@@EAEHPAVCBasePlayer@@@Z 100af710 f i items.obj
 0001:000ae780       ?Spawn@CItemSuit@@EAEXXZ   100af780 f i items.obj
 0001:000ae7b0       ??0CItemBattery@@QAE@XZ    100af7b0 f i items.obj
 0001:000ae7d0       ?Precache@CItemBattery@@EAEXXZ 100af7d0 f i items.obj
 0001:000ae7f0       ?MyTouch@CItemBattery@@EAEHPAVCBasePlayer@@@Z 100af7f0 f i items.obj
 0001:000ae950       ?Spawn@CItemBattery@@EAEXXZ 100af950 f i items.obj
 0001:000ae980       ??0CItemAntidote@@QAE@XZ   100af980 f i items.obj
 0001:000ae9a0       ?Precache@CItemAntidote@@EAEXXZ 100af9a0 f i items.obj
 0001:000ae9b0       ?MyTouch@CItemAntidote@@EAEHPAVCBasePlayer@@@Z 100af9b0 f i items.obj
 0001:000aeac0       ?Spawn@CItemAntidote@@EAEXXZ 100afac0 f i items.obj
 0001:000aeaf0       ??0CItemAdrenaline@@QAE@XZ 100afaf0 f i items.obj
 0001:000aeb10       ?Precache@CItemAdrenaline@@EAEXXZ 100afb10 f i items.obj
 0001:000aeb20       ?MyTouch@CItemAdrenaline@@EAEHPAVCBasePlayer@@@Z 100afb20 f i items.obj
 0001:000aec30       ?Spawn@CItemAdrenaline@@EAEXXZ 100afc30 f i items.obj
 0001:000aec60       ??0CItemRadiation@@QAE@XZ  100afc60 f i items.obj
 0001:000aec80       ?Precache@CItemRadiation@@EAEXXZ 100afc80 f i items.obj
 0001:000aec90       ?MyTouch@CItemRadiation@@EAEHPAVCBasePlayer@@@Z 100afc90 f i items.obj
 0001:000aeda0       ?Spawn@CItemRadiation@@EAEXXZ 100afda0 f i items.obj
 0001:000aedd0       ??0CItemSecurity@@QAE@XZ   100afdd0 f i items.obj
 0001:000aedf0       ?Precache@CItemSecurity@@EAEXXZ 100afdf0 f i items.obj
 0001:000aee00       ?MyTouch@CItemSecurity@@EAEHPAVCBasePlayer@@@Z 100afe00 f i items.obj
 0001:000aee20       ?Spawn@CItemSecurity@@EAEXXZ 100afe20 f i items.obj
 0001:000aee50       ??0CItemLongJump@@QAE@XZ   100afe50 f i items.obj
 0001:000aee70       ?Precache@CItemLongJump@@EAEXXZ 100afe70 f i items.obj
 0001:000aee80       ?MyTouch@CItemLongJump@@EAEHPAVCBasePlayer@@@Z 100afe80 f i items.obj
 0001:000aefb0       ?Spawn@CItemLongJump@@EAEXXZ 100affb0 f i items.obj
 0001:000aefe0       ??0CItemLongJumpCharge@@QAE@XZ 100affe0 f i items.obj
 0001:000af000       ?Precache@CItemLongJumpCharge@@EAEXXZ 100b0000 f i items.obj
 0001:000af010       ?MyTouch@CItemLongJumpCharge@@EAEHPAVCBasePlayer@@@Z 100b0010 f i items.obj
 0001:000af160       ?Spawn@CItemLongJumpCharge@@EAEXXZ 100b0160 f i items.obj
 0001:000af190       ??0CItemGlockSilencer@@QAE@XZ 100b0190 f i items.obj
 0001:000af1b0       ?Precache@CItemGlockSilencer@@EAEXXZ 100b01b0 f i items.obj
 0001:000af1c0       ?MyTouch@CItemGlockSilencer@@EAEHPAVCBasePlayer@@@Z 100b01c0 f i items.obj
 0001:000af250       ?Spawn@CItemGlockSilencer@@EAEXXZ 100b0250 f i items.obj
 0001:000af280       _world_items               100b0280 f   items.obj
 0001:000af290       ??$GetClassPtr@VCItemSuit@@@@YAPAVCItemSuit@@PAV0@@Z 100b0290 f i items.obj
 0001:000af340       ??$GetClassPtr@VCItemBattery@@@@YAPAVCItemBattery@@PAV0@@Z 100b0340 f i items.obj
 0001:000af3f0       ??$GetClassPtr@VCItemAntidote@@@@YAPAVCItemAntidote@@PAV0@@Z 100b03f0 f i items.obj
 0001:000af4a0       ??$GetClassPtr@VCItemAdrenaline@@@@YAPAVCItemAdrenaline@@PAV0@@Z 100b04a0 f i items.obj
 0001:000af550       ??$GetClassPtr@VCItemRadiation@@@@YAPAVCItemRadiation@@PAV0@@Z 100b0550 f i items.obj
 0001:000af600       ??$GetClassPtr@VCItemSecurity@@@@YAPAVCItemSecurity@@PAV0@@Z 100b0600 f i items.obj
 0001:000af6b0       ??$GetClassPtr@VCItemLongJump@@@@YAPAVCItemLongJump@@PAV0@@Z 100b06b0 f i items.obj
 0001:000af760       ??$GetClassPtr@VCItemLongJumpCharge@@@@YAPAVCItemLongJumpCharge@@PAV0@@Z 100b0760 f i items.obj
 0001:000af810       ??$GetClassPtr@VCItemGlockSilencer@@@@YAPAVCItemGlockSilencer@@PAV0@@Z 100b0810 f i items.obj
 0001:000af8c0       _item_suit                 100b08c0 f   items.obj
 0001:000af8d0       _item_battery              100b08d0 f   items.obj
 0001:000af8e0       _item_antidote             100b08e0 f   items.obj
 0001:000af8f0       _item_adrenaline           100b08f0 f   items.obj
 0001:000af900       _item_radiation            100b0900 f   items.obj
 0001:000af910       _item_security             100b0910 f   items.obj
 0001:000af920       _item_longjump             100b0920 f   items.obj
 0001:000af930       _item_longjumpcharge       100b0930 f   items.obj
 0001:000af940       _item_glocksilencer        100b0940 f   items.obj
 0001:000af950       ?Save@CLeech@@UAEHAAVCSave@@@Z 100b0950 f   leech.obj
 0001:000af990       ?Restore@CLeech@@UAEHAAVCRestore@@@Z 100b0990 f   leech.obj
 0001:000af9d0       ??0CLeech@@QAE@XZ          100b09d0 f   leech.obj
 0001:000af9f0       ?Touch@CLeech@@UAEXPAVCBaseEntity@@@Z 100b09f0 f i leech.obj
 0001:000afa50       ?SetObjectCollisionBox@CLeech@@UAEXXZ 100b0a50 f i leech.obj
 0001:000afae0       ?BloodColor@CLeech@@UAEHXZ 100b0ae0 f i leech.obj
 0001:000afaf0       ?Classify@CLeech@@UAEHXZ   100b0af0 f i leech.obj
 0001:000afb00       ?SwitchLeechState@CLeech@@QAEXXZ 100b0b00 f   leech.obj
 0001:000afbe0       ?IRelationship@CLeech@@UAEHPAVCBaseEntity@@@Z 100b0be0 f   leech.obj
 0001:000afc20       ?AttackSound@CLeech@@QAEXXZ 100b0c20 f   leech.obj
 0001:000afc90       ?AlertSound@CLeech@@UAEXXZ 100b0c90 f   leech.obj
 0001:000afce0       ?Precache@CLeech@@UAEXXZ   100b0ce0 f   leech.obj
 0001:000afd50       ?TraceAttack@CLeech@@UAEXPAUentvars_s@@MVVector@@PAUTraceResult@@HHHPAH@Z 100b0d50 f   leech.obj
 0001:000afda0       ?TakeDamage@CLeech@@UAEHPAUentvars_s@@0MHH@Z 100b0da0 f   leech.obj
 0001:000afe50       ?HandleAnimEvent@CLeech@@UAEXPAUMonsterEvent_t@@@Z 100b0e50 f   leech.obj
 0001:000aff80       ?MakeVectors@CLeech@@QAEXXZ 100b0f80 f   leech.obj
 0001:000affc0       ?ObstacleDistance@CLeech@@QAEMPAVCBaseEntity@@@Z 100b0fc0 f   leech.obj
 0001:000b02c0       ?DeadThink@CLeech@@QAEXXZ  100b12c0 f   leech.obj
 0001:000b03f0       ?Killed@CLeech@@UAEXPAUentvars_s@@0H@Z 100b13f0 f   leech.obj
 0001:000b0500       ??$GetClassPtr@VCLeech@@@@YAPAVCLeech@@PAV0@@Z 100b1500 f i leech.obj
 0001:000b05a0       _monster_leech             100b15a0 f   leech.obj
 0001:000b05b0       _leech                     100b15b0 f   leech.obj
 0001:000b05c0       ?RecalculateWaterlevel@CLeech@@QAEXXZ 100b15c0 f   leech.obj
 0001:000b06f0       ?TraceAttack@CLeech@@UAEXPAUentvars_s@@MVVector@@PAUTraceResult@@H@Z 100b16f0 f   leech.obj
 0001:000b0730       ?TraceAttack@CLeech@@UAEXPAUentvars_s@@MVVector@@PAUTraceResult@@HH@Z 100b1730 f   leech.obj
 0001:000b0770       ?TraceAttack@CLeech@@UAEXPAUentvars_s@@MVVector@@PAUTraceResult@@HHH@Z 100b1770 f   leech.obj
 0001:000b07b0       ?TakeDamage@CLeech@@UAEHPAUentvars_s@@0MH@Z 100b17b0 f   leech.obj
 0001:000b07e0       ?UpdateMotion@CLeech@@QAEXXZ 100b17e0 f   leech.obj
 0001:000b0a70       ?SwimThink@CLeech@@QAEXXZ  100b1a70 f   leech.obj
 0001:000b1130       ?Killed@CLeech@@UAEXPAUentvars_s@@H@Z 100b2130 f   leech.obj
 0001:000b1150       ?Spawn@CLeech@@UAEXXZ      100b2150 f   leech.obj
 0001:000b12b0       ?Activate@CLeech@@UAEXXZ   100b22b0 f   leech.obj
 0001:000b12c0       ?Save@CLight@@UAEHAAVCSave@@@Z 100b22c0 f   lights.obj
 0001:000b1300       ?Restore@CLight@@UAEHAAVCRestore@@@Z 100b2300 f   lights.obj
 0001:000b1340       ?KeyValue@CLight@@UAEXPAUKeyValueData_s@@@Z 100b2340 f   lights.obj
 0001:000b1460       ?Spawn@CLight@@UAEXXZ      100b2460 f   lights.obj
 0001:000b14e0       ?Use@CLight@@UAEXPAVCBaseEntity@@0W4USE_TYPE@@M@Z 100b24e0 f   lights.obj
 0001:000b1590       ?KeyValue@CEnvLight@@UAEXPAUKeyValueData_s@@@Z 100b2590 f   lights.obj
 0001:000b1740       ?Spawn@CEnvLight@@UAEXXZ   100b2740 f   lights.obj
 0001:000b1800       ??0CLight@@QAE@XZ          100b2800 f i lights.obj
 0001:000b1820       ??0CEnvLight@@QAE@XZ       100b2820 f i lights.obj
 0001:000b1840       ??$GetClassPtr@VCLight@@@@YAPAVCLight@@PAV0@@Z 100b2840 f i lights.obj
 0001:000b18f0       ??$GetClassPtr@VCEnvLight@@@@YAPAVCEnvLight@@PAV0@@Z 100b28f0 f i lights.obj
 0001:000b19a0       _light                     100b29a0 f   lights.obj
 0001:000b19b0       _light_spot                100b29b0 f   lights.obj
 0001:000b19c0       _light_environment         100b29c0 f   lights.obj
 0001:000b19d0       ?SetMaster@CRuleEntity@@QAEXH@Z 100b29d0 f i maprules.obj
 0001:000b19e0       ?Save@CRuleEntity@@UAEHAAVCSave@@@Z 100b29e0 f   maprules.obj
 0001:000b1a20       ?Restore@CRuleEntity@@UAEHAAVCRestore@@@Z 100b2a20 f   maprules.obj
 0001:000b1a60       ?Spawn@CRuleEntity@@UAEXXZ 100b2a60 f   maprules.obj
 0001:000b1a90       ?KeyValue@CRuleEntity@@UAEXPAUKeyValueData_s@@@Z 100b2a90 f   maprules.obj
 0001:000b1b00       ?CanFireForActivator@CRuleEntity@@IAEHPAVCBaseEntity@@@Z 100b2b00 f   maprules.obj
 0001:000b1b30       ?Spawn@CRulePointEntity@@UAEXXZ 100b2b30 f   maprules.obj
 0001:000b1b50       ?Spawn@CRuleBrushEntity@@UAEXXZ 100b2b50 f   maprules.obj
 0001:000b1b80       ?Points@CGameScore@@QAEHXZ 100b2b80 f i maprules.obj
 0001:000b1b90       ?AllowNegativeScore@CGameScore@@QAEHXZ 100b2b90 f i maprules.obj
 0001:000b1ba0       ?AwardToTeam@CGameScore@@QAEHXZ 100b2ba0 f i maprules.obj
 0001:000b1bb0       ?SetPoints@CGameScore@@QAEXH@Z 100b2bb0 f i maprules.obj
 0001:000b1bd0       ?Spawn@CGameScore@@UAEXXZ  100b2bd0 f   maprules.obj
 0001:000b1be0       ?KeyValue@CGameScore@@UAEXPAUKeyValueData_s@@@Z 100b2be0 f   maprules.obj
 0001:000b1c60       ?Use@CGameScore@@UAEXPAVCBaseEntity@@0W4USE_TYPE@@M@Z 100b2c60 f   maprules.obj
 0001:000b1ce0       ?Use@CGameEnd@@UAEXPAVCBaseEntity@@0W4USE_TYPE@@M@Z 100b2ce0 f   maprules.obj
 0001:000b1d10       ?MessageToAll@CGameText@@QAEHXZ 100b2d10 f i maprules.obj
 0001:000b1d20       ?MessageGet@CGameText@@QAEPBDXZ 100b2d20 f i maprules.obj
 0001:000b1d40       ?Save@CGameText@@UAEHAAVCSave@@@Z 100b2d40 f   maprules.obj
 0001:000b1d80       ?Restore@CGameText@@UAEHAAVCRestore@@@Z 100b2d80 f   maprules.obj
 0001:000b1dc0       ?KeyValue@CGameText@@UAEXPAUKeyValueData_s@@@Z 100b2dc0 f   maprules.obj
 0001:000b2110       ?Use@CGameText@@UAEXPAVCBaseEntity@@0W4USE_TYPE@@M@Z 100b3110 f   maprules.obj
 0001:000b21a0       ?RemoveOnFire@CGameTeamMaster@@QAEHXZ 100b31a0 f i maprules.obj
 0001:000b21b0       ?AnyTeam@CGameTeamMaster@@QAEHXZ 100b31b0 f i maprules.obj
 0001:000b21c0       ?KeyValue@CGameTeamMaster@@UAEXPAUKeyValueData_s@@@Z 100b31c0 f   maprules.obj
 0001:000b22b0       ?TeamID@CGameTeamMaster@@UAEPBDXZ 100b32b0 f   maprules.obj
 0001:000b22e0       ?TeamMatch@CGameTeamMaster@@AAEHPAVCBaseEntity@@@Z 100b32e0 f   maprules.obj
 0001:000b2340       ?RemoveOnFire@CGameTeamSet@@QAEHXZ 100b3340 f i maprules.obj
 0001:000b2350       ?ShouldClearTeam@CGameTeamSet@@QAEHXZ 100b3350 f i maprules.obj
 0001:000b2360       ?Use@CGameTeamSet@@UAEXPAVCBaseEntity@@0W4USE_TYPE@@M@Z 100b3360 f   maprules.obj
 0001:000b23c0       ?Save@CGamePlayerZone@@UAEHAAVCSave@@@Z 100b33c0 f   maprules.obj
 0001:000b2400       ?Restore@CGamePlayerZone@@UAEHAAVCRestore@@@Z 100b3400 f   maprules.obj
 0001:000b2440       ?KeyValue@CGamePlayerZone@@UAEXPAUKeyValueData_s@@@Z 100b3440 f   maprules.obj
 0001:000b2590       ?RemoveOnFire@CGamePlayerHurt@@QAEHXZ 100b3590 f i maprules.obj
 0001:000b25a0       ?Use@CGamePlayerHurt@@UAEXPAVCBaseEntity@@0W4USE_TYPE@@M@Z 100b35a0 f   maprules.obj
 0001:000b2640       ?RemoveOnFire@CGameCounter@@QAEHXZ 100b3640 f i maprules.obj
 0001:000b2650       ?ResetOnFire@CGameCounter@@QAEHXZ 100b3650 f i maprules.obj
 0001:000b2660       ?CountUp@CGameCounter@@QAEXXZ 100b3660 f i maprules.obj
 0001:000b2680       ?CountDown@CGameCounter@@QAEXXZ 100b3680 f i maprules.obj
 0001:000b26a0       ?ResetCount@CGameCounter@@QAEXXZ 100b36a0 f i maprules.obj
 0001:000b26b0       ?CountValue@CGameCounter@@QAEHXZ 100b36b0 f i maprules.obj
 0001:000b26c0       ?LimitValue@CGameCounter@@QAEHXZ 100b36c0 f i maprules.obj
 0001:000b26d0       ?HitLimit@CGameCounter@@QAEHXZ 100b36d0 f i maprules.obj
 0001:000b2700       ?SetCountValue@CGameCounter@@AAEXH@Z 100b3700 f i maprules.obj
 0001:000b2720       ?SetInitialValue@CGameCounter@@AAEXH@Z 100b3720 f i maprules.obj
 0001:000b2740       ?Spawn@CGameCounter@@UAEXXZ 100b3740 f   maprules.obj
 0001:000b2770       ?Use@CGameCounter@@UAEXPAVCBaseEntity@@0W4USE_TYPE@@M@Z 100b3770 f   maprules.obj
 0001:000b2850       ?RemoveOnFire@CGameCounterSet@@QAEHXZ 100b3850 f i maprules.obj
 0001:000b2860       ?Use@CGameCounterSet@@UAEXPAVCBaseEntity@@0W4USE_TYPE@@M@Z 100b3860 f   maprules.obj
 0001:000b28b0       ?UseOnly@CGamePlayerEquip@@QAEHXZ 100b38b0 f i maprules.obj
 0001:000b28c0       ?KeyValue@CGamePlayerEquip@@UAEXPAUKeyValueData_s@@@Z 100b38c0 f   maprules.obj
 0001:000b2980       ?EquipPlayer@CGamePlayerEquip@@AAEXPAVCBaseEntity@@@Z 100b3980 f   maprules.obj
 0001:000b29e0       ?Use@CGamePlayerEquip@@UAEXPAVCBaseEntity@@0W4USE_TYPE@@M@Z 100b39e0 f   maprules.obj
 0001:000b29f0       ?RemoveOnFire@CGamePlayerTeam@@AAEHXZ 100b39f0 f i maprules.obj
 0001:000b2a00       ?ShouldKillPlayer@CGamePlayerTeam@@AAEHXZ 100b3a00 f i maprules.obj
 0001:000b2a10       ?ShouldGibPlayer@CGamePlayerTeam@@AAEHXZ 100b3a10 f i maprules.obj
 0001:000b2a20       ?TargetTeamName@CGamePlayerTeam@@AAEPBDPBD@Z 100b3a20 f   maprules.obj
 0001:000b2ab0       ?Use@CGamePlayerTeam@@UAEXPAVCBaseEntity@@0W4USE_TYPE@@M@Z 100b3ab0 f   maprules.obj
 0001:000b2b50       ??0CRuleEntity@@QAE@XZ     100b3b50 f i maprules.obj
 0001:000b2b70       ?Use@CGameTeamMaster@@UAEXPAVCBaseEntity@@0W4USE_TYPE@@M@Z 100b3b70 f   maprules.obj
 0001:000b2c20       ?IsTriggered@CGameTeamMaster@@UAEHPAVCBaseEntity@@@Z 100b3c20 f   maprules.obj
 0001:000b2c30       ?Use@CGamePlayerZone@@UAEXPAVCBaseEntity@@0W4USE_TYPE@@M@Z 100b3c30 f   maprules.obj
 0001:000b2d90       ?Touch@CGamePlayerEquip@@UAEXPAVCBaseEntity@@@Z 100b3d90 f   maprules.obj
 0001:000b2dc0       ??0CRulePointEntity@@QAE@XZ 100b3dc0 f i maprules.obj
 0001:000b2de0       ??0CRuleBrushEntity@@QAE@XZ 100b3de0 f i maprules.obj
 0001:000b2e00       ??0CGameScore@@QAE@XZ      100b3e00 f i maprules.obj
 0001:000b2e20       ??0CGameEnd@@QAE@XZ        100b3e20 f i maprules.obj
 0001:000b2e40       ??0CGameText@@QAE@XZ       100b3e40 f i maprules.obj
 0001:000b2e60       ??0CGameTeamMaster@@QAE@XZ 100b3e60 f i maprules.obj
 0001:000b2e80       ?ObjectCaps@CGameTeamMaster@@UAEHXZ 100b3e80 f i maprules.obj
 0001:000b2e90       ??0CGameTeamSet@@QAE@XZ    100b3e90 f i maprules.obj
 0001:000b2eb0       ??0CGamePlayerZone@@QAE@XZ 100b3eb0 f i maprules.obj
 0001:000b2ed0       ??0CGamePlayerHurt@@QAE@XZ 100b3ed0 f i maprules.obj
 0001:000b2ef0       ??0CGameCounter@@QAE@XZ    100b3ef0 f i maprules.obj
 0001:000b2f10       ??0CGameCounterSet@@QAE@XZ 100b3f10 f i maprules.obj
 0001:000b2f30       ??0CGamePlayerEquip@@QAE@XZ 100b3f30 f i maprules.obj
 0001:000b2f50       ??0CGamePlayerTeam@@QAE@XZ 100b3f50 f i maprules.obj
 0001:000b2f70       ??$GetClassPtr@VCGameScore@@@@YAPAVCGameScore@@PAV0@@Z 100b3f70 f i maprules.obj
 0001:000b3020       ??$GetClassPtr@VCGameEnd@@@@YAPAVCGameEnd@@PAV0@@Z 100b4020 f i maprules.obj
 0001:000b30d0       ??$GetClassPtr@VCGameText@@@@YAPAVCGameText@@PAV0@@Z 100b40d0 f i maprules.obj
 0001:000b3180       ??$GetClassPtr@VCGameTeamMaster@@@@YAPAVCGameTeamMaster@@PAV0@@Z 100b4180 f i maprules.obj
 0001:000b3230       ??$GetClassPtr@VCGameTeamSet@@@@YAPAVCGameTeamSet@@PAV0@@Z 100b4230 f i maprules.obj
 0001:000b32e0       ??$GetClassPtr@VCGamePlayerZone@@@@YAPAVCGamePlayerZone@@PAV0@@Z 100b42e0 f i maprules.obj
 0001:000b3390       ??$GetClassPtr@VCGamePlayerHurt@@@@YAPAVCGamePlayerHurt@@PAV0@@Z 100b4390 f i maprules.obj
 0001:000b3440       ??$GetClassPtr@VCGameCounter@@@@YAPAVCGameCounter@@PAV0@@Z 100b4440 f i maprules.obj
 0001:000b34f0       ??$GetClassPtr@VCGameCounterSet@@@@YAPAVCGameCounterSet@@PAV0@@Z 100b44f0 f i maprules.obj
 0001:000b35a0       ??$GetClassPtr@VCGamePlayerEquip@@@@YAPAVCGamePlayerEquip@@PAV0@@Z 100b45a0 f i maprules.obj
 0001:000b3650       ??$GetClassPtr@VCGamePlayerTeam@@@@YAPAVCGamePlayerTeam@@PAV0@@Z 100b4650 f i maprules.obj
 0001:000b3700       _game_score                100b4700 f   maprules.obj
 0001:000b3710       _game_end                  100b4710 f   maprules.obj
 0001:000b3720       _game_text                 100b4720 f   maprules.obj
 0001:000b3730       _game_team_master          100b4730 f   maprules.obj
 0001:000b3740       _game_team_set             100b4740 f   maprules.obj
 0001:000b3750       _game_zone_player          100b4750 f   maprules.obj
 0001:000b3760       _game_player_hurt          100b4760 f   maprules.obj
 0001:000b3770       _game_counter              100b4770 f   maprules.obj
 0001:000b3780       _game_counter_set          100b4780 f   maprules.obj
 0001:000b3790       _game_player_equip         100b4790 f   maprules.obj
 0001:000b37a0       _game_player_team          100b47a0 f   maprules.obj
 0001:000b37b0       ?Save@CMonsterMaker@@UAEHAAVCSave@@@Z 100b47b0 f   monstermaker.obj
 0001:000b37f0       ?Restore@CMonsterMaker@@UAEHAAVCRestore@@@Z 100b47f0 f   monstermaker.obj
 0001:000b3830       ?KeyValue@CMonsterMaker@@UAEXPAUKeyValueData_s@@@Z 100b4830 f   monstermaker.obj
 0001:000b3940       ?Precache@CMonsterMaker@@UAEXXZ 100b4940 f   monstermaker.obj
 0001:000b3960       ?DeathNotice@CMonsterMaker@@UAEXPAUentvars_s@@@Z 100b4960 f   monstermaker.obj
 0001:000b3990       ??0CMonsterMaker@@QAE@XZ   100b4990 f i monstermaker.obj
 0001:000b39b0       ?MakeMonster@CMonsterMaker@@QAEXXZ 100b49b0 f   monstermaker.obj
 0001:000b3c10       ?CyclicUse@CMonsterMaker@@QAEXPAVCBaseEntity@@0W4USE_TYPE@@M@Z 100b4c10 f   monstermaker.obj
 0001:000b3c20       ?MakerThink@CMonsterMaker@@QAEXXZ 100b4c20 f   monstermaker.obj
 0001:000b3c50       ??$GetClassPtr@VCMonsterMaker@@@@YAPAVCMonsterMaker@@PAV0@@Z 100b4c50 f i monstermaker.obj
 0001:000b3d00       _monstermaker              100b4d00 f   monstermaker.obj
 0001:000b3d10       ?ToggleUse@CMonsterMaker@@QAEXPAVCBaseEntity@@0W4USE_TYPE@@M@Z 100b4d10 f   monstermaker.obj
 0001:000b3d70       ?Spawn@CMonsterMaker@@UAEXXZ 100b4d70 f   monstermaker.obj
 0001:000b3e30       ?SetState@CBaseMonster@@QAEXW4MONSTERSTATE@@@Z 100b4e30 f   monsterstate.obj
 0001:000b3eb0       ?RunAI@CBaseMonster@@UAEXXZ 100b4eb0 f   monsterstate.obj
 0001:000b40e0       ?GetIdealState@CBaseMonster@@UAE?AW4MONSTERSTATE@@XZ 100b50e0 f   monsterstate.obj
 0001:000b42e0       ?Save@CFuncMortarField@@UAEHAAVCSave@@@Z 100b52e0 f   mortar.obj
 0001:000b4320       ?Restore@CFuncMortarField@@UAEHAAVCRestore@@@Z 100b5320 f   mortar.obj
 0001:000b4360       ?KeyValue@CFuncMortarField@@UAEXPAUKeyValueData_s@@@Z 100b5360 f   mortar.obj
 0001:000b44d0       ?Precache@CFuncMortarField@@UAEXXZ 100b54d0 f   mortar.obj
 0001:000b4500       ?Precache@CMortar@@UAEXXZ  100b5500 f   mortar.obj
 0001:000b4520       ?MortarExplode@CMortar@@QAEXXZ 100b5520 f   mortar.obj
 0001:000b46e0       ?FieldUse@CFuncMortarField@@QAEXPAVCBaseEntity@@0W4USE_TYPE@@M@Z 100b56e0 f   mortar.obj
 0001:000b4990       ?Spawn@CMortar@@UAEXXZ     100b5990 f   mortar.obj
 0001:000b49d0       ??0CFuncMortarField@@QAE@XZ 100b59d0 f i mortar.obj
 0001:000b49f0       ?ObjectCaps@CFuncMortarField@@UAEHXZ 100b59f0 f i mortar.obj
 0001:000b4a00       ??0CMortar@@QAE@XZ         100b5a00 f i mortar.obj
 0001:000b4a20       ?Spawn@CFuncMortarField@@UAEXXZ 100b5a20 f   mortar.obj
 0001:000b4a90       ??$GetClassPtr@VCFuncMortarField@@@@YAPAVCFuncMortarField@@PAV0@@Z 100b5a90 f i mortar.obj
 0001:000b4b40       ??$GetClassPtr@VCMortar@@@@YAPAVCMortar@@PAV0@@Z 100b5b40 f i mortar.obj
 0001:000b4bf0       _func_mortar_field         100b5bf0 f   mortar.obj
 0001:000b4c00       _monster_mortar            100b5c00 f   mortar.obj
 0001:000b4c10       ?SecondaryAmmoIndex@CMP5@@UAEHXZ 100b5c10 f   mp5.obj
 0001:000b4c20       ?customAttachToPlayer@CMP5@@UAEXPAVCBasePlayer@@@Z 100b5c20 f   mp5.obj
 0001:000b4c50       ?Spawn@CMP5@@UAEXXZ        100b5c50 f   mp5.obj
 0001:000b4cb0       ?Precache@CMP5@@UAEXXZ     100b5cb0 f   mp5.obj
 0001:000b4d90       ?GetItemInfo@CMP5@@UAEHPAUItemInfo@@@Z 100b5d90 f   mp5.obj
 0001:000b4e00       ?AddToPlayer@CMP5@@UAEHPAVCBasePlayer@@@Z 100b5e00 f   mp5.obj
 0001:000b4e60       ?Deploy@CMP5@@UAEHXZ       100b5e60 f   mp5.obj
 0001:000b4e90       ?PrimaryAttack@CMP5@@UAEXXZ 100b5e90 f   mp5.obj
 0001:000b51a0       ?SecondaryAttack@CMP5@@UAEXXZ 100b61a0 f   mp5.obj
 0001:000b54c0       ?Reload@CMP5@@UAEXXZ       100b64c0 f   mp5.obj
 0001:000b54f0       ?WeaponIdle@CMP5@@UAEXXZ   100b64f0 f   mp5.obj
 0001:000b5590       ??0CMP5@@QAE@XZ            100b6590 f i mp5.obj
 0001:000b55b0       ?iItemSlot@CMP5@@UAEHXZ    100b65b0 f i mp5.obj
 0001:000b55c0       ?UseDecrement@CMP5@@UAEHXZ 100b65c0 f i mp5.obj
 0001:000b55d0       ??$GetClassPtr@VCMP5@@@@YAPAVCMP5@@PAV0@@Z 100b65d0 f i mp5.obj
 0001:000b5680       ??0CMP5AmmoClip@@QAE@XZ    100b6680 f i mp5.obj
 0001:000b56a0       ?Spawn@CMP5AmmoClip@@EAEXXZ 100b66a0 f i mp5.obj
 0001:000b56d0       ?Precache@CMP5AmmoClip@@EAEXXZ 100b66d0 f i mp5.obj
 0001:000b56f0       ?AddAmmo@CMP5AmmoClip@@EAEHPAVCBaseEntity@@@Z 100b66f0 f i mp5.obj
 0001:000b5760       ??0CMP5Chainammo@@QAE@XZ   100b6760 f i mp5.obj
 0001:000b5780       ?Spawn@CMP5Chainammo@@EAEXXZ 100b6780 f i mp5.obj
 0001:000b57b0       ?Precache@CMP5Chainammo@@EAEXXZ 100b67b0 f i mp5.obj
 0001:000b57d0       ?AddAmmo@CMP5Chainammo@@EAEHPAVCBaseEntity@@@Z 100b67d0 f i mp5.obj
 0001:000b5840       ??0CMP5AmmoGrenade@@QAE@XZ 100b6840 f i mp5.obj
 0001:000b5860       ?Spawn@CMP5AmmoGrenade@@EAEXXZ 100b6860 f i mp5.obj
 0001:000b5890       ?Precache@CMP5AmmoGrenade@@EAEXXZ 100b6890 f i mp5.obj
 0001:000b58b0       ?AddAmmo@CMP5AmmoGrenade@@EAEHPAVCBaseEntity@@@Z 100b68b0 f i mp5.obj
 0001:000b5920       _weapon_mp5                100b6920 f   mp5.obj
 0001:000b5930       _weapon_9mmAR              100b6930 f   mp5.obj
 0001:000b5940       ??$GetClassPtr@VCMP5AmmoClip@@@@YAPAVCMP5AmmoClip@@PAV0@@Z 100b6940 f i mp5.obj
 0001:000b59f0       ??$GetClassPtr@VCMP5Chainammo@@@@YAPAVCMP5Chainammo@@PAV0@@Z 100b69f0 f i mp5.obj
 0001:000b5aa0       ??$GetClassPtr@VCMP5AmmoGrenade@@@@YAPAVCMP5AmmoGrenade@@PAV0@@Z 100b6aa0 f i mp5.obj
 0001:000b5b50       _ammo_mp5clip              100b6b50 f   mp5.obj
 0001:000b5b60       _ammo_9mmAR                100b6b60 f   mp5.obj
 0001:000b5b70       _ammo_9mmbox               100b6b70 f   mp5.obj
 0001:000b5b80       _ammo_mp5grenades          100b6b80 f   mp5.obj
 0001:000b5b90       _ammo_ARgrenades           100b6b90 f   mp5.obj
 0001:000b5ba0       ?pszName@CBasePlayerItem@@QAEPBDXZ 100b6ba0 f i multiplay_gamerules.obj
 0001:000b5bb0       ?iWeight@CBasePlayerItem@@QAEHXZ 100b6bb0 f i multiplay_gamerules.obj
 0001:000b5bc0       ?iFlags@CBasePlayerItem@@QAEHXZ 100b6bc0 f i multiplay_gamerules.obj
 0001:000b5bd0       ?ClientCommand@CGameRules@@UAEHPAVCBasePlayer@@PBD@Z 100b6bd0 f i multiplay_gamerules.obj
 0001:000b5be0       ??1IVoiceGameMgrHelper@@UAE@XZ 100b6be0 f i multiplay_gamerules.obj
 0001:000b5bf0       ??_EIVoiceGameMgrHelper@@UAEPAXI@Z 100b6bf0 f i multiplay_gamerules.obj
 0001:000b5bf0       ??_GIVoiceGameMgrHelper@@UAEPAXI@Z 100b6bf0 f i multiplay_gamerules.obj
 0001:000b5c20       ??1CMultiplayGameMgrHelper@@UAE@XZ 100b6c20 f i multiplay_gamerules.obj
 0001:000b5c30       ??0IVoiceGameMgrHelper@@QAE@XZ 100b6c30 f i multiplay_gamerules.obj
 0001:000b5c40       ??0CGameRules@@QAE@XZ      100b6c40 f i multiplay_gamerules.obj
 0001:000b5c50       ?IsTeamplay@CGameRules@@UAEHXZ 100b6c50 f i multiplay_gamerules.obj
 0001:000b5c60       ?GetGameDescription@CGameRules@@UAEPBDXZ 100b6c60 f i multiplay_gamerules.obj
 0001:000b5c70       ?UpdateGameMode@CGameRules@@UAEXPAVCBasePlayer@@@Z 100b6c70 f i multiplay_gamerules.obj
 0001:000b5c80       ?FPlayerCanTakeDamage@CGameRules@@UAEHPAVCBasePlayer@@PAVCBaseEntity@@@Z 100b6c80 f i multiplay_gamerules.obj
 0001:000b5c90       ?ShouldAutoAim@CGameRules@@UAEHPAVCBasePlayer@@PAUedict_s@@@Z 100b6c90 f i multiplay_gamerules.obj
 0001:000b5ca0       ?AllowAutoTargetCrosshair@CGameRules@@UAEHXZ 100b6ca0 f i multiplay_gamerules.obj
 0001:000b5cb0       ?ClientUserInfoChanged@CGameRules@@UAEXPAVCBasePlayer@@PAD@Z 100b6cb0 f i multiplay_gamerules.obj
 0001:000b5cc0       ?FlHEVChargerRechargeTime@CGameRules@@UAEMXZ 100b6cc0 f i multiplay_gamerules.obj
 0001:000b5cd0       ?GetTeamIndex@CGameRules@@UAEHPBD@Z 100b6cd0 f i multiplay_gamerules.obj
 0001:000b5ce0       ?GetIndexedTeamName@CGameRules@@UAEPBDH@Z 100b6ce0 f i multiplay_gamerules.obj
 0001:000b5cf0       ?IsValidTeam@CGameRules@@UAEHPBD@Z 100b6cf0 f i multiplay_gamerules.obj
 0001:000b5d00       ?ChangePlayerTeam@CGameRules@@UAEXPAVCBasePlayer@@PBDHH@Z 100b6d00 f i multiplay_gamerules.obj
 0001:000b5d10       ?SetDefaultPlayerTeam@CGameRules@@UAEPBDPAVCBasePlayer@@@Z 100b6d10 f i multiplay_gamerules.obj
 0001:000b5d20       ?PlayTextureSounds@CGameRules@@UAEHXZ 100b6d20 f i multiplay_gamerules.obj
 0001:000b5d30       ?PlayFootstepSounds@CGameRules@@UAEHPAVCBasePlayer@@M@Z 100b6d30 f i multiplay_gamerules.obj
 0001:000b5d40       ?EndMultiplayerGame@CGameRules@@UAEXXZ 100b6d40 f i multiplay_gamerules.obj
 0001:000b5d50       ?ClientCommand@CHalfLifeMultiplay@@UAEHPAVCBasePlayer@@PBD@Z 100b6d50 f   multiplay_gamerules.obj
 0001:000b5d80       ?RefreshSkillData@CHalfLifeMultiplay@@UAEXXZ 100b6d80 f   multiplay_gamerules.obj
 0001:000b5e20       ?Think@CHalfLifeMultiplay@@UAEXXZ 100b6e20 f   multiplay_gamerules.obj
 0001:000b6060       ?IsMultiplayer@CHalfLifeMultiplay@@UAEHXZ 100b7060 f   multiplay_gamerules.obj
 0001:000b6070       ?IsDeathmatch@CHalfLifeMultiplay@@UAEHXZ 100b7070 f   multiplay_gamerules.obj
 0001:000b6080       ?IsCoOp@CHalfLifeMultiplay@@UAEHXZ 100b7080 f   multiplay_gamerules.obj
 0001:000b6090       ?FShouldSwitchWeapon@CHalfLifeMultiplay@@UAEHPAVCBasePlayer@@PAVCBasePlayerItem@@@Z 100b7090 f   multiplay_gamerules.obj
 0001:000b6110       ?GetNextBestWeapon@CHalfLifeMultiplay@@UAEHPAVCBasePlayer@@PAVCBasePlayerItem@@@Z 100b7110 f   multiplay_gamerules.obj
 0001:000b6220       ?ClientConnected@CHalfLifeMultiplay@@UAEHPAUedict_s@@PBD1QAD@Z 100b7220 f   multiplay_gamerules.obj
 0001:000b6240       ?UpdateGameMode@CHalfLifeMultiplay@@UAEXPAVCBasePlayer@@@Z 100b7240 f   multiplay_gamerules.obj
 0001:000b6280       ?ClientDisconnected@CHalfLifeMultiplay@@UAEXPAUedict_s@@@Z 100b7280 f   multiplay_gamerules.obj
 0001:000b6370       ?FlPlayerFallDamage@CHalfLifeMultiplay@@UAEMPAVCBasePlayer@@@Z 100b7370 f   multiplay_gamerules.obj
 0001:000b63c0       ?FPlayerCanTakeDamage@CHalfLifeMultiplay@@UAEHPAVCBasePlayer@@PAVCBaseEntity@@@Z 100b73c0 f   multiplay_gamerules.obj
 0001:000b63d0       ?PlayerThink@CHalfLifeMultiplay@@UAEXPAVCBasePlayer@@@Z 100b73d0 f   multiplay_gamerules.obj
 0001:000b6410       ?PlayerSpawn@CHalfLifeMultiplay@@UAEXPAVCBasePlayer@@@Z 100b7410 f   multiplay_gamerules.obj
 0001:000b64a0       ?FPlayerCanRespawn@CHalfLifeMultiplay@@UAEHPAVCBasePlayer@@@Z 100b74a0 f   multiplay_gamerules.obj
 0001:000b64b0       ?FlPlayerSpawnTime@CHalfLifeMultiplay@@UAEMPAVCBasePlayer@@@Z 100b74b0 f   multiplay_gamerules.obj
 0001:000b64c0       ?AllowAutoTargetCrosshair@CHalfLifeMultiplay@@UAEHXZ 100b74c0 f   multiplay_gamerules.obj
 0001:000b64e0       ?IPointsForKill@CHalfLifeMultiplay@@UAEHPAVCBasePlayer@@0@Z 100b74e0 f   multiplay_gamerules.obj
 0001:000b64f0       ?PlayerKilled@CHalfLifeMultiplay@@UAEXPAVCBasePlayer@@PAUentvars_s@@1@Z 100b74f0 f   multiplay_gamerules.obj
 0001:000b6740       ?DeathNotice@CHalfLifeMultiplay@@UAEXPAVCBasePlayer@@PAUentvars_s@@1@Z 100b7740 f   multiplay_gamerules.obj
 0001:000b6c20       ?PlayerGotWeapon@CHalfLifeMultiplay@@UAEXPAVCBasePlayer@@PAVCBasePlayerItem@@@Z 100b7c20 f   multiplay_gamerules.obj
 0001:000b6c30       ?FlWeaponRespawnTime@CHalfLifeMultiplay@@UAEMPAVCBasePlayerItem@@@Z 100b7c30 f   multiplay_gamerules.obj
 0001:000b6c90       ?FlWeaponTryRespawn@CHalfLifeMultiplay@@UAEMPAVCBasePlayerItem@@@Z 100b7c90 f   multiplay_gamerules.obj
 0001:000b6cf0       ?VecWeaponRespawnSpot@CHalfLifeMultiplay@@UAE?AVVector@@PAVCBasePlayerItem@@@Z 100b7cf0 f   multiplay_gamerules.obj
 0001:000b6d20       ?WeaponShouldRespawn@CHalfLifeMultiplay@@UAEHPAVCBasePlayerItem@@@Z 100b7d20 f   multiplay_gamerules.obj
 0001:000b6d40       ?CanHavePlayerItem@CHalfLifeMultiplay@@UAEHPAVCBasePlayer@@PAVCBasePlayerItem@@@Z 100b7d40 f   multiplay_gamerules.obj
 0001:000b6dd0       ?CanHaveItem@CHalfLifeMultiplay@@UAEHPAVCBasePlayer@@PAVCItem@@@Z 100b7dd0 f   multiplay_gamerules.obj
 0001:000b6de0       ?PlayerGotItem@CHalfLifeMultiplay@@UAEXPAVCBasePlayer@@PAVCItem@@@Z 100b7de0 f   multiplay_gamerules.obj
 0001:000b6df0       ?ItemShouldRespawn@CHalfLifeMultiplay@@UAEHPAVCItem@@@Z 100b7df0 f   multiplay_gamerules.obj
 0001:000b6e20       ?FlItemRespawnTime@CHalfLifeMultiplay@@UAEMPAVCItem@@@Z 100b7e20 f   multiplay_gamerules.obj
 0001:000b6e40       ?VecItemRespawnSpot@CHalfLifeMultiplay@@UAE?AVVector@@PAVCItem@@@Z 100b7e40 f   multiplay_gamerules.obj
 0001:000b6e70       ?PlayerGotAmmo@CHalfLifeMultiplay@@UAEXPAVCBasePlayer@@PADH@Z 100b7e70 f   multiplay_gamerules.obj
 0001:000b6e80       ?IsAllowedToSpawn@CHalfLifeMultiplay@@UAEHPAVCBaseEntity@@@Z 100b7e80 f   multiplay_gamerules.obj
 0001:000b6e90       ?AmmoShouldRespawn@CHalfLifeMultiplay@@UAEHPAVCBasePlayerAmmo@@@Z 100b7e90 f   multiplay_gamerules.obj
 0001:000b6ec0       ?FlAmmoRespawnTime@CHalfLifeMultiplay@@UAEMPAVCBasePlayerAmmo@@@Z 100b7ec0 f   multiplay_gamerules.obj
 0001:000b6ee0       ?VecAmmoRespawnSpot@CHalfLifeMultiplay@@UAE?AVVector@@PAVCBasePlayerAmmo@@@Z 100b7ee0 f   multiplay_gamerules.obj
 0001:000b6f10       ?FlHealthChargerRechargeTime@CHalfLifeMultiplay@@UAEMXZ 100b7f10 f   multiplay_gamerules.obj
 0001:000b6f20       ?FlHEVChargerRechargeTime@CHalfLifeMultiplay@@UAEMXZ 100b7f20 f   multiplay_gamerules.obj
 0001:000b6f30       ?DeadPlayerWeapons@CHalfLifeMultiplay@@UAEHPAVCBasePlayer@@@Z 100b7f30 f   multiplay_gamerules.obj
 0001:000b6f40       ?DeadPlayerAmmo@CHalfLifeMultiplay@@UAEHPAVCBasePlayer@@@Z 100b7f40 f   multiplay_gamerules.obj
 0001:000b6f50       ?GetPlayerSpawnSpot@CHalfLifeMultiplay@@UAEPAUedict_s@@PAVCBasePlayer@@@Z 100b7f50 f   multiplay_gamerules.obj
 0001:000b6fb0       ?PlayerRelationship@CHalfLifeMultiplay@@UAEHPAVCBaseEntity@@0@Z 100b7fb0 f   multiplay_gamerules.obj
 0001:000b6fc0       ?PlayFootstepSounds@CHalfLifeMultiplay@@UAEHPAVCBasePlayer@@M@Z 100b7fc0 f   multiplay_gamerules.obj
 0001:000b7030       ?FAllowFlashlight@CHalfLifeMultiplay@@UAEHXZ 100b8030 f   multiplay_gamerules.obj
 0001:000b7050       ?FAllowMonsters@CHalfLifeMultiplay@@UAEHXZ 100b8050 f   multiplay_gamerules.obj
 0001:000b7070       ?GoToIntermission@CHalfLifeMultiplay@@MAEXXZ 100b8070 f   multiplay_gamerules.obj
 0001:000b7120       ?DestroyMapCycle@@YAXPAUmapcycle_s@@@Z 100b8120 f   multiplay_gamerules.obj
 0001:000b7170       ?COM_Parse@@YAPADPAD@Z     100b8170 f   multiplay_gamerules.obj
 0001:000b7270       ?COM_TokenWaiting@@YAHPAD@Z 100b8270 f   multiplay_gamerules.obj
 0001:000b72c0       ?ReloadMapCycleFile@@YAHPADPAUmapcycle_s@@@Z 100b82c0 f   multiplay_gamerules.obj
 0001:000b75c0       ?CountPlayers@@YAHXZ       100b85c0 f   multiplay_gamerules.obj
 0001:000b7600       ?ExtractCommandString@@YAXPAD0@Z 100b8600 f   multiplay_gamerules.obj
 0001:000b7730       ?ChangeLevel@CHalfLifeMultiplay@@MAEXXZ 100b8730 f   multiplay_gamerules.obj
 0001:000b79b0       ?SendMOTDToClient@CHalfLifeMultiplay@@IAEXPAUedict_s@@@Z 100b89b0 f   multiplay_gamerules.obj
 0001:000b7b00       ??0CMultiplayGameMgrHelper@@QAE@XZ 100b8b00 f i multiplay_gamerules.obj
 0001:000b7b10       ?CanPlayerHearPlayer@CMultiplayGameMgrHelper@@UAE_NPAVCBasePlayer@@0@Z 100b8b10 f i multiplay_gamerules.obj
 0001:000b7b50       ??_ECMultiplayGameMgrHelper@@UAEPAXI@Z 100b8b50 f i multiplay_gamerules.obj
 0001:000b7b50       ??_GCMultiplayGameMgrHelper@@UAEPAXI@Z 100b8b50 f i multiplay_gamerules.obj
 0001:000b7b80       ??0CHalfLifeMultiplay@@QAE@XZ 100b8b80 f   multiplay_gamerules.obj
 0001:000b7c70       ?GetTeamID@CHalfLifeMultiplay@@UAEPBDPAVCBaseEntity@@@Z 100b8c70 f i multiplay_gamerules.obj
 0001:000b7c80       ?PlayTextureSounds@CHalfLifeMultiplay@@UAEHXZ 100b8c80 f i multiplay_gamerules.obj
 0001:000b7c90       ?EndMultiplayerGame@CHalfLifeMultiplay@@UAEXXZ 100b8c90 f i multiplay_gamerules.obj
 0001:000b7ca0       ?InitHUD@CHalfLifeMultiplay@@UAEXPAVCBasePlayer@@@Z 100b8ca0 f   multiplay_gamerules.obj
 0001:000b7f00       ?Save@CNihilanth@@UAEHAAVCSave@@@Z 100b8f00 f   nihilanth.obj
 0001:000b7f40       ?Restore@CNihilanth@@UAEHAAVCRestore@@@Z 100b8f40 f   nihilanth.obj
 0001:000b7f80       ?Save@CNihilanthHVR@@UAEHAAVCSave@@@Z 100b8f80 f   nihilanth.obj
 0001:000b7fc0       ?Restore@CNihilanthHVR@@UAEHAAVCRestore@@@Z 100b8fc0 f   nihilanth.obj
 0001:000b8000       ??0CNihilanth@@QAE@XZ      100b9000 f   nihilanth.obj
 0001:000b8020       ?Classify@CNihilanth@@UAEHXZ 100b9020 f i nihilanth.obj
 0001:000b8030       ?BloodColor@CNihilanth@@UAEHXZ 100b9030 f i nihilanth.obj
 0001:000b8040       ?SetObjectCollisionBox@CNihilanth@@UAEXXZ 100b9040 f i nihilanth.obj
 0001:000b80d0       ?Precache@CNihilanth@@UAEXXZ 100b90d0 f   nihilanth.obj
 0001:000b81d0       ?PainSound@CNihilanth@@UAEXXZ 100b91d0 f   nihilanth.obj
 0001:000b82c0       ?DeathSound@CNihilanth@@UAEXXZ 100b92c0 f   nihilanth.obj
 0001:000b8300       ?NullThink@CNihilanth@@QAEXXZ 100b9300 f   nihilanth.obj
 0001:000b8340       ?Killed@CNihilanth@@UAEXPAUentvars_s@@0H@Z 100b9340 f   nihilanth.obj
 0001:000b8350       ?CrashTouch@CNihilanth@@QAEXPAVCBaseEntity@@@Z 100b9350 f   nihilanth.obj
 0001:000b8390       ?GibMonster@CNihilanth@@UAEXH@Z 100b9390 f   nihilanth.obj
 0001:000b83a0       ?FloatSequence@CNihilanth@@QAEXXZ 100b93a0 f   nihilanth.obj
 0001:000b8480       ?MakeFriend@CNihilanth@@QAEXVVector@@@Z 100b9480 f   nihilanth.obj
 0001:000b86b0       ?NextActivity@CNihilanth@@QAEXXZ 100b96b0 f   nihilanth.obj
 0001:000b8d60       ?Flight@CNihilanth@@QAEXXZ 100b9d60 f   nihilanth.obj
 0001:000b90e0       ?TargetSphere@CNihilanth@@QAEXW4USE_TYPE@@M@Z 100ba0e0 f   nihilanth.obj
 0001:000b9250       ?CommandUse@CNihilanth@@QAEXPAVCBaseEntity@@0W4USE_TYPE@@M@Z 100ba250 f   nihilanth.obj
 0001:000b92c0       ?TakeDamage@CNihilanth@@UAEHPAUentvars_s@@0MHH@Z 100ba2c0 f   nihilanth.obj
 0001:000b9330       ?TraceAttack@CNihilanth@@UAEXPAUentvars_s@@MVVector@@PAUTraceResult@@HHHPAH@Z 100ba330 f   nihilanth.obj
 0001:000b9410       ?RandomTargetname@CNihilanth@@QAEPAVCBaseEntity@@PBD@Z 100ba410 f   nihilanth.obj
 0001:000b9470       ??0CNihilanthHVR@@QAE@XZ   100ba470 f   nihilanth.obj
 0001:000b9490       ?Spawn@CNihilanthHVR@@UAEXXZ 100ba490 f   nihilanth.obj
 0001:000b94d0       ?Precache@CNihilanthHVR@@UAEXXZ 100ba4d0 f   nihilanth.obj
 0001:000b9560       ?RandomClassname@CNihilanthHVR@@QAEPAVCBaseEntity@@PBD@Z 100ba560 f   nihilanth.obj
 0001:000b95c0       ?ZapThink@CNihilanthHVR@@QAEXXZ 100ba5c0 f   nihilanth.obj
 0001:000b9a00       ?ZapTouch@CNihilanthHVR@@QAEXPAVCBaseEntity@@@Z 100baa00 f   nihilanth.obj
 0001:000b9ad0       ?TeleportTouch@CNihilanthHVR@@QAEXPAVCBaseEntity@@@Z 100baad0 f   nihilanth.obj
 0001:000b9bb0       ?CircleTarget@CNihilanthHVR@@QAEHVVector@@@Z 100babb0 f   nihilanth.obj
 0001:000ba010       ?MovetoTarget@CNihilanthHVR@@QAEXVVector@@@Z 100bb010 f   nihilanth.obj
 0001:000ba160       ?Crawl@CNihilanthHVR@@UAEXXZ 100bb160 f   nihilanth.obj
 0001:000ba300       ?RemoveTouch@CNihilanthHVR@@QAEXPAVCBaseEntity@@@Z 100bb300 f   nihilanth.obj
 0001:000ba340       ??$GetClassPtr@VCNihilanth@@@@YAPAVCNihilanth@@PAV0@@Z 100bb340 f i nihilanth.obj
 0001:000ba3e0       ??$GetClassPtr@VCNihilanthHVR@@@@YAPAVCNihilanthHVR@@PAV0@@Z 100bb3e0 f i nihilanth.obj
 0001:000ba480       _monster_nihilanth         100bb480 f   nihilanth.obj
 0001:000ba490       _nihilanth                 100bb490 f   nihilanth.obj
 0001:000ba4a0       _bigbaby                   100bb4a0 f   nihilanth.obj
 0001:000ba4b0       _nihilanth_energy_ball     100bb4b0 f   nihilanth.obj
 0001:000ba4c0       ?Killed@CNihilanth@@UAEXPAUentvars_s@@H@Z 100bb4c0 f   nihilanth.obj
 0001:000ba4e0       ?GibMonster@CNihilanth@@UAEXXZ 100bb4e0 f   nihilanth.obj
 0001:000ba4f0       ?TakeDamage@CNihilanth@@UAEHPAUentvars_s@@0MH@Z 100bb4f0 f   nihilanth.obj
 0001:000ba520       ?TraceAttack@CNihilanth@@UAEXPAUentvars_s@@MVVector@@PAUTraceResult@@H@Z 100bb520 f   nihilanth.obj
 0001:000ba560       ?TraceAttack@CNihilanth@@UAEXPAUentvars_s@@MVVector@@PAUTraceResult@@HH@Z 100bb560 f   nihilanth.obj
 0001:000ba5a0       ?TraceAttack@CNihilanth@@UAEXPAUentvars_s@@MVVector@@PAUTraceResult@@HHH@Z 100bb5a0 f   nihilanth.obj
 0001:000ba5e0       ?HoverThink@CNihilanthHVR@@QAEXXZ 100bb5e0 f   nihilanth.obj
 0001:000ba6a0       ?ZapInit@CNihilanthHVR@@QAEXPAVCBaseEntity@@@Z 100bb6a0 f   nihilanth.obj
 0001:000ba7e0       ?GreenBallInit@CNihilanthHVR@@QAEXXZ 100bb7e0 f   nihilanth.obj
 0001:000ba850       ?TeleportThink@CNihilanthHVR@@QAEXXZ 100bb850 f   nihilanth.obj
 0001:000bab50       ?DissipateThink@CNihilanthHVR@@QAEXXZ 100bbb50 f   nihilanth.obj
 0001:000bacd0       ?BounceTouch@CNihilanthHVR@@QAEXPAVCBaseEntity@@@Z 100bbcd0 f   nihilanth.obj
 0001:000badf0       ?DyingThink@CNihilanth@@QAEXXZ 100bbdf0 f   nihilanth.obj
 0001:000bb510       ?ShootBalls@CNihilanth@@QAEXXZ 100bc510 f   nihilanth.obj
 0001:000bb8e0       ?CircleInit@CNihilanthHVR@@QAEXPAVCBaseEntity@@@Z 100bc8e0 f   nihilanth.obj
 0001:000bb9f0       ?TeleportInit@CNihilanthHVR@@QAEXPAVCNihilanth@@PAVCBaseEntity@@11@Z 100bc9f0 f   nihilanth.obj
 0001:000bbb00       ?AbsorbInit@CNihilanthHVR@@QAEXXZ 100bcb00 f   nihilanth.obj
 0001:000bbbf0       ?AbsorbSphere@CNihilanth@@QAEHXZ 100bcbf0 f   nihilanth.obj
 0001:000bbc50       ?EmitSphere@CNihilanth@@QAEHXZ 100bcc50 f   nihilanth.obj
 0001:000bbd40       ?HandleAnimEvent@CNihilanth@@UAEXPAUMonsterEvent_t@@@Z 100bcd40 f   nihilanth.obj
 0001:000bc3f0       ?HuntThink@CNihilanth@@QAEXXZ 100bd3f0 f   nihilanth.obj
 0001:000bc6a0       ?StartupUse@CNihilanth@@QAEXPAVCBaseEntity@@0W4USE_TYPE@@M@Z 100bd6a0 f   nihilanth.obj
 0001:000bc6e0       ?StartupThink@CNihilanth@@QAEXXZ 100bd6e0 f   nihilanth.obj
 0001:000bc7b0       ?Spawn@CNihilanth@@UAEXXZ  100bd7b0 f   nihilanth.obj
 0001:000bca80       ?VARS@@YAPAUentvars_s@@PAU1@@Z 100bda80 f i nodes.obj
 0001:000bca90       ?UTIL_CenterPrintAll@@YAXPBD0000@Z 100bda90 f i nodes.obj
 0001:000bcac0       ?FIND_ENTITY_BY_TARGET@@YAPAUedict_s@@PAU1@PBD@Z 100bdac0 f i nodes.obj
 0001:000bcae0       ?CapIndex@CGraph@@QAEHH@Z  100bdae0 f i nodes.obj
 0001:000bcb00       ?INodeLink@CGraph@@QAEHHH@Z 100bdb00 f i nodes.obj
 0001:000bcb30       ?Full@CQueue@@QAEHXZ       100bdb30 f i nodes.obj
 0001:000bcb40       ?Full@CQueuePriority@@QAEHXZ 100bdb40 f i nodes.obj
 0001:000bcb50       ?Empty@CQueuePriority@@QAEHXZ 100bdb50 f i nodes.obj
 0001:000bcb60       ??0CACHE_ENTRY@@QAE@XZ     100bdb60 f i nodes.obj
 0001:000bcb70       ?InitGraph@CGraph@@QAEXXZ  100bdb70 f   nodes.obj
 0001:000bcc00       ?AllocNodes@CGraph@@QAEHXZ 100bdc00 f   nodes.obj
 0001:000bcc40       ?HandleLinkEnt@CGraph@@QAEHHPAUentvars_s@@HW4NODEQUERY@1@@Z 100bdc40 f   nodes.obj
 0001:000bce20       ?HullIndex@CGraph@@QAEHPBVCBaseEntity@@@Z 100bde20 f   nodes.obj
 0001:000bcef0       ?NodeType@CGraph@@QAEHPBVCBaseEntity@@@Z 100bdef0 f   nodes.obj
 0001:000bcf20       ?pathBetweenClear@CGraph@@QAEHHH@Z 100bdf20 f   nodes.obj
 0001:000bcfd0       ?NextNodeInRoute@CGraph@@QAEHHHHH@Z 100bdfd0 f   nodes.obj
 0001:000bd0b0       ?Hash@@YAKPAXH@Z           100be0b0 f i nodes.obj
 0001:000bd0f0       ?CalcBounds@@YAXAAH0HH@Z   100be0f0 f i nodes.obj
 0001:000bd130       ?CALC_RANGE@@YAHHHH@Z      100be130 f i nodes.obj
 0001:000bd150       ?UpdateRange@@YAXAAH0HH@Z  100be150 f i nodes.obj
 0001:000bd1a0       ?CheckNode@CGraph@@QAEXVVector@@H@Z 100be1a0 f   nodes.obj
 0001:000bd500       ?FindNearestNode@CGraph@@QAEHABVVector@@H@Z 100be500 f   nodes.obj
 0001:000bdb20       ?ShowNodeConnections@CGraph@@QAEXH@Z 100beb20 f   nodes.obj
 0001:000bdcc0       ?ShowNodeConnectionsFrame@CGraph@@QAEXH@Z 100becc0 f   nodes.obj
 0001:000bdda0       ?LinkVisibleNodes@CGraph@@QAEHPAVCLink@@PAU_iobuf@@PAH@Z 100beda0 f   nodes.obj
 0001:000be1e0       ?RejectInlineLinks@CGraph@@QAEHPAVCLink@@PAU_iobuf@@@Z 100bf1e0 f   nodes.obj
 0001:000be4a0       ?isOrganic@CTestHull@@UAEHXZ 100bf4a0 f   nodes.obj
 0001:000be4b0       ?KeyValue@CNodeEnt@@EAEXPAUKeyValueData_s@@@Z 100bf4b0 f   nodes.obj
 0001:000be570       ?ShowBadNode@CTestHull@@QAEXXZ 100bf570 f   nodes.obj
 0001:000be770       ??0CStack@@QAE@XZ          100bf770 f   nodes.obj
 0001:000be780       ?Push@CStack@@QAEXH@Z      100bf780 f   nodes.obj
 0001:000be7b0       ?Pop@CStack@@QAEHXZ        100bf7b0 f   nodes.obj
 0001:000be7d0       ?Top@CStack@@QAEHXZ        100bf7d0 f   nodes.obj
 0001:000be7e0       ?CopyToArray@CStack@@QAEXPAH@Z 100bf7e0 f   nodes.obj
 0001:000be810       ??0CQueue@@QAE@XZ          100bf810 f   nodes.obj
 0001:000be830       ?Insert@CQueue@@QAEXHM@Z   100bf830 f   nodes.obj
 0001:000be890       ?Remove@CQueue@@QAEHAAM@Z  100bf890 f   nodes.obj
 0001:000be8d0       ??0CQueuePriority@@QAE@XZ  100bf8d0 f   nodes.obj
 0001:000be8e0       ?Heap_SiftDown@CQueuePriority@@AAEXH@Z 100bf8e0 f   nodes.obj
 0001:000be960       ?Heap_SiftUp@CQueuePriority@@AAEXXZ 100bf960 f   nodes.obj
 0001:000be9b0       ?FLoadGraph@CGraph@@QAEHPAD@Z 100bf9b0 f   nodes.obj
 0001:000bee30       ?FSaveGraph@CGraph@@QAEHPAD@Z 100bfe30 f   nodes.obj
 0001:000bf070       ?FSetGraphPointers@CGraph@@QAEHXZ 100c0070 f   nodes.obj
 0001:000bf150       ?CheckNODFile@CGraph@@QAEHPAD@Z 100c0150 f   nodes.obj
 0001:000bf2c0       ?HashInsert@CGraph@@QAEXHHH@Z 100c02c0 f   nodes.obj
 0001:000bf370       ?HashSearch@CGraph@@QAEXHHAAH@Z 100c0370 f   nodes.obj
 0001:000bf440       ?HashChoosePrimes@CGraph@@QAEXH@Z 100c0440 f   nodes.obj
 0001:000bf540       ??0CNode@@QAE@ABV0@@Z      100c0540 f i nodes.obj
 0001:000bf5d0       ?BuildLinkLookups@CGraph@@QAEXXZ 100c05d0 f   nodes.obj
 0001:000bf670       ?BuildRegionTables@CGraph@@QAEXXZ 100c0670 f   nodes.obj
 0001:000bfaf0       ?AddNode@CNodeViewer@@QAEXHH@Z 100c0af0 f   nodes.obj
 0001:000bfb70       ?DrawThink@CNodeViewer@@QAEXXZ 100c0b70 f   nodes.obj
 0001:000bfd60       ??0CNodeEnt@@QAE@XZ        100c0d60 f i nodes.obj
 0001:000bfd80       ?ObjectCaps@CNodeEnt@@EAEHXZ 100c0d80 f i nodes.obj
 0001:000bfd90       ??0CTestHull@@QAE@XZ       100c0d90 f i nodes.obj
 0001:000bfdb0       ?ObjectCaps@CTestHull@@UAEHXZ 100c0db0 f i nodes.obj
 0001:000bfdc0       ??0CNodeViewer@@QAE@XZ     100c0dc0 f i nodes.obj
 0001:000bfde0       ??0CGraph@@QAE@XZ          100c0de0 f i nodes.obj
 0001:000bfdf0       ?LinkEntForLink@CGraph@@QAEPAUentvars_s@@PAVCLink@@PAVCNode@@@Z 100c0df0 f   nodes.obj
 0001:000bffb0       ?PathLength@CGraph@@QAEMHHHH@Z 100c0fb0 f   nodes.obj
 0001:000c0090       ?FindNearestNode@CGraph@@QAEHABVVector@@PAVCBaseEntity@@@Z 100c1090 f   nodes.obj
 0001:000c00b0       ?Insert@CQueuePriority@@QAEXHM@Z 100c10b0 f   nodes.obj
 0001:000c00f0       ?Remove@CQueuePriority@@QAEHAAM@Z 100c10f0 f   nodes.obj
 0001:000c0120       ?SortNodes@CGraph@@QAEXXZ  100c1120 f   nodes.obj
 0001:000c0330       ?FindNodeConnections@CNodeViewer@@QAEXH@Z 100c1330 f   nodes.obj
 0001:000c03d0       ??$GetClassPtr@VCNodeEnt@@@@YAPAVCNodeEnt@@PAV0@@Z 100c13d0 f i nodes.obj
 0001:000c0480       ??$GetClassPtr@VCTestHull@@@@YAPAVCTestHull@@PAV0@@Z 100c1480 f i nodes.obj
 0001:000c0530       ??$GetClassPtr@VCNodeViewer@@@@YAPAVCNodeViewer@@PAV0@@Z 100c1530 f i nodes.obj
 0001:000c05e0       _info_node                 100c15e0 f   nodes.obj
 0001:000c05f0       _info_node_air             100c15f0 f   nodes.obj
 0001:000c0600       ?FindShortestPath@CGraph@@QAEHPAHHHHH@Z 100c1600 f   nodes.obj
 0001:000c09e0       _testhull                  100c19e0 f   nodes.obj
 0001:000c09f0       ?PathFind@CTestHull@@QAEXXZ 100c19f0 f   nodes.obj
 0001:000c0b80       ?ComputeStaticRoutingTables@CGraph@@QAEXXZ 100c1b80 f   nodes.obj
 0001:000c1120       ?TestRoutingTables@CGraph@@QAEXXZ 100c2120 f   nodes.obj
 0001:000c14a0       _node_viewer               100c24a0 f   nodes.obj
 0001:000c14b0       _node_viewer_human         100c24b0 f   nodes.obj
 0001:000c14c0       _node_viewer_fly           100c24c0 f   nodes.obj
 0001:000c14d0       _node_viewer_large         100c24d0 f   nodes.obj
 0001:000c14e0       ?Spawn@CNodeViewer@@UAEXXZ 100c24e0 f   nodes.obj
 0001:000c1720       ?BuildNodeGraph@CTestHull@@QAEXXZ 100c2720 f   nodes.obj
 0001:000c2750       ?CallBuildNodeGraph@CTestHull@@QAEXXZ 100c3750 f   nodes.obj
 0001:000c2770       ?DropDelay@CTestHull@@QAEXXZ 100c3770 f   nodes.obj
 0001:000c27e0       ?Spawn@CTestHull@@QAEXPAUentvars_s@@@Z 100c37e0 f   nodes.obj
 0001:000c28e0       ?Spawn@CNodeEnt@@EAEXXZ    100c38e0 f   nodes.obj
 0001:000c2a50       ?Save@COsprey@@UAEHAAVCSave@@@Z 100c3a50 f   osprey.obj
 0001:000c2a90       ?Restore@COsprey@@UAEHAAVCRestore@@@Z 100c3a90 f   osprey.obj
 0001:000c2ad0       ?Precache@COsprey@@UAEXXZ  100c3ad0 f   osprey.obj
 0001:000c2b80       ?CommandUse@COsprey@@QAEXPAVCBaseEntity@@0W4USE_TYPE@@M@Z 100c3b80 f   osprey.obj
 0001:000c2bb0       ?HasDead@COsprey@@QAEHXZ   100c3bb0 f   osprey.obj
 0001:000c2c40       ?MakeGrunt@COsprey@@QAEPAVCBaseMonster@@VVector@@@Z 100c3c40 f   osprey.obj
 0001:000c2f40       ?UpdateGoal@COsprey@@QAEXXZ 100c3f40 f   osprey.obj
 0001:000c31c0       ?Flight@COsprey@@QAEXXZ    100c41c0 f   osprey.obj
 0001:000c3680       ?HitTouch@COsprey@@QAEXPAVCBaseEntity@@@Z 100c4680 f   osprey.obj
 0001:000c36b0       ?isOrganic@COsprey@@UAEHXZ 100c46b0 f   osprey.obj
 0001:000c36c0       ?CrashTouch@COsprey@@QAEXPAVCBaseEntity@@@Z 100c46c0 f   osprey.obj
 0001:000c3720       ?ShowDamage@COsprey@@QAEXXZ 100c4720 f   osprey.obj
 0001:000c3930       ?TraceAttack@COsprey@@UAEXPAUentvars_s@@MVVector@@PAUTraceResult@@HHHPAH@Z 100c4930 f   osprey.obj
 0001:000c3a40       ?TakeDamage@COsprey@@UAEHPAUentvars_s@@0MHH@Z 100c4a40 f   osprey.obj
 0001:000c3a70       ??0COsprey@@QAE@XZ         100c4a70 f   osprey.obj
 0001:000c3a90       ?ObjectCaps@COsprey@@UAEHXZ 100c4a90 f i osprey.obj
 0001:000c3aa0       ?Classify@COsprey@@UAEHXZ  100c4aa0 f i osprey.obj
 0001:000c3ab0       ?BloodColor@COsprey@@UAEHXZ 100c4ab0 f i osprey.obj
 0001:000c3ac0       ?HoverThink@COsprey@@QAEXXZ 100c4ac0 f   osprey.obj
 0001:000c3b70       ?DyingThink@COsprey@@QAEXXZ 100c4b70 f   osprey.obj
 0001:000c4320       ?TraceAttack@COsprey@@UAEXPAUentvars_s@@MVVector@@PAUTraceResult@@H@Z 100c5320 f   osprey.obj
 0001:000c4360       ?TraceAttack@COsprey@@UAEXPAUentvars_s@@MVVector@@PAUTraceResult@@HH@Z 100c5360 f   osprey.obj
 0001:000c43a0       ?TraceAttack@COsprey@@UAEXPAUentvars_s@@MVVector@@PAUTraceResult@@HHH@Z 100c53a0 f   osprey.obj
 0001:000c43e0       ?TakeDamage@COsprey@@UAEHPAUentvars_s@@0MH@Z 100c53e0 f   osprey.obj
 0001:000c4410       ??$GetClassPtr@VCOsprey@@@@YAPAVCOsprey@@PAV0@@Z 100c5410 f i osprey.obj
 0001:000c44b0       _monster_osprey            100c54b0 f   osprey.obj
 0001:000c44c0       _osprey                    100c54c0 f   osprey.obj
 0001:000c44d0       ?DeployThink@COsprey@@QAEXXZ 100c54d0 f   osprey.obj
 0001:000c4840       ?FlyThink@COsprey@@QAEXXZ  100c5840 f   osprey.obj
 0001:000c49b0       ?Killed@COsprey@@UAEXPAUentvars_s@@0H@Z 100c59b0 f   osprey.obj
 0001:000c4b10       ?FindAllThink@COsprey@@QAEXXZ 100c5b10 f   osprey.obj
 0001:000c4c00       ?Killed@COsprey@@UAEXPAUentvars_s@@H@Z 100c5c00 f   osprey.obj
 0001:000c4c20       ?Spawn@COsprey@@UAEXXZ     100c5c20 f   osprey.obj
 0001:000c4dd0       ?Save@CPathCorner@@UAEHAAVCSave@@@Z 100c5dd0 f   pathcorner.obj
 0001:000c4e10       ?Restore@CPathCorner@@UAEHAAVCRestore@@@Z 100c5e10 f   pathcorner.obj
 0001:000c4e50       ?KeyValue@CPathCorner@@UAEXPAUKeyValueData_s@@@Z 100c5e50 f   pathcorner.obj
 0001:000c4ec0       ?IsWorldAffiliated@CPathCorner@@UAEHXZ 100c5ec0 f   pathcorner.obj
 0001:000c4ed0       ?Spawn@CPathCorner@@UAEXXZ 100c5ed0 f   pathcorner.obj
 0001:000c4ee0       ?Save@CPathTrack@@UAEHAAVCSave@@@Z 100c5ee0 f   pathcorner.obj
 0001:000c4f20       ?Restore@CPathTrack@@UAEHAAVCRestore@@@Z 100c5f20 f   pathcorner.obj
 0001:000c4f60       ?KeyValue@CPathTrack@@UAEXPAUKeyValueData_s@@@Z 100c5f60 f   pathcorner.obj
 0001:000c4fd0       ?IsWorldAffiliated@CPathTrack@@UAEHXZ 100c5fd0 f   pathcorner.obj
 0001:000c4fe0       ?Use@CPathTrack@@UAEXPAVCBaseEntity@@0W4USE_TYPE@@M@Z 100c5fe0 f   pathcorner.obj
 0001:000c5080       ??0CPathTrack@@QAE@XZ      100c6080 f   pathcorner.obj
 0001:000c50a0       ?Spawn@CPathTrack@@UAEXXZ  100c60a0 f   pathcorner.obj
 0001:000c5110       ?ValidPath@CPathTrack@@QAEPAV1@PAV1@H@Z 100c6110 f   pathcorner.obj
 0001:000c5140       ?Project@CPathTrack@@QAEXPAV1@0PAVVector@@M@Z 100c6140 f   pathcorner.obj
 0001:000c51f0       ?GetNext@CPathTrack@@QAEPAV1@XZ 100c61f0 f   pathcorner.obj
 0001:000c5220       ?GetPrevious@CPathTrack@@QAEPAV1@XZ 100c6220 f   pathcorner.obj
 0001:000c5250       ?SetPrevious@CPathTrack@@QAEXPAV1@@Z 100c6250 f   pathcorner.obj
 0001:000c52c0       ?LookAhead@CPathTrack@@QAEPAV1@PAVVector@@MH@Z 100c62c0 f   pathcorner.obj
 0001:000c5620       ?Nearest@CPathTrack@@QAEPAV1@VVector@@@Z 100c6620 f   pathcorner.obj
 0001:000c5730       ?Instance@CPathTrack@@SAPAV1@PAUedict_s@@@Z 100c6730 f   pathcorner.obj
 0001:000c5760       ??$GetClassPtr@VCPathTrack@@@@YAPAVCPathTrack@@PAV0@@Z 100c6760 f i pathcorner.obj
 0001:000c5800       ??0CPathCorner@@QAE@XZ     100c6800 f i pathcorner.obj
 0001:000c5820       ?GetDelay@CPathCorner@@UAEMXZ 100c6820 f i pathcorner.obj
 0001:000c5830       _path_track                100c6830 f   pathcorner.obj
 0001:000c5840       ?Link@CPathTrack@@QAEXXZ   100c6840 f   pathcorner.obj
 0001:000c5920       ?Activate@CPathTrack@@UAEXXZ 100c6920 f   pathcorner.obj
 0001:000c5940       ??$GetClassPtr@VCPathCorner@@@@YAPAVCPathCorner@@PAV0@@Z 100c6940 f i pathcorner.obj
 0001:000c59f0       _path_corner               100c69f0 f   pathcorner.obj
 0001:000c5a00       ??0CPlane@@QAE@XZ          100c6a00 f   plane.obj
 0001:000c5a10       ?InitializePlane@CPlane@@QAEXABVVector@@0@Z 100c6a10 f   plane.obj
 0001:000c5a50       ?PointInFront@CPlane@@QAEHABVVector@@@Z 100c6a50 f   plane.obj
 0001:000c5aa0       ?SetTrack@CFuncTrackTrain@@QAEXPAVCPathTrack@@@Z 100c6aa0 f i plats.obj
 0001:000c5ae0       ?DisableUse@CFuncTrackChange@@QAEXXZ 100c6ae0 f i plats.obj
 0001:000c5af0       ?EnableUse@CFuncTrackChange@@QAEXXZ 100c6af0 f i plats.obj
 0001:000c5b00       ?UseEnabled@CFuncTrackChange@@QAEHXZ 100c6b00 f i plats.obj
 0001:000c5b10       ?Save@CBasePlatTrain@@UAEHAAVCSave@@@Z 100c6b10 f   plats.obj
 0001:000c5b50       ?Restore@CBasePlatTrain@@UAEHAAVCRestore@@@Z 100c6b50 f   plats.obj
 0001:000c5b90       ?KeyValue@CBasePlatTrain@@UAEXPAUKeyValueData_s@@@Z 100c6b90 f   plats.obj
 0001:000c5dc0       ?IsWorldAffiliated@CBasePlatTrain@@UAEHXZ 100c6dc0 f   plats.obj
 0001:000c5dd0       ?Precache@CBasePlatTrain@@UAEXXZ 100c6dd0 f   plats.obj
 0001:000c6050       ?Setup@CFuncPlat@@QAEXXZ   100c7050 f   plats.obj
 0001:000c61c0       ?SpawnInsideTrigger@CPlatTrigger@@QAEXPAVCFuncPlat@@@Z 100c71c0 f   plats.obj
 0001:000c6320       ?Touch@CPlatTrigger@@UAEXPAVCBaseEntity@@@Z 100c7320 f   plats.obj
 0001:000c63c0       ?PlatUse@CFuncPlat@@QAEXPAVCBaseEntity@@0W4USE_TYPE@@M@Z 100c73c0 f   plats.obj
 0001:000c6440       ?IsWorldAffiliated@CFuncPlat@@UAEHXZ 100c7440 f   plats.obj
 0001:000c6450       ?GoDown@CFuncPlat@@UAEXXZ  100c7450 f   plats.obj
 0001:000c64f0       ?HitBottom@CFuncPlat@@UAEXXZ 100c74f0 f   plats.obj
 0001:000c6590       ?GoUp@CFuncPlat@@UAEXXZ    100c7590 f   plats.obj
 0001:000c6630       ?HitTop@CFuncPlat@@UAEXXZ  100c7630 f   plats.obj
 0001:000c6700       ?Blocked@CFuncPlat@@UAEXPAVCBaseEntity@@@Z 100c7700 f   plats.obj
 0001:000c67d0       ?Save@CFuncPlatRot@@UAEHAAVCSave@@@Z 100c77d0 f   plats.obj
 0001:000c6810       ?Restore@CFuncPlatRot@@UAEHAAVCRestore@@@Z 100c7810 f   plats.obj
 0001:000c6850       ?SetupRotation@CFuncPlatRot@@QAEXXZ 100c7850 f   plats.obj
 0001:000c6970       ?HitBottom@CFuncPlatRot@@UAEXXZ 100c7970 f   plats.obj
 0001:000c69c0       ?HitTop@CFuncPlatRot@@UAEXXZ 100c79c0 f   plats.obj
 0001:000c6a10       ?RotMove@CFuncPlatRot@@QAEXAAVVector@@M@Z 100c7a10 f   plats.obj
 0001:000c6ab0       ?Save@CFuncTrain@@UAEHAAVCSave@@@Z 100c7ab0 f   plats.obj
 0001:000c6af0       ?Restore@CFuncTrain@@UAEHAAVCRestore@@@Z 100c7af0 f   plats.obj
 0001:000c6b30       ?KeyValue@CFuncTrain@@UAEXPAUKeyValueData_s@@@Z 100c7b30 f   plats.obj
 0001:000c6ba0       ?IsWorldAffiliated@CFuncTrain@@UAEHXZ 100c7ba0 f   plats.obj
 0001:000c6bb0       ?Blocked@CFuncTrain@@UAEXPAVCBaseEntity@@@Z 100c7bb0 f   plats.obj
 0001:000c6c00       ?Wait@CFuncTrain@@QAEXXZ   100c7c00 f   plats.obj
 0001:000c6dc0       ?Next@CFuncTrain@@QAEXXZ   100c7dc0 f   plats.obj
 0001:000c7100       ?Activate@CFuncTrain@@UAEXXZ 100c8100 f   plats.obj
 0001:000c7220       ?Spawn@CFuncTrain@@UAEXXZ  100c8220 f   plats.obj
 0001:000c7320       ?Precache@CFuncTrain@@UAEXXZ 100c8320 f   plats.obj
 0001:000c7330       ?OverrideReset@CFuncTrain@@UAEXXZ 100c8330 f   plats.obj
 0001:000c73f0       ?Save@CFuncTrackTrain@@UAEHAAVCSave@@@Z 100c83f0 f   plats.obj
 0001:000c7430       ?Restore@CFuncTrackTrain@@UAEHAAVCRestore@@@Z 100c8430 f   plats.obj
 0001:000c7470       ?KeyValue@CFuncTrackTrain@@UAEXPAUKeyValueData_s@@@Z 100c8470 f   plats.obj
 0001:000c7620       ?IsWorldAffiliated@CFuncTrackTrain@@UAEHXZ 100c8620 f   plats.obj
 0001:000c7630       ?NextThink@CFuncTrackTrain@@QAEXMH@Z 100c8630 f   plats.obj
 0001:000c7670       ?Blocked@CFuncTrackTrain@@UAEXPAVCBaseEntity@@@Z 100c8670 f   plats.obj
 0001:000c7870       ?StopSound@CFuncTrackTrain@@QAEXXZ 100c8870 f   plats.obj
 0001:000c7920       ?UpdateSound@CFuncTrackTrain@@QAEXXZ 100c8920 f   plats.obj
 0001:000c7ab0       ?DeadEnd@CFuncTrackTrain@@QAEXXZ 100c8ab0 f   plats.obj
 0001:000c7bf0       ?SetControls@CFuncTrackTrain@@QAEXPAUentvars_s@@@Z 100c8bf0 f   plats.obj
 0001:000c7cb0       ?OnControls@CFuncTrackTrain@@UAEHPAUentvars_s@@@Z 100c8cb0 f   plats.obj
 0001:000c7de0       ?Instance@CFuncTrackTrain@@SAPAV1@PAUedict_s@@@Z 100c8de0 f   plats.obj
 0001:000c7e10       ?Precache@CFuncTrackTrain@@UAEXXZ 100c8e10 f   plats.obj
 0001:000c7f20       ?Find@CFuncTrainControls@@QAEXXZ 100c8f20 f   plats.obj
 0001:000c8010       ?Spawn@CFuncTrainControls@@UAEXXZ 100c9010 f   plats.obj
 0001:000c8090       ?IsWorldAffiliated@CFuncTrainControls@@UAEHXZ 100c9090 f   plats.obj
 0001:000c80a0       ?Save@CFuncTrackChange@@UAEHAAVCSave@@@Z 100c90a0 f   plats.obj
 0001:000c80e0       ?Restore@CFuncTrackChange@@UAEHAAVCRestore@@@Z 100c90e0 f   plats.obj
 0001:000c8120       ?Touch@CFuncTrackChange@@UAEXPAVCBaseEntity@@@Z 100c9120 f   plats.obj
 0001:000c8130       ?KeyValue@CFuncTrackChange@@UAEXPAUKeyValueData_s@@@Z 100c9130 f   plats.obj
 0001:000c8290       ?IsWorldAffiliated@CFuncTrackChange@@UAEHXZ 100c9290 f   plats.obj
 0001:000c82a0       ?Find@CFuncTrackChange@@QAEXXZ 100c92a0 f   plats.obj
 0001:000c85c0       ?EvaluateTrain@CFuncTrackChange@@QAE?AW4TRAIN_CODE@@PAVCPathTrack@@@Z 100c95c0 f   plats.obj
 0001:000c87a0       ?UpdateTrain@CFuncTrackChange@@QAEXAAVVector@@@Z 100c97a0 f   plats.obj
 0001:000c89c0       ?GoDown@CFuncTrackChange@@UAEXXZ 100c99c0 f   plats.obj
 0001:000c8ad0       ?GoUp@CFuncTrackChange@@UAEXXZ 100c9ad0 f   plats.obj
 0001:000c8be0       ?UpdateAutoTargets@CFuncTrackChange@@UAEXH@Z 100c9be0 f   plats.obj
 0001:000c8d60       ?Use@CFuncTrackChange@@UAEXPAVCBaseEntity@@0W4USE_TYPE@@M@Z 100c9d60 f   plats.obj
 0001:000c8eb0       ?ReportGeneric@CFuncTrackChange@@UAEXXZ 100c9eb0 f   plats.obj
 0001:000c8f40       ?UpdateAutoTargets@CFuncTrackAuto@@UAEXH@Z 100c9f40 f   plats.obj
 0001:000c9110       ?Use@CFuncTrackAuto@@UAEXPAVCBaseEntity@@0W4USE_TYPE@@M@Z 100ca110 f   plats.obj
 0001:000c9360       ?Save@CGunTarget@@UAEHAAVCSave@@@Z 100ca360 f   plats.obj
 0001:000c93a0       ?Restore@CGunTarget@@UAEHAAVCRestore@@@Z 100ca3a0 f   plats.obj
 0001:000c93e0       ?Activate@CGunTarget@@UAEXXZ 100ca3e0 f   plats.obj
 0001:000c94a0       ?Start@CGunTarget@@QAEXXZ  100ca4a0 f   plats.obj
 0001:000c94c0       ?Wait@CGunTarget@@QAEXXZ   100ca4c0 f   plats.obj
 0001:000c9590       ?Stop@CGunTarget@@UAEXXZ   100ca590 f   plats.obj
 0001:000c95d0       ?isOrganic@CGunTarget@@UAEHXZ 100ca5d0 f   plats.obj
 0001:000c95e0       ?TraceAttack@CGunTarget@@UAEXPAUentvars_s@@MVVector@@PAUTraceResult@@HHHPAH@Z 100ca5e0 f   plats.obj
 0001:000c9630       ?TakeDamage@CGunTarget@@UAEHPAUentvars_s@@0MHH@Z 100ca630 f   plats.obj
 0001:000c96c0       ?IsWorldAffiliated@CGunTarget@@UAEHXZ 100ca6c0 f   plats.obj
 0001:000c96d0       ??0CPlatTrigger@@QAE@XZ    100ca6d0 f i plats.obj
 0001:000c96f0       ?ObjectCaps@CPlatTrigger@@UAEHXZ 100ca6f0 f i plats.obj
 0001:000c9700       ??0CFuncTrackTrain@@QAE@XZ 100ca700 f i plats.obj
 0001:000c9720       ?ObjectCaps@CFuncTrackTrain@@UAEHXZ 100ca720 f i plats.obj
 0001:000c9730       ??0CFuncTrainControls@@QAE@XZ 100ca730 f i plats.obj
 0001:000c9750       ?ObjectCaps@CFuncTrainControls@@UAEHXZ 100ca750 f i plats.obj
 0001:000c9760       ??0CGunTarget@@QAE@XZ      100ca760 f i plats.obj
 0001:000c9780       ?BloodColor@CGunTarget@@UAEHXZ 100ca780 f i plats.obj
 0001:000c9790       ?Classify@CGunTarget@@UAEHXZ 100ca790 f i plats.obj
 0001:000c97a0       ?BodyTarget@CGunTarget@@UAE?AVVector@@ABV2@@Z 100ca7a0 f i plats.obj
 0001:000c97c0       ?BodyTargetMod@CGunTarget@@UAE?AVVector@@ABV2@@Z 100ca7c0 f i plats.obj
 0001:000c97e0       ?ObjectCaps@CGunTarget@@UAEHXZ 100ca7e0 f i plats.obj
 0001:000c97f0       ?Spawn@CFuncPlat@@UAEXXZ   100ca7f0 f   plats.obj
 0001:000c9850       ?Spawn@CFuncPlatRot@@UAEXXZ 100ca850 f   plats.obj
 0001:000c9860       ?GoDown@CFuncPlatRot@@UAEXXZ 100ca860 f   plats.obj
 0001:000c98a0       ?GoUp@CFuncPlatRot@@UAEXXZ 100ca8a0 f   plats.obj
 0001:000c98e0       ?Use@CFuncTrain@@UAEXPAVCBaseEntity@@0W4USE_TYPE@@M@Z 100ca8e0 f   plats.obj
 0001:000c99a0       ?Next@CFuncTrackTrain@@QAEXXZ 100ca9a0 f   plats.obj
 0001:000ca070       ?Find@CFuncTrackTrain@@QAEXXZ 100cb070 f   plats.obj
 0001:000ca240       ?NearestPath@CFuncTrackTrain@@QAEXXZ 100cb240 f   plats.obj
 0001:000ca4c0       ?OverrideReset@CFuncTrackTrain@@UAEXXZ 100cb4c0 f   plats.obj
 0001:000ca500       ?Spawn@CFuncTrackTrain@@UAEXXZ 100cb500 f   plats.obj
 0001:000ca6d0       ??0CBasePlatTrain@@QAE@XZ  100cb6d0 f i plats.obj
 0001:000ca6f0       ?ObjectCaps@CBasePlatTrain@@UAEHXZ 100cb6f0 f i plats.obj
 0001:000ca700       ?IsTogglePlat@CBasePlatTrain@@UAEHXZ 100cb700 f i plats.obj
 0001:000ca710       ?Spawn@CFuncTrackChange@@UAEXXZ 100cb710 f   plats.obj
 0001:000ca8e0       ?OverrideReset@CFuncTrackChange@@UAEXXZ 100cb8e0 f   plats.obj
 0001:000ca900       ?HitBottom@CFuncTrackChange@@UAEXXZ 100cb900 f   plats.obj
 0001:000ca9e0       ?HitTop@CFuncTrackChange@@UAEXXZ 100cb9e0 f   plats.obj
 0001:000caac0       ?Spawn@CGunTarget@@UAEXXZ  100cbac0 f   plats.obj
 0001:000cab90       ?Next@CGunTarget@@QAEXXZ   100cbb90 f   plats.obj
 0001:000cac80       ?TraceAttack@CGunTarget@@UAEXPAUentvars_s@@MVVector@@PAUTraceResult@@H@Z 100cbc80 f   plats.obj
 0001:000cacc0       ?TraceAttack@CGunTarget@@UAEXPAUentvars_s@@MVVector@@PAUTraceResult@@HH@Z 100cbcc0 f   plats.obj
 0001:000cad00       ?TraceAttack@CGunTarget@@UAEXPAUentvars_s@@MVVector@@PAUTraceResult@@HHH@Z 100cbd00 f   plats.obj
 0001:000cad40       ?TakeDamage@CGunTarget@@UAEHPAUentvars_s@@0MH@Z 100cbd40 f   plats.obj
 0001:000cad70       ?Use@CGunTarget@@UAEXPAVCBaseEntity@@0W4USE_TYPE@@M@Z 100cbd70 f   plats.obj
 0001:000cae00       ??$GetClassPtr@VCPlatTrigger@@@@YAPAVCPlatTrigger@@PAV0@@Z 100cbe00 f i plats.obj
 0001:000caeb0       ??$GetClassPtr@VCFuncTrackTrain@@@@YAPAVCFuncTrackTrain@@PAV0@@Z 100cbeb0 f i plats.obj
 0001:000caf60       ??$GetClassPtr@VCFuncTrainControls@@@@YAPAVCFuncTrainControls@@PAV0@@Z 100cbf60 f i plats.obj
 0001:000cb010       ??$GetClassPtr@VCGunTarget@@@@YAPAVCGunTarget@@PAV0@@Z 100cc010 f i plats.obj
 0001:000cb0c0       ??0CFuncTrain@@QAE@XZ      100cc0c0 f i plats.obj
 0001:000cb0e0       _func_tracktrain           100cc0e0 f   plats.obj
 0001:000cb0f0       ?Use@CFuncTrackTrain@@UAEXPAVCBaseEntity@@0W4USE_TYPE@@M@Z 100cc0f0 f   plats.obj
 0001:000cb2f0       _func_traincontrols        100cc2f0 f   plats.obj
 0001:000cb300       ??0CFuncPlat@@QAE@XZ       100cc300 f i plats.obj
 0001:000cb320       _func_guntarget            100cc320 f   plats.obj
 0001:000cb330       ??$GetClassPtr@VCFuncPlat@@@@YAPAVCFuncPlat@@PAV0@@Z 100cc330 f i plats.obj
 0001:000cb3e0       ??$GetClassPtr@VCFuncTrain@@@@YAPAVCFuncTrain@@PAV0@@Z 100cc3e0 f i plats.obj
 0001:000cb490       _func_plat                 100cc490 f   plats.obj
 0001:000cb4c0       _func_train                100cc4c0 f   plats.obj
 0001:000cb4d0       ??0CFuncPlatRot@@QAE@XZ    100cc4d0 f i plats.obj
 0001:000cb4f0       ??$GetClassPtr@VCFuncPlatRot@@@@YAPAVCFuncPlatRot@@PAV0@@Z 100cc4f0 f i plats.obj
 0001:000cb5a0       ?Precache@CFuncPlat@@UAEXXZ 100cc5a0 f   plats.obj
 0001:000cb5d0       _func_platrot              100cc5d0 f   plats.obj
 0001:000cb5e0       ??0CFuncTrackChange@@QAE@XZ 100cc5e0 f   plats.obj
 0001:000cb600       ?IsTogglePlat@CFuncTrackChange@@UAEHXZ 100cc600 f i plats.obj
 0001:000cb610       ?Precache@CFuncTrackChange@@UAEXXZ 100cc610 f   plats.obj
 0001:000cb630       ??$GetClassPtr@VCFuncTrackChange@@@@YAPAVCFuncTrackChange@@PAV0@@Z 100cc630 f i plats.obj
 0001:000cb6d0       ??0CFuncTrackAuto@@QAE@XZ  100cc6d0 f i plats.obj
 0001:000cb6f0       _func_trackchange          100cc6f0 f   plats.obj
 0001:000cb700       ??$GetClassPtr@VCFuncTrackAuto@@@@YAPAVCFuncTrackAuto@@PAV0@@Z 100cc700 f i plats.obj
 0001:000cb7b0       _func_trackautochange      100cc7b0 f   plats.obj
 0001:000cb7c0       ?resetLongJumpCharge@CBasePlayer@@QAEXXZ 100cc7c0 f i player.obj
 0001:000cb7e0       ?PainSound@CBasePlayer@@UAEXXZ 100cc7e0 f   player.obj
 0001:000cb8e0       ?PainChance@CBasePlayer@@QAEXXZ 100cc8e0 f   player.obj
 0001:000cb9a0       ?VecVelocityForDamage@@YA?AVVector@@M@Z 100cc9a0 f   player.obj
 0001:000cbaa0       ?TrainSpeed@@YAHHH@Z       100ccaa0 f   player.obj
 0001:000cbb00       ?DeathSound@CBasePlayer@@QAEXH@Z 100ccb00 f   player.obj
 0001:000cbb80       ?TakeHealth@CBasePlayer@@UAEHMH@Z 100ccb80 f   player.obj
 0001:000cbba0       ?GetGunPosition@CBasePlayer@@UAE?AVVector@@XZ 100ccba0 f   player.obj
 0001:000cbbf0       ?GetGunPositionAI@CBasePlayer@@UAE?AVVector@@XZ 100ccbf0 f   player.obj
 0001:000cbc10       ?TraceAttack@CBasePlayer@@UAEXPAUentvars_s@@MVVector@@PAUTraceResult@@HHHPAH@Z 100ccc10 f   player.obj
 0001:000cbd90       ?PackDeadPlayerItems@CBasePlayer@@QAEXXZ 100ccd90 f   player.obj
 0001:000cc050       ?FadeMonster@CBasePlayer@@UAEXXZ 100cd050 f   player.obj
 0001:000cc070       ?SetAnimation@CBasePlayer@@QAEXW4PLAYER_ANIM@@@Z 100cd070 f   player.obj
 0001:000cc4b0       ?DebugCall1@CBasePlayer@@QAEXXZ 100cd4b0 f   player.obj
 0001:000cc500       ?DebugCall2@CBasePlayer@@QAEXXZ 100cd500 f   player.obj
 0001:000cc550       ?DebugCall3@CBasePlayer@@QAEXXZ 100cd550 f   player.obj
 0001:000cc710       ??0CBasePlayer@@QAE@XZ     100cd710 f   player.obj
 0001:000cc890       ?BodyTarget@CBasePlayer@@UAE?AVVector@@ABV2@@Z 100cd890 f i player.obj
 0001:000cc920       ?BodyTargetMod@CBasePlayer@@UAE?AVVector@@ABV2@@Z 100cd920 f i player.obj
 0001:000cc9a0       ?StartSneaking@CBasePlayer@@UAEXXZ 100cd9a0 f i player.obj
 0001:000cc9c0       ?StopSneaking@CBasePlayer@@UAEXXZ 100cd9c0 f i player.obj
 0001:000cc9e0       ?IsSneaking@CBasePlayer@@UAEHXZ 100cd9e0 f i player.obj
 0001:000cca00       ?IsAlive@CBasePlayer@@UAEHXZ 100cda00 f i player.obj
 0001:000cca30       ?IsAlive_FromAI@CBasePlayer@@UAEHPAVCBaseMonster@@@Z 100cda30 f i player.obj
 0001:000cca60       ?ShouldFadeOnDeath@CBasePlayer@@UAEHXZ 100cda60 f i player.obj
 0001:000cca70       ?IsPlayer@CBasePlayer@@UAEHXZ 100cda70 f i player.obj
 0001:000cca80       ?IsNetClient@CBasePlayer@@UAEHXZ 100cda80 f i player.obj
 0001:000cca90       ?ObjectCaps@CBasePlayer@@UAEHXZ 100cda90 f i player.obj
 0001:000ccaa0       ?WaterMove@CBasePlayer@@QAEXXZ 100cdaa0 f   player.obj
 0001:000ccfc0       ?IsOnLadder@CBasePlayer@@QAEHXZ 100cdfc0 f   player.obj
 0001:000ccfe0       ?StartObserver@CBasePlayer@@QAEXVVector@@0@Z 100cdfe0 f   player.obj
 0001:000cd090       ?PlayerUse@CBasePlayer@@QAEXXZ 100ce090 f   player.obj
 0001:000cd890       ?Jump@CBasePlayer@@UAEXXZ  100ce890 f   player.obj
 0001:000cd9a0       ?FixPlayerCrouchStuck@@YAXPAUedict_s@@@Z 100ce9a0 f   player.obj
 0001:000cd9f0       ?Duck@CBasePlayer@@UAEXXZ  100ce9f0 f   player.obj
 0001:000cda10       ?Classify@CBasePlayer@@UAEHXZ 100cea10 f   player.obj
 0001:000cda20       ?AddPoints@CBasePlayer@@UAEXHH@Z 100cea20 f   player.obj
 0001:000cdb10       ?AddPointsToTeam@CBasePlayer@@UAEXHH@Z 100ceb10 f   player.obj
 0001:000cdba0       ?InitStatusBar@CBasePlayer@@QAEXXZ 100ceba0 f   player.obj
 0001:000cdbc0       ?UpdateStatusBar@CBasePlayer@@QAEXXZ 100cebc0 f   player.obj
 0001:000cdff0       ?updateTimedDamageDurations@CBasePlayer@@QAEXH@Z 100ceff0 f   player.obj
 0001:000ce140       ?removeTimedDamage@CBasePlayer@@QAEXHPAH@Z 100cf140 f   player.obj
 0001:000ce170       ?getGeigerChannel@CBasePlayer@@QAEHXZ 100cf170 f   player.obj
 0001:000ce180       ?SetSuitUpdatePRE@CBasePlayer@@QAEHH@Z 100cf180 f   player.obj
 0001:000ce1d0       ?SetSuitUpdatePRE@CBasePlayer@@QAEHPADHAAHH@Z 100cf1d0 f   player.obj
 0001:000ce270       ?SetSuitUpdateEventFVoxCutoffPOST@CBasePlayer@@QAEHHHMMHMP81@AEXXZM@Z 100cf270 f   player.obj
 0001:000ce370       ?SetSuitUpdateNoRepeatSweep@CBasePlayer@@QAEHAAHH@Z 100cf370 f   player.obj
 0001:000ce3f0       ?SetSuitUpdateCheckNoRepeatApply@CBasePlayer@@QAEHAAHH@Z 100cf3f0 f   player.obj
 0001:000ce470       ?SetSuitUpdateCheckNoRepeat@CBasePlayer@@QAEHAAHH@Z 100cf470 f   player.obj
 0001:000ce4d0       ?suitCanPlay@CBasePlayer@@QAEHPADHH@Z 100cf4d0 f   player.obj
 0001:000ce510       ?SetSuitUpdateEventFVoxCutoff@CBasePlayer@@QAEXPADHMMHMP81@AEXXZM@Z 100cf510 f   player.obj
 0001:000ce5c0       ?UpdatePlayerSound@CBasePlayer@@QAEXXZ 100cf5c0 f   player.obj
 0001:000ce770       ?IsSpawnPointValid@@YAHPAVCBaseEntity@@0@Z 100cf770 f   player.obj
 0001:000ce800       ?FNullEnt@@YAHPAVCBaseEntity@@@Z 100cf800 f i player.obj
 0001:000ce830       ?EntSelectSpawnPoint@@YAPAUedict_s@@PAVCBaseEntity@@@Z 100cf830 f   player.obj
 0001:000ceb50       ?setHealth@CBasePlayer@@QAEXH@Z 100cfb50 f   player.obj
 0001:000ceb70       ?setArmorBattery@CBasePlayer@@QAEXH@Z 100cfb70 f   player.obj
 0001:000ceb90       ?giveMaxAmmo@CBasePlayer@@QAEXXZ 100cfb90 f   player.obj
 0001:000cecf0       ?playerHasSuit@CBasePlayer@@QAEHXZ 100cfcf0 f   player.obj
 0001:000ced00       ?playerHasLongJump@CBasePlayer@@QAEHXZ 100cfd00 f   player.obj
 0001:000ced10       ?commonReset@CBasePlayer@@QAEXXZ 100cfd10 f   player.obj
 0001:000cef20       ?turnOnSneaky@CBasePlayer@@QAEXXZ 100cff20 f   player.obj
 0001:000cef40       ?turnOffSneaky@CBasePlayer@@QAEXXZ 100cff40 f   player.obj
 0001:000cef60       ?Spawn@CBasePlayer@@UAEXXZ 100cff60 f   player.obj
 0001:000cef70       ?Spawn@CBasePlayer@@UAEXH@Z 100cff70 f   player.obj
 0001:000cf600       ?Precache@CBasePlayer@@UAEXXZ 100d0600 f   player.obj
 0001:000cf6a0       ?Save@CBasePlayer@@UAEHAAVCSave@@@Z 100d06a0 f   player.obj
 0001:000cf6e0       ?RenewItems@CBasePlayer@@QAEXXZ 100d06e0 f   player.obj
 0001:000cf6f0       ?Restore@CBasePlayer@@UAEHAAVCRestore@@@Z 100d06f0 f   player.obj
 0001:000cf8d0       ?HasWeapons@CBasePlayer@@QAEHXZ 100d08d0 f   player.obj
 0001:000cf8f0       ?SelectPrevItem@CBasePlayer@@QAEXH@Z 100d08f0 f   player.obj
 0001:000cf900       ?TeamID@CBasePlayer@@UAEPBDXZ 100d0900 f   player.obj
 0001:000cf920       ?Spawn@CSprayCan@@QAEXPAUentvars_s@@@Z 100d0920 f   player.obj
 0001:000cf9e0       ?Spray@CBloodSplat@@QAEXXZ 100d09e0 f   player.obj
 0001:000cfab0       ?overyLongComplicatedProcessForCreatingAnEntity@@YAPAUedict_s@@PBD@Z 100d0ab0 f   player.obj
 0001:000cfad0       ?GiveNamedItem@CBasePlayer@@QAEPAUedict_s@@PBDHABVVector@@HPAUTraceResult@@@Z 100d0ad0 f   player.obj
 0001:000d0020       ?FlashlightIsOn@CBasePlayer@@QAEHXZ 100d1020 f   player.obj
 0001:000d0030       ?FlashlightTurnOn@CBasePlayer@@QAEXXZ 100d1030 f   player.obj
 0001:000d00e0       ?FlashlightTurnOff@CBasePlayer@@QAEXXZ 100d10e0 f   player.obj
 0001:000d0170       ?ForceClientDllUpdate@CBasePlayer@@QAEXXZ 100d1170 f   player.obj
 0001:000d01c0       ?printOutWeapons@CBasePlayer@@QAEXXZ 100d11c0 f   player.obj
 0001:000d0230       ?CanAddPlayerItem@CBasePlayer@@QAEHHPBD0H@Z 100d1230 f   player.obj
 0001:000d02d0       ?ItemPreFrame@CBasePlayer@@QAEXXZ 100d12d0 f   player.obj
 0001:000d03b0       ?ItemPostFrame@CBasePlayer@@QAEXXZ 100d13b0 f   player.obj
 0001:000d0420       ?AmmoInventory@CBasePlayer@@QAEHH@Z 100d1420 f   player.obj
 0001:000d0440       ?GetAmmoIndex@CBasePlayer@@SAHPBD@Z 100d1440 f   player.obj
 0001:000d0490       ?SendAmmoUpdate@CBasePlayer@@QAEXXZ 100d1490 f   player.obj
 0001:000d0510       ?boolToInt@@YAHAAH@Z       100d1510 f   player.obj
 0001:000d0520       ?FBecomeProne@CBasePlayer@@UAEHXZ 100d1520 f   player.obj
 0001:000d0540       ?BarnacleVictimBitten@CBasePlayer@@UAEXPAUentvars_s@@@Z 100d1540 f   player.obj
 0001:000d0580       ?BarnacleVictimReleased@CBasePlayer@@UAEXXZ 100d1580 f   player.obj
 0001:000d05a0       ?Illumination@CBasePlayer@@UAEHXZ 100d15a0 f   player.obj
 0001:000d05d0       ?EnableControl@CBasePlayer@@QAEXH@Z 100d15d0 f   player.obj
 0001:000d0600       ?AutoaimDeflection@CBasePlayer@@QAE?AVVector@@AAV2@MM@Z 100d1600 f   player.obj
 0001:000d0b40       ?ResetAutoaim@CBasePlayer@@QAEXXZ 100d1b40 f   player.obj
 0001:000d0bd0       ?SetCustomDecalFrames@CBasePlayer@@QAEXH@Z 100d1bd0 f   player.obj
 0001:000d0c00       ?GetCustomDecalFrames@CBasePlayer@@QAEHXZ 100d1c00 f   player.obj
 0001:000d0c10       ?DropPlayerItem@CBasePlayer@@QAEXPAD@Z 100d1c10 f   player.obj
 0001:000d0ed0       ?HasPlayerItem@CBasePlayer@@QAEHPAVCBasePlayerItem@@@Z 100d1ed0 f   player.obj
 0001:000d0f60       ?HasPlayerItem@CBasePlayer@@QAEHHPBD@Z 100d1f60 f   player.obj
 0001:000d0fe0       ?HasNamedPlayerItem@CBasePlayer@@QAEHPBD@Z 100d1fe0 f   player.obj
 0001:000d1090       ?FindNamedPlayerItem@CBasePlayer@@QAEPAVCBasePlayerItem@@PBD@Z 100d2090 f   player.obj
 0001:000d1130       ?SwitchWeapon@CBasePlayer@@QAEHPAVCBasePlayerItem@@@Z 100d2130 f   player.obj
 0001:000d1190       ?consumeAntidote@CBasePlayer@@QAEXXZ 100d2190 f   player.obj
 0001:000d11f0       ?consumeRadiation@CBasePlayer@@QAEXXZ 100d21f0 f   player.obj
 0001:000d1240       ?consumeAdrenaline@CBasePlayer@@QAEXXZ 100d2240 f   player.obj
 0001:000d1330       ?KeyValue@CDeadHEV@@UAEXPAUKeyValueData_s@@@Z 100d2330 f   player.obj
 0001:000d13a0       ?Spawn@CDeadHEV@@UAEXXZ    100d23a0 f   player.obj
 0001:000d1480       ?Duration@CRevertSaved@@QAEMXZ 100d2480 f i player.obj
 0001:000d1490       ?HoldTime@CRevertSaved@@QAEMXZ 100d2490 f i player.obj
 0001:000d14a0       ?MessageTime@CRevertSaved@@QAEMXZ 100d24a0 f i player.obj
 0001:000d14b0       ?LoadTime@CRevertSaved@@QAEMXZ 100d24b0 f i player.obj
 0001:000d14c0       ?SetDuration@CRevertSaved@@QAEXM@Z 100d24c0 f i player.obj
 0001:000d14e0       ?SetHoldTime@CRevertSaved@@QAEXM@Z 100d24e0 f i player.obj
 0001:000d1500       ?SetMessageTime@CRevertSaved@@QAEXM@Z 100d2500 f i player.obj
 0001:000d1510       ?SetLoadTime@CRevertSaved@@QAEXM@Z 100d2510 f i player.obj
 0001:000d1520       ?Save@CRevertSaved@@UAEHAAVCSave@@@Z 100d2520 f   player.obj
 0001:000d1560       ?Restore@CRevertSaved@@UAEHAAVCRestore@@@Z 100d2560 f   player.obj
 0001:000d15a0       ?KeyValue@CRevertSaved@@UAEXPAUKeyValueData_s@@@Z 100d25a0 f   player.obj
 0001:000d1700       ?LoadThink@CRevertSaved@@QAEXXZ 100d2700 f   player.obj
 0001:000d1720       ?Spawn@CPlayerMarker@@UAEXXZ 100d2720 f   player.obj
 0001:000d1780       ?Precache@CPlayerMarker@@UAEXXZ 100d2780 f   player.obj
 0001:000d1790       ?Spawn@CInfoIntermission@@EAEXXZ 100d2790 f   player.obj
 0001:000d1810       ?Think@CInfoIntermission@@EAEXXZ 100d2810 f   player.obj
 0001:000d18c0       ??0CSprayCan@@QAE@XZ       100d28c0 f i player.obj
 0001:000d18e0       ?ObjectCaps@CSprayCan@@UAEHXZ 100d28e0 f i player.obj
 0001:000d18f0       ??0CBloodSplat@@QAE@XZ     100d28f0 f i player.obj
 0001:000d1910       ??0CDeadHEV@@QAE@XZ        100d2910 f i player.obj
 0001:000d1930       ?Classify@CDeadHEV@@UAEHXZ 100d2930 f i player.obj
 0001:000d1940       ??0CStripWeapons@@QAE@XZ   100d2940 f i player.obj
 0001:000d1960       ??0CRevertSaved@@QAE@XZ    100d2960 f i player.obj
 0001:000d1980       ??0CPlayerMarker@@QAE@XZ   100d2980 f i player.obj
 0001:000d19a0       ??0CInfoIntermission@@QAE@XZ 100d29a0 f i player.obj
 0001:000d19c0       _player                    100d29c0 f   player.obj
 0001:000d19d0       ?DeathSound@CBasePlayer@@UAEXXZ 100d29d0 f   player.obj
 0001:000d19e0       ?TraceAttack@CBasePlayer@@UAEXPAUentvars_s@@MVVector@@PAUTraceResult@@H@Z 100d29e0 f   player.obj
 0001:000d1a20       ?TraceAttack@CBasePlayer@@UAEXPAUentvars_s@@MVVector@@PAUTraceResult@@HH@Z 100d2a20 f   player.obj
 0001:000d1a60       ?TraceAttack@CBasePlayer@@UAEXPAUentvars_s@@MVVector@@PAUTraceResult@@HHH@Z 100d2a60 f   player.obj
 0001:000d1aa0       ?RemoveAllItems@CBasePlayer@@QAEXH@Z 100d2aa0 f   player.obj
 0001:000d1c70       ?TabulateAmmo@CBasePlayer@@QAEXXZ 100d2c70 f   player.obj
 0001:000d1d50       ?StartDeathCam@CBasePlayer@@QAEXXZ 100d2d50 f   player.obj
 0001:000d1f10       ?SetSuitUpdatePRE@CBasePlayer@@QAEHXZ 100d2f10 f   player.obj
 0001:000d1f20       ?SetSuitUpdatePRE@CBasePlayer@@QAEHPADHAAH@Z 100d2f20 f   player.obj
 0001:000d1f40       ?SetSuitUpdateEventPOST@CBasePlayer@@QAEHHHMMHMP81@AEXXZ@Z 100d2f40 f   player.obj
 0001:000d1f80       ?suitCanPlay@CBasePlayer@@QAEHPADH@Z 100d2f80 f   player.obj
 0001:000d1fa0       ?SetSuitUpdateEvent@CBasePlayer@@QAEXPADHMMMP81@AEXXZ@Z 100d2fa0 f   player.obj
 0001:000d1fe0       ?SetSuitUpdateEvent@CBasePlayer@@QAEXPADHMMHMP81@AEXXZ@Z 100d2fe0 f   player.obj
 0001:000d2020       ?SetSuitUpdateEventFVoxCutoff@CBasePlayer@@QAEXPADHMMP81@AEXXZM@Z 100d3020 f   player.obj
 0001:000d2060       ?SetSuitUpdateEventFVoxCutoff@CBasePlayer@@QAEXPADHMMMP81@AEXXZM@Z 100d3060 f   player.obj
 0001:000d20a0       ?PostThink@CBasePlayer@@UAEXXZ 100d30a0 f   player.obj
 0001:000d28a0       ?autoSneakyCheck@CBasePlayer@@QAEXXZ 100d38a0 f   player.obj
 0001:000d28e0       ?Activate@CBasePlayer@@UAEXXZ 100d38e0 f   player.obj
 0001:000d28f0       ?SelectNextItem@CBasePlayer@@QAEXH@Z 100d38f0 f   player.obj
 0001:000d29d0       ?SelectItem@CBasePlayer@@QAEXPBD@Z 100d39d0 f   player.obj
 0001:000d2ae0       ?SelectLastItem@CBasePlayer@@QAEXXZ 100d3ae0 f   player.obj
 0001:000d2b60       ?Think@CSprayCan@@UAEXXZ   100d3b60 f   player.obj
 0001:000d2ce0       ?Spawn@CBloodSplat@@QAEXPAUentvars_s@@@Z 100d3ce0 f   player.obj
 0001:000d2d70       ?GiveNamedItem@CBasePlayer@@QAEPAUedict_s@@PBDMMM@Z 100d3d70 f   player.obj
 0001:000d2db0       ?GiveNamedItem@CBasePlayer@@QAEPAUedict_s@@PBDMMMH@Z 100d3db0 f   player.obj
 0001:000d2df0       ?GiveNamedItem@CBasePlayer@@QAEPAUedict_s@@PBDABVVector@@@Z 100d3df0 f   player.obj
 0001:000d2e10       ?GiveNamedItem@CBasePlayer@@QAEPAUedict_s@@PBDABVVector@@H@Z 100d3e10 f   player.obj
 0001:000d2e30       ?GiveNamedItem@CBasePlayer@@QAEPAUedict_s@@PBDHMMM@Z 100d3e30 f   player.obj
 0001:000d2e70       ?GiveNamedItem@CBasePlayer@@QAEPAUedict_s@@PBDHMMMH@Z 100d3e70 f   player.obj
 0001:000d2eb0       ?GiveNamedItem@CBasePlayer@@QAEPAUedict_s@@PBDHABVVector@@@Z 100d3eb0 f   player.obj
 0001:000d2ed0       ?GiveNamedItem@CBasePlayer@@QAEPAUedict_s@@PBDHABVVector@@H@Z 100d3ed0 f   player.obj
 0001:000d2ef0       ?GiveNamedItem@CBasePlayer@@QAEPAUedict_s@@PBDHMMMHPAUTraceResult@@@Z 100d3ef0 f   player.obj
 0001:000d2f30       ?AddPlayerItem@CBasePlayer@@UAEHPAVCBasePlayerItem@@@Z 100d3f30 f   player.obj
 0001:000d30b0       ?RemovePlayerItem@CBasePlayer@@UAEHPAVCBasePlayerItem@@@Z 100d40b0 f   player.obj
 0001:000d3190       ?GiveAmmo@CBasePlayer@@UAEHHPADH@Z 100d4190 f   player.obj
 0001:000d3250       ?GetAutoaimVector@CBasePlayer@@QAE?AVVector@@M@Z 100d4250 f   player.obj
 0001:000d3580       ?Use@CStripWeapons@@UAEXPAVCBaseEntity@@0W4USE_TYPE@@M@Z 100d4580 f   player.obj
 0001:000d35f0       ?MessageThink@CRevertSaved@@QAEXXZ 100d45f0 f   player.obj
 0001:000d3670       ??$GetClassPtr@VCSprayCan@@@@YAPAVCSprayCan@@PAV0@@Z 100d4670 f i player.obj
 0001:000d3720       ??$GetClassPtr@VCBloodSplat@@@@YAPAVCBloodSplat@@PAV0@@Z 100d4720 f i player.obj
 0001:000d37d0       ??$GetClassPtr@VCDeadHEV@@@@YAPAVCDeadHEV@@PAV0@@Z 100d47d0 f i player.obj
 0001:000d3880       ??$GetClassPtr@VCStripWeapons@@@@YAPAVCStripWeapons@@PAV0@@Z 100d4880 f i player.obj
 0001:000d3930       ??$GetClassPtr@VCRevertSaved@@@@YAPAVCRevertSaved@@PAV0@@Z 100d4930 f i player.obj
 0001:000d39e0       ??$GetClassPtr@VCPlayerMarker@@@@YAPAVCPlayerMarker@@PAV0@@Z 100d49e0 f i player.obj
 0001:000d3a90       ??$GetClassPtr@VCInfoIntermission@@@@YAPAVCInfoIntermission@@PAV0@@Z 100d4a90 f i player.obj
 0001:000d3b40       ?PlayerDeathThink@CBasePlayer@@QAEXXZ 100d4b40 f   player.obj
 0001:000d4100       ?CheckTimeBasedDamage@CBasePlayer@@UAEXXZ 100d5100 f   player.obj
 0001:000d4600       ?SetSuitUpdatePOST@CBasePlayer@@QAEHHHMMH@Z 100d5600 f   player.obj
 0001:000d4640       ?SetSuitUpdateNumber@CBasePlayer@@QAEXHMHHH@Z 100d5640 f   player.obj
 0001:000d4680       ?forceRepeatBlock@CBasePlayer@@QAEXPADHMH@Z 100d5680 f   player.obj
 0001:000d46e0       ?SetSuitUpdate@CBasePlayer@@QAEXPADHMMH@Z 100d56e0 f   player.obj
 0001:000d4750       ?SetSuitUpdateAndForceBlock@CBasePlayer@@QAEXPADHMMH@Z 100d5750 f   player.obj
 0001:000d47b0       ?SetSuitUpdateEvent@CBasePlayer@@QAEXPADHMMP81@AEXXZ@Z 100d57b0 f   player.obj
 0001:000d47f0       ?GiveNamedItem@CBasePlayer@@QAEPAUedict_s@@PBDH@Z 100d57f0 f   player.obj
 0001:000d49a0       _monster_hevsuit_dead      100d59a0 f   player.obj
 0001:000d49b0       _player_weaponstrip        100d59b0 f   player.obj
 0001:000d49c0       _player_loadsaved          100d59c0 f   player.obj
 0001:000d49d0       ?Use@CRevertSaved@@UAEXPAVCBaseEntity@@0W4USE_TYPE@@M@Z 100d59d0 f   player.obj
 0001:000d4a40       _player_marker             100d5a40 f   player.obj
 0001:000d4a50       _info_intermission         100d5a50 f   player.obj
 0001:000d4a60       ?SetSuitUpdateNumber@CBasePlayer@@QAEXHMHH@Z 100d5a60 f   player.obj
 0001:000d4a90       ?forceRepeatBlock@CBasePlayer@@QAEXPADHM@Z 100d5a90 f   player.obj
 0001:000d4ab0       ?SetSuitUpdateFVoxException@CBasePlayer@@QAEXPADHM@Z 100d5ab0 f   player.obj
 0001:000d4ae0       ?SetSuitUpdateFVoxException@CBasePlayer@@QAEXPADHMM@Z 100d5ae0 f   player.obj
 0001:000d4b10       ?SetSuitUpdate@CBasePlayer@@QAEXPADHM@Z 100d5b10 f   player.obj
 0001:000d4b40       ?SetSuitUpdate@CBasePlayer@@QAEXPADHMM@Z 100d5b40 f   player.obj
 0001:000d4b70       ?SetSuitUpdateAndForceBlock@CBasePlayer@@QAEXPADHM@Z 100d5b70 f   player.obj
 0001:000d4ba0       ?SetSuitUpdateAndForceBlock@CBasePlayer@@QAEXPADHMM@Z 100d5ba0 f   player.obj
 0001:000d4bd0       ?GiveNamedItem@CBasePlayer@@QAEPAUedict_s@@PBD@Z 100d5bd0 f   player.obj
 0001:000d4bf0       ?CheatImpulseCommands@CBasePlayer@@QAEXH@Z 100d5bf0 f   player.obj
 0001:000d5380       ?UpdateClientData@CBasePlayer@@UAEXXZ 100d6380 f   player.obj
 0001:000d6780       ?TakeDamage@CBasePlayer@@UAEHPAUentvars_s@@0MHH@Z 100d7780 f   player.obj
 0001:000d70a0       ?Killed@CBasePlayer@@UAEXPAUentvars_s@@0H@Z 100d80a0 f   player.obj
 0001:000d74d0       ?UpdateGeigerCounter@CBasePlayer@@QAEXXZ 100d84d0 f   player.obj
 0001:000d7860       ?CheckSuitUpdate@CBasePlayer@@QAEXXZ 100d8860 f   player.obj
 0001:000d8110       ?GiveNamedItemIfLacking@CBasePlayer@@QAEXPBD@Z 100d9110 f   player.obj
 0001:000d8140       ?ImpulseCommands@CBasePlayer@@UAEXXZ 100d9140 f   player.obj
 0001:000d8350       ?TakeDamage@CBasePlayer@@UAEHPAUentvars_s@@0MH@Z 100d9350 f   player.obj
 0001:000d8380       ?Killed@CBasePlayer@@UAEXPAUentvars_s@@H@Z 100d9380 f   player.obj
 0001:000d83a0       ?PreThink@CBasePlayer@@UAEXXZ 100d93a0 f   player.obj
 0001:000d99f0       ?grantAllItems@CBasePlayer@@QAEXXZ 100da9f0 f   player.obj
 0001:000d9af0       _PM_ShowClipBox            100daaf0 f   pm_debug.obj
 0001:000d9b00       _PM_ParticleLine           100dab00 f   pm_debug.obj
 0001:000d9bd0       _PM_DrawRectangle          100dabd0 f   pm_debug.obj
 0001:000d9c50       _PM_DrawPhysEntBBox        100dac50 f   pm_debug.obj
 0001:000da580       _PM_DrawBBox               100db580 f   pm_debug.obj
 0001:000da7f0       _PM_ViewEntity             100db7f0 f   pm_debug.obj
 0001:000da8c0       _anglemod                  100db8c0 f   pm_math.obj
 0001:000da8f0       _AngleVectors              100db8f0 f   pm_math.obj
 0001:000daa30       _AngleVectorsTranspose     100dba30 f   pm_math.obj
 0001:000dab60       _AngleMatrix               100dbb60 f   pm_math.obj
 0001:000dac70       _AngleIMatrix              100dbc70 f   pm_math.obj
 0001:000dad80       _NormalizeAngles           100dbd80 f   pm_math.obj
 0001:000dae10       _InterpolateAngles         100dbe10 f   pm_math.obj
 0001:000daf50       _VectorTransform           100dbf50 f   pm_math.obj
 0001:000dafb0       _VectorCompare             100dbfb0 f   pm_math.obj
 0001:000daff0       _VectorMA                  100dbff0 f   pm_math.obj
 0001:000db030       __DotProduct               100dc030 f   pm_math.obj
 0001:000db060       __VectorSubtract           100dc060 f   pm_math.obj
 0001:000db090       __VectorAdd                100dc090 f   pm_math.obj
 0001:000db0c0       __VectorCopy               100dc0c0 f   pm_math.obj
 0001:000db0e0       _CrossProduct              100dc0e0 f   pm_math.obj
 0001:000db120       _Length                    100dc120 f   pm_math.obj
 0001:000db170       _Distance                  100dc170 f   pm_math.obj
 0001:000db1c0       _VectorNormalize           100dc1c0 f   pm_math.obj
 0001:000db230       _VectorInverse             100dc230 f   pm_math.obj
 0001:000db250       _VectorScale               100dc250 f   pm_math.obj
 0001:000db280       _Q_log2                    100dc280 f   pm_math.obj
 0001:000db2a0       _VectorMatrix              100dc2a0 f   pm_math.obj
 0001:000db330       _VectorAngles              100dc330 f   pm_math.obj
 0001:000db420       _AngleBetweenVectors       100dc420 f   pm_math.obj
 0001:000db4b0       _getSafeSqureRoot          100dc4b0 f   pm_shared.obj
 0001:000db4f0       _PM_SwapTextures           100dc4f0 f   pm_shared.obj
 0001:000db590       _PM_SortTextures           100dc590 f   pm_shared.obj
 0001:000db610       _PM_InitTextureTypes       100dc610 f   pm_shared.obj
 0001:000db8a0       _PM_FindTextureType        100dc8a0 f   pm_shared.obj
 0001:000db900       _PM_PlayStepSound          100dc900 f   pm_shared.obj
 0001:000dc2b0       _PM_MapTextureTypeStepType 100dd2b0 f   pm_shared.obj
 0001:000dc330       _PM_CatagorizeTextureType  100dd330 f   pm_shared.obj
 0001:000dc430       _PM_UpdateStepSound        100dd430 f   pm_shared.obj
 0001:000dc750       _PM_AddToTouched           100dd750 f   pm_shared.obj
 0001:000dc7f0       _PM_CheckVelocity          100dd7f0 f   pm_shared.obj
 0001:000dc8e0       _PM_ClipVelocity           100dd8e0 f   pm_shared.obj
 0001:000dca00       _PM_AddCorrectGravity      100dda00 f   pm_shared.obj
 0001:000dca90       _PM_FixupGravityVelocity   100dda90 f   pm_shared.obj
 0001:000dcb00       _PM_FlyMove                100ddb00 f   pm_shared.obj
 0001:000dd110       _PM_Accelerate             100de110 f   pm_shared.obj
 0001:000dd1e0       _PM_WalkMove               100de1e0 f   pm_shared.obj
 0001:000dd730       _PM_Friction               100de730 f   pm_shared.obj
 0001:000dd920       _PM_AirAccelerate          100de920 f   pm_shared.obj
 0001:000dda00       _PM_WaterMove              100dea00 f   pm_shared.obj
 0001:000dddb0       _PM_AirMove                100dedb0 f   pm_shared.obj
 0001:000ddf60       _PM_InWater                100def60 f   pm_shared.obj
 0001:000ddf80       _PM_CheckWater             100def80 f   pm_shared.obj
 0001:000de160       _PM_CatagorizePosition     100df160 f   pm_shared.obj
 0001:000de2b0       _PM_GetRandomStuckOffsets  100df2b0 f   pm_shared.obj
 0001:000de310       _PM_ResetStuckOffsets      100df310 f   pm_shared.obj
 0001:000de330       _PM_CheckStuck             100df330 f   pm_shared.obj
 0001:000de640       _PM_SpectatorMove          100df640 f   pm_shared.obj
 0001:000de9c0       _PM_SplineFraction         100df9c0 f   pm_shared.obj
 0001:000dea00       _PM_FixPlayerCrouchStuck   100dfa00 f   pm_shared.obj
 0001:000deaa0       _PM_LadderMove             100dfaa0 f   pm_shared.obj
 0001:000defc0       _PM_Ladder                 100dffc0 f   pm_shared.obj
 0001:000df0b0       _PM_WaterJump              100e00b0 f   pm_shared.obj
 0001:000df170       _PM_AddGravity             100e0170 f   pm_shared.obj
 0001:000df1e0       _PM_PushEntity             100e01e0 f   pm_shared.obj
 0001:000df2b0       _PM_Physics_Toss           100e02b0 f   pm_shared.obj
 0001:000df5d0       _PM_NoClip                 100e05d0 f   pm_shared.obj
 0001:000df6f0       _PM_PreventMegaBunnyJumping 100e06f0 f   pm_shared.obj
 0001:000df770       _PM_Jump                   100e0770 f   pm_shared.obj
 0001:000dfbc0       _PM_CheckWaterJump         100e0bc0 f   pm_shared.obj
 0001:000dfe80       _PM_CheckFalling           100e0e80 f   pm_shared.obj
 0001:000e00e0       _PM_PlayWaterSounds        100e10e0 f   pm_shared.obj
 0001:000e0200       _PM_CalcRoll               100e1200 f   pm_shared.obj
 0001:000e02b0       _PM_DropPunchAngle         100e12b0 f   pm_shared.obj
 0001:000e0310       _PM_CheckParamters         100e1310 f   pm_shared.obj
 0001:000e0520       _PM_ReduceTimers           100e1520 f   pm_shared.obj
 0001:000e05f0       _PM_CreateStuckTable       100e15f0 f   pm_shared.obj
 0001:000e08b0       _CUSTOM_setPhysicsKey      100e18b0 f   pm_shared.obj
 0001:000e0990       _PM_GetVisEntInfo          100e1990 f   pm_shared.obj
 0001:000e09c0       _PM_GetPhysEntInfo         100e19c0 f   pm_shared.obj
 0001:000e09f0       _PM_Init                   100e19f0 f   pm_shared.obj
 0001:000e0a20       _PM_CatagorizePositionBASIC 100e1a20 f   pm_shared.obj
 0001:000e0a30       _PM_UnDuck                 100e1a30 f   pm_shared.obj
 0001:000e0bb0       _PM_Duck                   100e1bb0 f   pm_shared.obj
 0001:000e0e10       _PM_PlayerMove             100e1e10 f   pm_shared.obj
 0001:000e1230       _PM_Move                   100e2230 f   pm_shared.obj
 0001:000e1300       ??0CPython@@QAE@XZ         100e2300 f   python.obj
 0001:000e1330       ?iItemSlot@CPython@@UAEHXZ 100e2330 f i python.obj
 0001:000e1340       ?UseDecrement@CPython@@UAEHXZ 100e2340 f i python.obj
 0001:000e1350       ?Spawn@CLaserSpotPython@@EAEXXZ 100e2350 f   python.obj
 0001:000e13c0       ?Revive@CLaserSpotPython@@QAEXXZ 100e23c0 f   python.obj
 0001:000e13e0       ?Precache@CLaserSpotPython@@EAEXXZ 100e23e0 f   python.obj
 0001:000e13f0       ?CanAttackPython@@YAHMMH@Z 100e23f0 f   python.obj
 0001:000e1420       ?GetItemInfo@CPython@@UAEHPAUItemInfo@@@Z 100e2420 f   python.obj
 0001:000e1490       ?AddToPlayer@CPython@@UAEHPAVCBasePlayer@@@Z 100e2490 f   python.obj
 0001:000e14f0       ?customAttachToPlayer@CPython@@UAEXPAVCBasePlayer@@@Z 100e24f0 f   python.obj
 0001:000e1510       ?Spawn@CPython@@UAEXXZ     100e2510 f   python.obj
 0001:000e1580       ?Precache@CPython@@UAEXXZ  100e2580 f   python.obj
 0001:000e1620       ?ItemPostFrameThink@CPython@@UAEXXZ 100e2620 f   python.obj
 0001:000e1750       ?ItemPostFrame@CPython@@UAEXXZ 100e2750 f   python.obj
 0001:000e1760       ?updateModel@CPython@@QAEXXZ 100e2760 f   python.obj
 0001:000e1780       ?spotDeleteCheck@CPython@@QAEXXZ 100e2780 f   python.obj
 0001:000e17b0       ?WeaponIdle@CPython@@UAEXXZ 100e27b0 f   python.obj
 0001:000e19a0       ??$GetClassPtr@VCPython@@@@YAPAVCPython@@PAV0@@Z 100e29a0 f i python.obj
 0001:000e1a40       ??0CLaserSpotPython@@QAE@XZ 100e2a40 f i python.obj
 0001:000e1a60       ?ObjectCaps@CLaserSpotPython@@EAEHXZ 100e2a60 f i python.obj
 0001:000e1a70       _weapon_python             100e2a70 f   python.obj
 0001:000e1a80       _weapon_357                100e2a80 f   python.obj
 0001:000e1a90       ?Suspend@CLaserSpotPython@@QAEXM@Z 100e2a90 f   python.obj
 0001:000e1ad0       ?Deploy@CPython@@UAEHXZ    100e2ad0 f   python.obj
 0001:000e1b40       ?Holster@CPython@@UAEXH@Z  100e2b40 f   python.obj
 0001:000e1c00       ?SecondaryAttack@CPython@@UAEXXZ 100e2c00 f   python.obj
 0001:000e1d40       ?PrimaryAttack@CPython@@UAEXXZ 100e2d40 f   python.obj
 0001:000e2010       ?Reload@CPython@@UAEXXZ    100e3010 f   python.obj
 0001:000e20c0       ??$GetClassPtr@VCLaserSpotPython@@@@YAPAVCLaserSpotPython@@PAV0@@Z 100e30c0 f i python.obj
 0001:000e2170       ??0CPythonAmmo@@QAE@XZ     100e3170 f i python.obj
 0001:000e2190       ?Spawn@CPythonAmmo@@EAEXXZ 100e3190 f i python.obj
 0001:000e21c0       ?Precache@CPythonAmmo@@EAEXXZ 100e31c0 f i python.obj
 0001:000e21e0       ?AddAmmo@CPythonAmmo@@EAEHPAVCBaseEntity@@@Z 100e31e0 f i python.obj
 0001:000e2250       _laser_spot_python         100e3250 f   python.obj
 0001:000e2260       ?CreateSpot@CLaserSpotPython@@SAPAV1@XZ 100e3260 f   python.obj
 0001:000e2290       ?UpdateSpot@CPython@@QAEXXZ 100e3290 f   python.obj
 0001:000e2380       ??$GetClassPtr@VCPythonAmmo@@@@YAPAVCPythonAmmo@@PAV0@@Z 100e3380 f i python.obj
 0001:000e2430       ?ItemPreFrame@CPython@@UAEXXZ 100e3430 f   python.obj
 0001:000e2590       _ammo_357                  100e3590 f   python.obj
 0001:000e25a0       ?Classify@CRat@@UAEHXZ     100e35a0 f   rat.obj
 0001:000e25b0       ?SetYawSpeed@CRat@@UAEXXZ  100e35b0 f   rat.obj
 0001:000e25c0       ??0CRat@@QAE@XZ            100e35c0 f   rat.obj
 0001:000e25e0       ?Spawn@CRat@@UAEXXZ        100e35e0 f   rat.obj
 0001:000e26d0       ?Precache@CRat@@UAEXXZ     100e36d0 f   rat.obj
 0001:000e26e0       ??$GetClassPtr@VCRat@@@@YAPAVCRat@@PAV0@@Z 100e36e0 f i rat.obj
 0001:000e2780       _monster_rat               100e3780 f   rat.obj
 0001:000e2790       _rat                       100e3790 f   rat.obj
 0001:000e27a0       ?ISoundMask@CRoach@@UAEHXZ 100e37a0 f   roach.obj
 0001:000e27b0       ?Classify@CRoach@@UAEHXZ   100e37b0 f   roach.obj
 0001:000e27c0       ?SetYawSpeed@CRoach@@UAEXXZ 100e37c0 f   roach.obj
 0001:000e27d0       ??0CRoach@@QAE@XZ          100e37d0 f   roach.obj
 0001:000e27f0       ?Spawn@CRoach@@UAEXXZ      100e37f0 f   roach.obj
 0001:000e2930       ?Precache@CRoach@@UAEXXZ   100e3930 f   roach.obj
 0001:000e2980       ?Killed@CRoach@@UAEXPAUentvars_s@@0H@Z 100e3980 f   roach.obj
 0001:000e2a80       ?PickNewDest@CRoach@@QAEXH@Z 100e3a80 f   roach.obj
 0001:000e2c70       ?Move@CRoach@@UAEXM@Z      100e3c70 f   roach.obj
 0001:000e2e20       ?Look@CRoach@@UAEXH@Z      100e3e20 f   roach.obj
 0001:000e2f50       ??$GetClassPtr@VCRoach@@@@YAPAVCRoach@@PAV0@@Z 100e3f50 f i roach.obj
 0001:000e2ff0       _monster_cockroach         100e3ff0 f   roach.obj
 0001:000e3000       _cockroach                 100e4000 f   roach.obj
 0001:000e3010       _roach                     100e4010 f   roach.obj
 0001:000e3020       ?Touch@CRoach@@UAEXPAVCBaseEntity@@@Z 100e4020 f   roach.obj
 0001:000e3130       ?Killed@CRoach@@UAEXPAUentvars_s@@H@Z 100e4130 f   roach.obj
 0001:000e3150       ?MonsterThink@CRoach@@UAEXXZ 100e4150 f   roach.obj
 0001:000e3460       ?Spawn@CLaserSpot@@EAEXXZ  100e4460 f   rpg.obj
 0001:000e34d0       ?Revive@CLaserSpot@@QAEXXZ 100e44d0 f   rpg.obj
 0001:000e34f0       ?Precache@CLaserSpot@@EAEXXZ 100e44f0 f   rpg.obj
 0001:000e3500       ?RocketTouch@CRpgRocket@@QAEXPAVCBaseEntity@@@Z 100e4500 f   rpg.obj
 0001:000e3560       ?Precache@CRpgRocket@@UAEXXZ 100e4560 f   rpg.obj
 0001:000e3590       ?customAttachToPlayer@CRpg@@UAEXPAVCBasePlayer@@@Z 100e4590 f   rpg.obj
 0001:000e35b0       ?Spawn@CRpg@@UAEXXZ        100e45b0 f   rpg.obj
 0001:000e3610       ?Precache@CRpg@@UAEXXZ     100e4610 f   rpg.obj
 0001:000e3690       ?GetItemInfo@CRpg@@UAEHPAUItemInfo@@@Z 100e4690 f   rpg.obj
 0001:000e3700       ?AddToPlayer@CRpg@@UAEHPAVCBasePlayer@@@Z 100e4700 f   rpg.obj
 0001:000e3760       ?Deploy@CRpg@@UAEHXZ       100e4760 f   rpg.obj
 0001:000e37b0       ?CanHolster@CRpg@@UAEHXZ   100e47b0 f   rpg.obj
 0001:000e37d0       ?Holster@CRpg@@UAEXH@Z     100e47d0 f   rpg.obj
 0001:000e3840       ?SecondaryAttack@CRpg@@UAEXXZ 100e4840 f   rpg.obj
 0001:000e3890       ??0CRpg@@QAE@XZ            100e4890 f i rpg.obj
 0001:000e38b0       ?iItemSlot@CRpg@@UAEHXZ    100e48b0 f i rpg.obj
 0001:000e38c0       ?ShouldWeaponIdle@CRpg@@UAEHXZ 100e48c0 f i rpg.obj
 0001:000e38d0       ?UseDecrement@CRpg@@UAEHXZ 100e48d0 f i rpg.obj
 0001:000e38e0       ??0CLaserSpot@@QAE@XZ      100e48e0 f i rpg.obj
 0001:000e3900       ?ObjectCaps@CLaserSpot@@EAEHXZ 100e4900 f i rpg.obj
 0001:000e3910       ?Suspend@CLaserSpot@@QAEXM@Z 100e4910 f   rpg.obj
 0001:000e3950       ??0CRpgRocket@@QAE@XZ      100e4950 f   rpg.obj
 0001:000e3970       ?FollowThink@CRpgRocket@@QAEXXZ 100e4970 f   rpg.obj
 0001:000e3eb0       ?Reload@CRpg@@UAEXXZ       100e4eb0 f   rpg.obj
 0001:000e3f50       ??$GetClassPtr@VCRpg@@@@YAPAVCRpg@@PAV0@@Z 100e4f50 f i rpg.obj
 0001:000e4000       ??$GetClassPtr@VCLaserSpot@@@@YAPAVCLaserSpot@@PAV0@@Z 100e5000 f i rpg.obj
 0001:000e40b0       ??$GetClassPtr@VCRpgRocket@@@@YAPAVCRpgRocket@@PAV0@@Z 100e50b0 f i rpg.obj
 0001:000e4150       ??0CRpgAmmo@@QAE@XZ        100e5150 f i rpg.obj
 0001:000e4170       ?Spawn@CRpgAmmo@@EAEXXZ    100e5170 f i rpg.obj
 0001:000e41a0       ?Precache@CRpgAmmo@@EAEXXZ 100e51a0 f i rpg.obj
 0001:000e41c0       ?AddAmmo@CRpgAmmo@@EAEHPAVCBaseEntity@@@Z 100e51c0 f i rpg.obj
 0001:000e4240       _weapon_rpg                100e5240 f   rpg.obj
 0001:000e4250       _laser_spot                100e5250 f   rpg.obj
 0001:000e4260       ?CreateSpot@CLaserSpot@@SAPAV1@XZ 100e5260 f   rpg.obj
 0001:000e4290       _rpg_rocket                100e5290 f   rpg.obj
 0001:000e42a0       ?CreateRpgRocket@CRpgRocket@@SAPAV1@VVector@@0PAVCBaseEntity@@PAVCRpg@@@Z 100e52a0 f   rpg.obj
 0001:000e4310       ?IgniteThink@CRpgRocket@@QAEXXZ 100e5310 f   rpg.obj
 0001:000e44b0       ?UpdateSpot@CRpg@@QAEXXZ   100e54b0 f   rpg.obj
 0001:000e45a0       ??$GetClassPtr@VCRpgAmmo@@@@YAPAVCRpgAmmo@@PAV0@@Z 100e55a0 f i rpg.obj
 0001:000e4650       ?Spawn@CRpgRocket@@UAEXXZ  100e5650 f   rpg.obj
 0001:000e4830       ?PrimaryAttack@CRpg@@UAEXXZ 100e5830 f   rpg.obj
 0001:000e4b20       ?WeaponIdle@CRpg@@UAEXXZ   100e5b20 f   rpg.obj
 0001:000e4c10       _ammo_rpgclip              100e5c10 f   rpg.obj
 0001:000e4c20       ??0CSatchel@@QAE@XZ        100e5c20 f   satchel.obj
 0001:000e4c40       ?iItemSlot@CSatchel@@UAEHXZ 100e5c40 f i satchel.obj
 0001:000e4c50       ?UseDecrement@CSatchel@@UAEHXZ 100e5c50 f i satchel.obj
 0001:000e4c60       ?Deactivate@CSatchelCharge@@QAEXXZ 100e5c60 f   satchel.obj
 0001:000e4c80       ?SatchelThink@CSatchelCharge@@AAEXXZ 100e5c80 f   satchel.obj
 0001:000e4d90       ?Precache@CSatchelCharge@@EAEXXZ 100e5d90 f   satchel.obj
 0001:000e4dc0       ?BounceSound@CSatchelCharge@@EAEXXZ 100e5dc0 f   satchel.obj
 0001:000e4e80       ?AddDuplicate@CSatchel@@UAEHPAVCBasePlayerItem@@@Z 100e5e80 f   satchel.obj
 0001:000e4ec0       ?AddToPlayer@CSatchel@@UAEHPAVCBasePlayer@@@Z 100e5ec0 f   satchel.obj
 0001:000e4f20       ?customAttachToPlayer@CSatchel@@UAEXPAVCBasePlayer@@@Z 100e5f20 f   satchel.obj
 0001:000e4f40       ?Spawn@CSatchel@@UAEXXZ    100e5f40 f   satchel.obj
 0001:000e4f90       ?Precache@CSatchel@@UAEXXZ 100e5f90 f   satchel.obj
 0001:000e4ff0       ?GetItemInfo@CSatchel@@UAEHPAUItemInfo@@@Z 100e5ff0 f   satchel.obj
 0001:000e5060       ?IsUseable@CSatchel@@UAEHXZ 100e6060 f   satchel.obj
 0001:000e50a0       ?CanDeploy@CSatchel@@UAEHXZ 100e60a0 f   satchel.obj
 0001:000e50e0       ?Deploy@CSatchel@@UAEHXZ   100e60e0 f   satchel.obj
 0001:000e5190       ?Holster@CSatchel@@UAEXH@Z 100e6190 f   satchel.obj
 0001:000e5280       ?Throw@CSatchel@@QAEXXZ    100e6280 f   satchel.obj
 0001:000e5480       ?WeaponIdle@CSatchel@@UAEXXZ 100e6480 f   satchel.obj
 0001:000e5720       ?DeactivateSatchels@@YAXPAVCBasePlayer@@@Z 100e6720 f   satchel.obj
 0001:000e5790       ??$GetClassPtr@VCSatchel@@@@YAPAVCSatchel@@PAV0@@Z 100e6790 f i satchel.obj
 0001:000e5830       ?SatchelSlide@CSatchelCharge@@AAEXPAVCBaseEntity@@@Z 100e6830 f   satchel.obj
 0001:000e5980       _weapon_satchel            100e6980 f   satchel.obj
 0001:000e5990       ?PrimaryAttack@CSatchel@@UAEXXZ 100e6990 f   satchel.obj
 0001:000e5af0       ?SecondaryAttack@CSatchel@@UAEXXZ 100e6af0 f   satchel.obj
 0001:000e5b50       ??0CSatchelCharge@@QAE@XZ  100e6b50 f i satchel.obj
 0001:000e5b70       ?Spawn@CSatchelCharge@@EAEXXZ 100e6b70 f   satchel.obj
 0001:000e5c70       ??$GetClassPtr@VCSatchelCharge@@@@YAPAVCSatchelCharge@@PAV0@@Z 100e6c70 f i satchel.obj
 0001:000e5d20       _monster_satchel           100e6d20 f   satchel.obj
 0001:000e5d30       ?TaskBegin@CBaseMonster@@QAEXXZ 100e6d30 f i schedule.obj
 0001:000e5d40       ?TaskIsComplete@CBaseMonster@@QAEHXZ 100e6d40 f i schedule.obj
 0001:000e5d50       ?attemptFindCoverFromEnemy@CBaseMonster@@QAEHPAUTask_t@@@Z 100e6d50 f   schedule.obj
 0001:000e5e30       ?FHaveSchedule@CBaseMonster@@QAEHXZ 100e6e30 f   schedule.obj
 0001:000e5e40       ?ClearSchedule@CBaseMonster@@QAEXXZ 100e6e40 f   schedule.obj
 0001:000e5e60       ?FScheduleDone@CBaseMonster@@QAEHXZ 100e6e60 f   schedule.obj
 0001:000e5e80       ?NextScheduledTask@CBaseMonster@@QAEXXZ 100e6e80 f   schedule.obj
 0001:000e5eb0       ?IScheduleFlags@CBaseMonster@@QAEHXZ 100e6eb0 f   schedule.obj
 0001:000e5ed0       ?SetTurnActivity@CBaseMonster@@UAEXXZ 100e6ed0 f   schedule.obj
 0001:000e5ff0       ?GetTask@CBaseMonster@@QAEPAUTask_t@@XZ 100e6ff0 f   schedule.obj
 0001:000e6020       ?getScheduleName@CBaseMonster@@QAEPBDXZ 100e7020 f   schedule.obj
 0001:000e6040       ?getTaskNumber@CBaseMonster@@QAEHXZ 100e7040 f   schedule.obj
 0001:000e6050       ?GetSchedule@CBaseMonster@@UAEPAUSchedule_t@@XZ 100e7050 f   schedule.obj
 0001:000e6510       ?ChangeSchedule@CBaseMonster@@QAEXPAUSchedule_t@@@Z 100e7510 f   schedule.obj
 0001:000e65f0       ?FScheduleValid@CBaseMonster@@QAEHXZ 100e75f0 f   schedule.obj
 0001:000e6920       ?MaintainSchedule@CBaseMonster@@QAEXXZ 100e7920 f   schedule.obj
 0001:000e6fd0       ?RunTask@CBaseMonster@@UAEXPAUTask_t@@@Z 100e7fd0 f   schedule.obj
 0001:000e7c10       ?StartTask@CBaseMonster@@UAEXPAUTask_t@@@Z 100e8c10 f   schedule.obj
 0001:000e9630       ?DisregardEnemy@CScientist@@QAEHPAVCBaseEntity@@@Z 100ea630 f i scientist.obj
 0001:000e9640       ?Save@CScientist@@UAEHAAVCSave@@@Z 100ea640 f   scientist.obj
 0001:000e9680       ?getMadInterSentencesMax@CScientist@@UAEHXZ 100ea680 f   scientist.obj
 0001:000e9690       ?getMadSentencesMax@CScientist@@UAEHXZ 100ea690 f   scientist.obj
 0001:000e96a0       ?ScheduleFromName@CScientist@@UAEPAUSchedule_t@@PBD@Z 100ea6a0 f   scientist.obj
 0001:000e96d0       ?DeclineFollowingProvoked@CScientist@@UAEXPAVCBaseEntity@@@Z 100ea6d0 f   scientist.obj
 0001:000e9770       ?SayProvoked@CScientist@@UAEXXZ 100ea770 f   scientist.obj
 0001:000e9900       ?SaySuspicious@CScientist@@UAEXXZ 100ea900 f   scientist.obj
 0001:000e9a20       ?SayLeaderDied@CScientist@@UAEXXZ 100eaa20 f   scientist.obj
 0001:000e9b20       ?DeclineFollowing@CScientist@@UAEXXZ 100eab20 f   scientist.obj
 0001:000e9ba0       ?Scream@CScientist@@QAEXXZ 100eaba0 f   scientist.obj
 0001:000e9c20       ?GetStoppedActivity@CScientist@@UAE?AW4Activity@@XZ 100eac20 f   scientist.obj
 0001:000e9c50       ?Classify@CScientist@@UAEHXZ 100eac50 f   scientist.obj
 0001:000e9c60       ?SetYawSpeed@CScientist@@UAEXXZ 100eac60 f   scientist.obj
 0001:000e9cf0       ?scientistHeadFilter@@YAXAAVCBaseMonster@@HPAH@Z 100eacf0 f   scientist.obj
 0001:000e9d50       ?getGermanModelRequirement@CScientist@@UAEHXZ 100ead50 f   scientist.obj
 0001:000e9d60       ?getGermanModel@CScientist@@UAEPBDXZ 100ead60 f   scientist.obj
 0001:000e9d70       ?getNormalModel@CScientist@@UAEPBDXZ 100ead70 f   scientist.obj
 0001:000e9d80       ?setModel@CScientist@@UAEXPBD@Z 100ead80 f   scientist.obj
 0001:000e9df0       ?Activate@CScientist@@UAEXXZ 100eadf0 f   scientist.obj
 0001:000e9e00       ??0CScientist@@QAE@XZ      100eae00 f   scientist.obj
 0001:000e9e80       ?isOrganic@CScientist@@UAEHXZ 100eae80 f i scientist.obj
 0001:000e9e90       ?ObjectCaps@CScientist@@UAEHXZ 100eae90 f i scientist.obj
 0001:000e9ea0       ?CoverRadius@CScientist@@UAEMXZ 100eaea0 f i scientist.obj
 0001:000e9eb0       ?SetObjectCollisionBox@CScientist@@UAEXXZ 100eaeb0 f i scientist.obj
 0001:000e9f50       ?Spawn@CScientist@@UAEXXZ  100eaf50 f   scientist.obj
 0001:000ea130       ?TalkInit@CScientist@@QAEXXZ 100eb130 f   scientist.obj
 0001:000ea2a0       ?TraceAttack@CScientist@@UAEXPAUentvars_s@@MVVector@@PAUTraceResult@@HHHPAH@Z 100eb2a0 f   scientist.obj
 0001:000ea2f0       ?ISoundMask@CScientist@@UAEHXZ 100eb2f0 f   scientist.obj
 0001:000ea300       ?PainSound@CScientist@@UAEXXZ 100eb300 f   scientist.obj
 0001:000ea4a0       ?DeathSound@CScientist@@UAEXXZ 100eb4a0 f   scientist.obj
 0001:000ea4b0       ?Killed@CScientist@@UAEXPAUentvars_s@@0H@Z 100eb4b0 f   scientist.obj
 0001:000ea4d0       ?SetActivity@CScientist@@UAEXW4Activity@@@Z 100eb4d0 f   scientist.obj
 0001:000ea540       ?ReportAIState@CScientist@@UAEXXZ 100eb540 f   scientist.obj
 0001:000ea580       ?GetScheduleOfType@CScientist@@UAEPAUSchedule_t@@H@Z 100eb580 f   scientist.obj
 0001:000ea7b0       ?ScheduleChange@CScientist@@UAEXXZ 100eb7b0 f   scientist.obj
 0001:000ea7d0       ?GetIdealState@CScientist@@UAE?AW4MONSTERSTATE@@XZ 100eb7d0 f   scientist.obj
 0001:000ea8c0       ?CanHeal@CScientist@@QAEHPAVCBaseMonster@@@Z 100eb8c0 f   scientist.obj
 0001:000ea930       ?CanHeal@CScientist@@QAEHXZ 100eb930 f   scientist.obj
 0001:000eaa40       ?Heal@CScientist@@QAEXXZ   100eba40 f   scientist.obj
 0001:000eabf0       ?FriendNumber@CScientist@@UAEHH@Z 100ebbf0 f   scientist.obj
 0001:000eac10       ?Save@CDeadScientist@@UAEHAAVCSave@@@Z 100ebc10 f   scientist.obj
 0001:000eac50       ?PostRestore@CDeadScientist@@QAEXXZ 100ebc50 f   scientist.obj
 0001:000eac70       ?KeyValue@CDeadScientist@@UAEXPAUKeyValueData_s@@@Z 100ebc70 f   scientist.obj
 0001:000eace0       ?getGermanModelRequirement@CDeadScientist@@UAEHXZ 100ebce0 f   scientist.obj
 0001:000eacf0       ?getGermanModel@CDeadScientist@@UAEPBDXZ 100ebcf0 f   scientist.obj
 0001:000ead00       ?getNormalModel@CDeadScientist@@UAEPBDXZ 100ebd00 f   scientist.obj
 0001:000ead10       ?setModel@CDeadScientist@@UAEXPBD@Z 100ebd10 f   scientist.obj
 0001:000ead40       ?Activate@CDeadScientist@@UAEXXZ 100ebd40 f   scientist.obj
 0001:000ead50       ??0CDeadScientist@@QAE@XZ  100ebd50 f   scientist.obj
 0001:000ead70       ?Classify@CDeadScientist@@UAEHXZ 100ebd70 f i scientist.obj
 0001:000ead80       ?isOrganic@CDeadScientist@@UAEHXZ 100ebd80 f i scientist.obj
 0001:000ead90       ?Spawn@CDeadScientist@@UAEXXZ 100ebd90 f   scientist.obj
 0001:000eaf10       ?Save@CSittingScientist@@UAEHAAVCSave@@@Z 100ebf10 f   scientist.obj
 0001:000eaf50       ?PostRestore@CSittingScientist@@QAEXXZ 100ebf50 f   scientist.obj
 0001:000eaf60       ?TraceAttack@CSittingScientist@@UAEXPAUentvars_s@@MVVector@@PAUTraceResult@@HHHPAH@Z 100ebf60 f   scientist.obj
 0001:000eafb0       ?TakeDamage@CSittingScientist@@UAEHPAUentvars_s@@0MHH@Z 100ebfb0 f   scientist.obj
 0001:000eaff0       ?Activate@CSittingScientist@@UAEXXZ 100ebff0 f   scientist.obj
 0001:000eb000       ??0CSittingScientist@@QAE@XZ 100ec000 f   scientist.obj
 0001:000eb020       ?Precache@CSittingScientist@@UAEXXZ 100ec020 f   scientist.obj
 0001:000eb040       ?Classify@CSittingScientist@@UAEHXZ 100ec040 f   scientist.obj
 0001:000eb050       ?FriendNumber@CSittingScientist@@UAEHH@Z 100ec050 f   scientist.obj
 0001:000eb070       ?SetAnswerQuestion@CSittingScientist@@UAEXPAVCTalkMonster@@@Z 100ec070 f   scientist.obj
 0001:000eb0c0       ?StartFollowing@CScientist@@UAEXPAVCBaseEntity@@@Z 100ec0c0 f   scientist.obj
 0001:000eb0e0       ?forgetHealNPC@CScientist@@UAEXXZ 100ec0e0 f   scientist.obj
 0001:000eb160       ?CheckMeleeAttack1@CScientist@@UAEHMM@Z 100ec160 f   scientist.obj
 0001:000eb170       ?CheckMeleeAttack2@CScientist@@UAEHMM@Z 100ec170 f   scientist.obj
 0001:000eb220       ?HandleEventQueueEvent@CScientist@@UAEXH@Z 100ec220 f   scientist.obj
 0001:000eb400       ?usesAdvancedAnimSystem@CScientist@@UAEHXZ 100ec400 f   scientist.obj
 0001:000eb410       ?LookupActivityHard@CScientist@@UAEHH@Z 100ec410 f   scientist.obj
 0001:000eb480       ?tryActivitySubstitute@CScientist@@UAEHH@Z 100ec480 f   scientist.obj
 0001:000eb4b0       ??$GetClassPtr@VCScientist@@@@YAPAVCScientist@@PAV0@@Z 100ec4b0 f i scientist.obj
 0001:000eb550       ??$GetClassPtr@VCDeadScientist@@@@YAPAVCDeadScientist@@PAV0@@Z 100ec550 f i scientist.obj
 0001:000eb5f0       ??$GetClassPtr@VCSittingScientist@@@@YAPAVCSittingScientist@@PAV0@@Z 100ec5f0 f i scientist.obj
 0001:000eb690       ??$GetClassPtr@VCTalkMonster@@@@YAPAVCTalkMonster@@PAV0@@Z 100ec690 f i scientist.obj
 0001:000eb730       _monster_scientist         100ec730 f   scientist.obj
 0001:000eb740       _scientist                 100ec740 f   scientist.obj
 0001:000eb750       ?PostRestore@CScientist@@QAEXXZ 100ec750 f   scientist.obj
 0001:000eb770       ?StartTask@CScientist@@UAEXPAUTask_t@@@Z 100ec770 f   scientist.obj
 0001:000ebea0       ?RunTask@CScientist@@UAEXPAUTask_t@@@Z 100ecea0 f   scientist.obj
 0001:000ec1d0       ?HandleAnimEvent@CScientist@@UAEXPAUMonsterEvent_t@@@Z 100ed1d0 f   scientist.obj
 0001:000ec260       ?setModel@CScientist@@UAEXXZ 100ed260 f   scientist.obj
 0001:000ec270       ?Precache@CScientist@@UAEXXZ 100ed270 f   scientist.obj
 0001:000ec310       ?TraceAttack@CScientist@@UAEXPAUentvars_s@@MVVector@@PAUTraceResult@@H@Z 100ed310 f   scientist.obj
 0001:000ec350       ?TraceAttack@CScientist@@UAEXPAUentvars_s@@MVVector@@PAUTraceResult@@HH@Z 100ed350 f   scientist.obj
 0001:000ec390       ?TraceAttack@CScientist@@UAEXPAUentvars_s@@MVVector@@PAUTraceResult@@HHH@Z 100ed390 f   scientist.obj
 0001:000ec3d0       ?TakeDamage@CScientist@@UAEHPAUentvars_s@@0MHH@Z 100ed3d0 f   scientist.obj
 0001:000ec510       ?Killed@CScientist@@UAEXPAUentvars_s@@H@Z 100ed510 f   scientist.obj
 0001:000ec530       ?GetSchedule@CScientist@@UAEPAUSchedule_t@@XZ 100ed530 f   scientist.obj
 0001:000ecaf0       ?MonsterThink@CScientist@@UAEXXZ 100edaf0 f   scientist.obj
 0001:000ecd50       ?Restore@CDeadScientist@@UAEHAAVCRestore@@@Z 100edd50 f   scientist.obj
 0001:000ecd90       _monster_scientist_dead    100edd90 f   scientist.obj
 0001:000ecda0       _scientist_dead            100edda0 f   scientist.obj
 0001:000ecdb0       ?setModel@CDeadScientist@@UAEXXZ 100eddb0 f   scientist.obj
 0001:000ecdc0       _monster_sitting_scientist 100eddc0 f   scientist.obj
 0001:000ecdd0       _scientist_sitting         100eddd0 f   scientist.obj
 0001:000ecde0       _sitting_scientist         100edde0 f   scientist.obj
 0001:000ecdf0       _monster_scientist_sitting 100eddf0 f   scientist.obj
 0001:000ece00       ?TraceAttack@CSittingScientist@@UAEXPAUentvars_s@@MVVector@@PAUTraceResult@@H@Z 100ede00 f   scientist.obj
 0001:000ece40       ?TraceAttack@CSittingScientist@@UAEXPAUentvars_s@@MVVector@@PAUTraceResult@@HH@Z 100ede40 f   scientist.obj
 0001:000ece80       ?TraceAttack@CSittingScientist@@UAEXPAUentvars_s@@MVVector@@PAUTraceResult@@HHH@Z 100ede80 f   scientist.obj
 0001:000ecec0       ?TakeDamage@CSittingScientist@@UAEHPAUentvars_s@@0MH@Z 100edec0 f   scientist.obj
 0001:000ecef0       ?FIdleSpeak@CSittingScientist@@QAEHXZ 100edef0 f   scientist.obj
 0001:000ed070       ?Restore@CScientist@@UAEHAAVCRestore@@@Z 100ee070 f   scientist.obj
 0001:000ed0b0       ?TakeDamage@CScientist@@UAEHPAUentvars_s@@0MH@Z 100ee0b0 f   scientist.obj
 0001:000ed0e0       ?Restore@CSittingScientist@@UAEHAAVCRestore@@@Z 100ee0e0 f   scientist.obj
 0001:000ed120       ?SittingThink@CSittingScientist@@QAEXXZ 100ee120 f   scientist.obj
 0001:000ed4a0       ?Spawn@CSittingScientist@@UAEXXZ 100ee4a0 f   scientist.obj
 0001:000ed690       ?KeyValue@CCineMonster@@UAEXPAUKeyValueData_s@@@Z 100ee690 f   scripted.obj
 0001:000ed870       ?Save@CCineMonster@@UAEHAAVCSave@@@Z 100ee870 f   scripted.obj
 0001:000ed8b0       ?Restore@CCineMonster@@UAEHAAVCRestore@@@Z 100ee8b0 f   scripted.obj
 0001:000ed8f0       ??0CCineMonster@@QAE@XZ    100ee8f0 f   scripted.obj
 0001:000ed910       ?ObjectCaps@CCineMonster@@UAEHXZ 100ee910 f i scripted.obj
 0001:000ed940       ?FCanOverrideState@CCineMonster@@UAEHXZ 100ee940 f   scripted.obj
 0001:000ed960       ?FCanOverrideState@CCineAI@@EAEHXZ 100ee960 f   scripted.obj
 0001:000ed970       ?Blocked@CCineMonster@@UAEXPAVCBaseEntity@@@Z 100ee970 f   scripted.obj
 0001:000ed980       ?Touch@CCineMonster@@UAEXPAVCBaseEntity@@@Z 100ee980 f   scripted.obj
 0001:000ed990       ?Die@CCineMonster@@QAEXXZ  100ee990 f   scripted.obj
 0001:000ed9a0       ?Pain@CCineMonster@@QAEXXZ 100ee9a0 f   scripted.obj
 0001:000ed9b0       ?FindEntity@CCineMonster@@QAEHXZ 100ee9b0 f   scripted.obj
 0001:000edbb0       ?PossessEntity@CCineAI@@EAEXXZ 100eebb0 f   scripted.obj
 0001:000eddf0       ?FixScriptMonsterSchedule@CCineMonster@@UAEXPAVCBaseMonster@@@Z 100eedf0 f   scripted.obj
 0001:000ede20       ?FixScriptMonsterSchedule@CCineAI@@EAEXPAVCBaseMonster@@@Z 100eee20 f   scripted.obj
 0001:000ede70       ?AllowInterrupt@CCineMonster@@QAEXH@Z 100eee70 f   scripted.obj
 0001:000ede90       ?CanInterrupt@CCineMonster@@QAEHXZ 100eee90 f   scripted.obj
 0001:000edec0       ?IgnoreConditions@CCineMonster@@UAEHXZ 100eeec0 f   scripted.obj
 0001:000edee0       ?Activate@CCineMonster@@UAEXXZ 100eeee0 f   scripted.obj
 0001:000ee0f0       ?CineCleanup@CBaseMonster@@QAEHXZ 100ef0f0 f   scripted.obj
 0001:000ee400       ?Save@CScriptedSentence@@UAEHAAVCSave@@@Z 100ef400 f   scripted.obj
 0001:000ee440       ?Restore@CScriptedSentence@@UAEHAAVCRestore@@@Z 100ef440 f   scripted.obj
 0001:000ee480       ?KeyValue@CScriptedSentence@@UAEXPAUKeyValueData_s@@@Z 100ef480 f   scripted.obj
 0001:000ee6a0       ?AcceptableSpeaker@CScriptedSentence@@QAEHPAVCBaseMonster@@@Z 100ef6a0 f   scripted.obj
 0001:000ee720       ?FindEntity@CScriptedSentence@@QAEPAVCBaseMonster@@XZ 100ef720 f   scripted.obj
 0001:000ee870       ?StartSentence@CScriptedSentence@@QAEHPAVCBaseMonster@@@Z 100ef870 f   scripted.obj
 0001:000ee9d0       ?Die@CFurniture@@QAEXXZ    100ef9d0 f   scripted.obj
 0001:000ee9f0       ?Spawn@CFurniture@@UAEXXZ  100ef9f0 f   scripted.obj
 0001:000eeab0       ?Classify@CFurniture@@UAEHXZ 100efab0 f   scripted.obj
 0001:000eeac0       ??$GetClassPtr@VCCineMonster@@@@YAPAVCCineMonster@@PAV0@@Z 100efac0 f i scripted.obj
 0001:000eeb60       ??0CCineAI@@QAE@XZ         100efb60 f i scripted.obj
 0001:000eeb80       ??0CFurniture@@QAE@XZ      100efb80 f i scripted.obj
 0001:000eeba0       ?ObjectCaps@CFurniture@@UAEHXZ 100efba0 f i scripted.obj
 0001:000eebb0       _scripted_sequence         100efbb0 f   scripted.obj
 0001:000eebc0       ?SequenceDone@CCineMonster@@QAEXPAVCBaseMonster@@@Z 100efbc0 f   scripted.obj
 0001:000eec20       ?ScriptEntityCancel@@YAXPAUedict_s@@@Z 100efc20 f   scripted.obj
 0001:000eec90       ?CancelScript@CCineMonster@@QAEXXZ 100efc90 f   scripted.obj
 0001:000eed40       ?DelayStart@CCineMonster@@QAEXH@Z 100efd40 f   scripted.obj
 0001:000eee30       ?FindThink@CScriptedSentence@@QAEXXZ 100efe30 f   scripted.obj
 0001:000eeec0       ?DelayThink@CScriptedSentence@@QAEXXZ 100efec0 f   scripted.obj
 0001:000eef00       ??$GetClassPtr@VCCineAI@@@@YAPAVCCineAI@@PAV0@@Z 100eff00 f i scripted.obj
 0001:000eefb0       ??$GetClassPtr@VCFurniture@@@@YAPAVCFurniture@@PAV0@@Z 100effb0 f i scripted.obj
 0001:000ef060       ??0CScriptedSentence@@QAE@XZ 100f0060 f i scripted.obj
 0001:000ef080       ?ObjectCaps@CScriptedSentence@@UAEHXZ 100f0080 f i scripted.obj
 0001:000ef090       _aiscripted_sequence       100f0090 f   scripted.obj
 0001:000ef0a0       ?PossessEntity@CCineMonster@@UAEXXZ 100f00a0 f   scripted.obj
 0001:000ef2c0       ?CineThink@CCineMonster@@QAEXXZ 100f02c0 f   scripted.obj
 0001:000ef370       ?StartSequence@CCineMonster@@UAEHPAVCBaseMonster@@HH@Z 100f0370 f   scripted.obj
 0001:000ef420       ?StartSequence@CCineAI@@EAEHPAVCBaseMonster@@HH@Z 100f0420 f   scripted.obj
 0001:000ef4d0       ?ExitScriptedSequence@CBaseMonster@@QAEHXZ 100f04d0 f   scripted.obj
 0001:000ef500       ?Use@CScriptedSentence@@UAEXPAVCBaseEntity@@0W4USE_TYPE@@M@Z 100f0500 f   scripted.obj
 0001:000ef530       ?Spawn@CScriptedSentence@@UAEXXZ 100f0530 f   scripted.obj
 0001:000ef5d0       _monster_furniture         100f05d0 f   scripted.obj
 0001:000ef5e0       ??$GetClassPtr@VCScriptedSentence@@@@YAPAVCScriptedSentence@@PAV0@@Z 100f05e0 f i scripted.obj
 0001:000ef690       ?Spawn@CCineMonster@@UAEXXZ 100f0690 f   scripted.obj
 0001:000ef710       ?Use@CCineMonster@@UAEXPAVCBaseEntity@@0W4USE_TYPE@@M@Z 100f0710 f   scripted.obj
 0001:000ef780       _scripted_sentence         100f0780 f   scripted.obj
 0001:000ef790       ??0CShotgun@@QAE@XZ        100f0790 f   shotgun.obj
 0001:000ef7b0       ?iItemSlot@CShotgun@@UAEHXZ 100f07b0 f i shotgun.obj
 0001:000ef7c0       ?UseDecrement@CShotgun@@UAEHXZ 100f07c0 f i shotgun.obj
 0001:000ef7d0       ?Spawn@CShotgun@@UAEXXZ    100f07d0 f   shotgun.obj
 0001:000ef820       ?Precache@CShotgun@@UAEXXZ 100f0820 f   shotgun.obj
 0001:000ef8e0       ?customAttachToPlayer@CShotgun@@UAEXPAVCBasePlayer@@@Z 100f08e0 f   shotgun.obj
 0001:000ef900       ?AddToPlayer@CShotgun@@UAEHPAVCBasePlayer@@@Z 100f0900 f   shotgun.obj
 0001:000ef960       ?GetItemInfo@CShotgun@@UAEHPAUItemInfo@@@Z 100f0960 f   shotgun.obj
 0001:000ef9d0       ?Holster@CShotgun@@UAEXH@Z 100f09d0 f   shotgun.obj
 0001:000ef9f0       ?Deploy@CShotgun@@UAEHXZ   100f09f0 f   shotgun.obj
 0001:000efa90       ?ItemPreFrame@CShotgun@@UAEXXZ 100f0a90 f   shotgun.obj
 0001:000efb30       ?ItemPostFrame@CShotgun@@UAEXXZ 100f0b30 f   shotgun.obj
 0001:000efc30       ?Reload@CShotgun@@UAEXXZ   100f0c30 f   shotgun.obj
 0001:000efe20       ?reloadFinishPump@CShotgun@@QAEXXZ 100f0e20 f   shotgun.obj
 0001:000eff70       ?reloadSemi@CShotgun@@QAEHXZ 100f0f70 f   shotgun.obj
 0001:000f0000       ?WeaponIdle@CShotgun@@UAEXXZ 100f1000 f   shotgun.obj
 0001:000f0120       ??$GetClassPtr@VCShotgun@@@@YAPAVCShotgun@@PAV0@@Z 100f1120 f i shotgun.obj
 0001:000f01c0       _weapon_shotgun            100f11c0 f   shotgun.obj
 0001:000f01d0       ?reloadBlockFireCheck@CShotgun@@QAEHXZ 100f11d0 f   shotgun.obj
 0001:000f0230       ??0CShotgunAmmo@@QAE@XZ    100f1230 f i shotgun.obj
 0001:000f0250       ?Spawn@CShotgunAmmo@@EAEXXZ 100f1250 f i shotgun.obj
 0001:000f0280       ?Precache@CShotgunAmmo@@EAEXXZ 100f1280 f i shotgun.obj
 0001:000f02a0       ?AddAmmo@CShotgunAmmo@@EAEHPAVCBaseEntity@@@Z 100f12a0 f i shotgun.obj
 0001:000f0310       ?PrimaryAttack@CShotgun@@UAEXXZ 100f1310 f   shotgun.obj
 0001:000f06b0       ?SecondaryAttack@CShotgun@@UAEXXZ 100f16b0 f   shotgun.obj
 0001:000f0a80       ??$GetClassPtr@VCShotgunAmmo@@@@YAPAVCShotgunAmmo@@PAV0@@Z 100f1a80 f i shotgun.obj
 0001:000f0b30       _ammo_buckshot             100f1b30 f   shotgun.obj
 0001:000f0b40       ?Think@CHalfLifeRules@@UAEXXZ 100f1b40 f   singleplay_gamerules.obj
 0001:000f0b50       ?IsMultiplayer@CHalfLifeRules@@UAEHXZ 100f1b50 f   singleplay_gamerules.obj
 0001:000f0b60       ?IsDeathmatch@CHalfLifeRules@@UAEHXZ 100f1b60 f   singleplay_gamerules.obj
 0001:000f0b70       ?IsCoOp@CHalfLifeRules@@UAEHXZ 100f1b70 f   singleplay_gamerules.obj
 0001:000f0b80       ?FShouldSwitchWeapon@CHalfLifeRules@@UAEHPAVCBasePlayer@@PAVCBasePlayerItem@@@Z 100f1b80 f   singleplay_gamerules.obj
 0001:000f0bc0       ?GetNextBestWeapon@CHalfLifeRules@@UAEHPAVCBasePlayer@@PAVCBasePlayerItem@@@Z 100f1bc0 f   singleplay_gamerules.obj
 0001:000f0bd0       ?ClientConnected@CHalfLifeRules@@UAEHPAUedict_s@@PBD1QAD@Z 100f1bd0 f   singleplay_gamerules.obj
 0001:000f0be0       ?InitHUD@CHalfLifeRules@@UAEXPAVCBasePlayer@@@Z 100f1be0 f   singleplay_gamerules.obj
 0001:000f0bf0       ?ClientDisconnected@CHalfLifeRules@@UAEXPAUedict_s@@@Z 100f1bf0 f   singleplay_gamerules.obj
 0001:000f0c00       ?FlPlayerFallDamage@CHalfLifeRules@@UAEMPAVCBasePlayer@@@Z 100f1c00 f   singleplay_gamerules.obj
 0001:000f0c40       ?PlayerSpawn@CHalfLifeRules@@UAEXPAVCBasePlayer@@@Z 100f1c40 f   singleplay_gamerules.obj
 0001:000f0c50       ?AllowAutoTargetCrosshair@CHalfLifeRules@@UAEHXZ 100f1c50 f   singleplay_gamerules.obj
 0001:000f0c60       ?PlayerThink@CHalfLifeRules@@UAEXPAVCBasePlayer@@@Z 100f1c60 f   singleplay_gamerules.obj
 0001:000f0c70       ?FPlayerCanRespawn@CHalfLifeRules@@UAEHPAVCBasePlayer@@@Z 100f1c70 f   singleplay_gamerules.obj
 0001:000f0c80       ?FlPlayerSpawnTime@CHalfLifeRules@@UAEMPAVCBasePlayer@@@Z 100f1c80 f   singleplay_gamerules.obj
 0001:000f0c90       ?IPointsForKill@CHalfLifeRules@@UAEHPAVCBasePlayer@@0@Z 100f1c90 f   singleplay_gamerules.obj
 0001:000f0ca0       ?PlayerKilled@CHalfLifeRules@@UAEXPAVCBasePlayer@@PAUentvars_s@@1@Z 100f1ca0 f   singleplay_gamerules.obj
 0001:000f0cb0       ?DeathNotice@CHalfLifeRules@@UAEXPAVCBasePlayer@@PAUentvars_s@@1@Z 100f1cb0 f   singleplay_gamerules.obj
 0001:000f0cc0       ?PlayerGotWeapon@CHalfLifeRules@@UAEXPAVCBasePlayer@@PAVCBasePlayerItem@@@Z 100f1cc0 f   singleplay_gamerules.obj
 0001:000f0cd0       ?FlWeaponRespawnTime@CHalfLifeRules@@UAEMPAVCBasePlayerItem@@@Z 100f1cd0 f   singleplay_gamerules.obj
 0001:000f0ce0       ?FlWeaponTryRespawn@CHalfLifeRules@@UAEMPAVCBasePlayerItem@@@Z 100f1ce0 f   singleplay_gamerules.obj
 0001:000f0cf0       ?VecWeaponRespawnSpot@CHalfLifeRules@@UAE?AVVector@@PAVCBasePlayerItem@@@Z 100f1cf0 f   singleplay_gamerules.obj
 0001:000f0d20       ?WeaponShouldRespawn@CHalfLifeRules@@UAEHPAVCBasePlayerItem@@@Z 100f1d20 f   singleplay_gamerules.obj
 0001:000f0d30       ?CanHaveItem@CHalfLifeRules@@UAEHPAVCBasePlayer@@PAVCItem@@@Z 100f1d30 f   singleplay_gamerules.obj
 0001:000f0d40       ?PlayerGotItem@CHalfLifeRules@@UAEXPAVCBasePlayer@@PAVCItem@@@Z 100f1d40 f   singleplay_gamerules.obj
 0001:000f0d50       ?ItemShouldRespawn@CHalfLifeRules@@UAEHPAVCItem@@@Z 100f1d50 f   singleplay_gamerules.obj
 0001:000f0d60       ?FlItemRespawnTime@CHalfLifeRules@@UAEMPAVCItem@@@Z 100f1d60 f   singleplay_gamerules.obj
 0001:000f0d70       ?VecItemRespawnSpot@CHalfLifeRules@@UAE?AVVector@@PAVCItem@@@Z 100f1d70 f   singleplay_gamerules.obj
 0001:000f0da0       ?IsAllowedToSpawn@CHalfLifeRules@@UAEHPAVCBaseEntity@@@Z 100f1da0 f   singleplay_gamerules.obj
 0001:000f0db0       ?PlayerGotAmmo@CHalfLifeRules@@UAEXPAVCBasePlayer@@PADH@Z 100f1db0 f   singleplay_gamerules.obj
 0001:000f0dc0       ?AmmoShouldRespawn@CHalfLifeRules@@UAEHPAVCBasePlayerAmmo@@@Z 100f1dc0 f   singleplay_gamerules.obj
 0001:000f0dd0       ?FlAmmoRespawnTime@CHalfLifeRules@@UAEMPAVCBasePlayerAmmo@@@Z 100f1dd0 f   singleplay_gamerules.obj
 0001:000f0de0       ?VecAmmoRespawnSpot@CHalfLifeRules@@UAE?AVVector@@PAVCBasePlayerAmmo@@@Z 100f1de0 f   singleplay_gamerules.obj
 0001:000f0e10       ?FlHealthChargerRechargeTime@CHalfLifeRules@@UAEMXZ 100f1e10 f   singleplay_gamerules.obj
 0001:000f0e20       ?DeadPlayerWeapons@CHalfLifeRules@@UAEHPAVCBasePlayer@@@Z 100f1e20 f   singleplay_gamerules.obj
 0001:000f0e30       ?DeadPlayerAmmo@CHalfLifeRules@@UAEHPAVCBasePlayer@@@Z 100f1e30 f   singleplay_gamerules.obj
 0001:000f0e40       ?PlayerRelationship@CHalfLifeRules@@UAEHPAVCBaseEntity@@0@Z 100f1e40 f   singleplay_gamerules.obj
 0001:000f0e50       ?FAllowMonsters@CHalfLifeRules@@UAEHXZ 100f1e50 f   singleplay_gamerules.obj
 0001:000f0e60       ??0CHalfLifeRules@@QAE@XZ  100f1e60 f   singleplay_gamerules.obj
 0001:000f0e80       ?FAllowFlashlight@CHalfLifeRules@@UAEHXZ 100f1e80 f i singleplay_gamerules.obj
 0001:000f0e90       ?GetTeamID@CHalfLifeRules@@UAEPBDPAVCBaseEntity@@@Z 100f1e90 f i singleplay_gamerules.obj
 0001:000f0ea0       ?GetSkillCvar@@YAMPAD@Z    100f1ea0 f   skill.obj
 0001:000f0f10       ?CopyToArray@Vector@@QBEXPAM@Z 100f1f10 f i sound.obj
 0001:000f0f30       ?Save@CAmbientGeneric@@UAEHAAVCSave@@@Z 100f1f30 f   sound.obj
 0001:000f0f70       ?Restore@CAmbientGeneric@@UAEHAAVCRestore@@@Z 100f1f70 f   sound.obj
 0001:000f0fb0       ?RampThink@CAmbientGeneric@@QAEXXZ 100f1fb0 f   sound.obj
 0001:000f1390       ?InitModulationParms@CAmbientGeneric@@QAEXXZ 100f2390 f   sound.obj
 0001:000f15f0       ?ToggleUse@CAmbientGeneric@@QAEXPAVCBaseEntity@@0W4USE_TYPE@@M@Z 100f25f0 f   sound.obj
 0001:000f1880       ?KeyValue@CAmbientGeneric@@UAEXPAUKeyValueData_s@@@Z 100f2880 f   sound.obj
 0001:000f1dd0       ?Save@CEnvSound@@UAEHAAVCSave@@@Z 100f2dd0 f   sound.obj
 0001:000f1e10       ?Restore@CEnvSound@@UAEHAAVCRestore@@@Z 100f2e10 f   sound.obj
 0001:000f1e50       ?KeyValue@CEnvSound@@UAEXPAUKeyValueData_s@@@Z 100f2e50 f   sound.obj
 0001:000f1f00       ?Spawn@CEnvSound@@UAEXXZ   100f2f00 f   sound.obj
 0001:000f1f40       ?USENTENCEG_InitLRU@@YAXPAEH@Z 100f2f40 f   sound.obj
 0001:000f1fb0       ?USENTENCEG_PickSequential@@YAHHPADHH@Z 100f2fb0 f   sound.obj
 0001:000f20b0       ?USENTENCEG_Pick@@YAHHPAD@Z 100f30b0 f   sound.obj
 0001:000f21c0       ?SENTENCEG_GetIndex@@YAHPBD@Z 100f31c0 f   sound.obj
 0001:000f2240       ?SENTENCEG_PlayRndI@@YAHPAUedict_s@@HMMHH@Z 100f3240 f   sound.obj
 0001:000f22d0       ?SENTENCEG_PlayRndSz@@YAHPAUedict_s@@PBDMMHH@Z 100f32d0 f   sound.obj
 0001:000f2380       ?SENTENCEG_PlayRndSz_Ambient@@YAHPAUedict_s@@VVector@@PBDMMHH@Z 100f3380 f   sound.obj
 0001:000f2430       ?SENTENCEG_PlaySequentialSz@@YAHPAUedict_s@@PBDMMHHHH@Z 100f3430 f   sound.obj
 0001:000f24d0       ?SENTENCEG_Stop@@YAXPAUedict_s@@HH@Z 100f34d0 f   sound.obj
 0001:000f25c0       ?SENTENCEG_Lookup@@YAHPBDPAD@Z 100f35c0 f   sound.obj
 0001:000f2710       ?TEXTURETYPE_Init@@YAXXZ   100f3710 f   sound.obj
 0001:000f2970       ?TEXTURETYPE_Find@@YADPAD@Z 100f3970 f   sound.obj
 0001:000f29c0       ?TEXTURETYPE_PlaySound@@YAMPAUTraceResult@@VVector@@1H@Z 100f39c0 f   sound.obj
 0001:000f2ee0       ?Save@CSpeaker@@UAEHAAVCSave@@@Z 100f3ee0 f   sound.obj
 0001:000f2f20       ?Restore@CSpeaker@@UAEHAAVCRestore@@@Z 100f3f20 f   sound.obj
 0001:000f2f60       ?Precache@CSpeaker@@UAEXXZ 100f3f60 f   sound.obj
 0001:000f2fe0       ?SpeakerThink@CSpeaker@@QAEXXZ 100f3fe0 f   sound.obj
 0001:000f32b0       ?ToggleUse@CSpeaker@@QAEXPAVCBaseEntity@@0W4USE_TYPE@@M@Z 100f42b0 f   sound.obj
 0001:000f3340       ?KeyValue@CSpeaker@@UAEXPAUKeyValueData_s@@@Z 100f4340 f   sound.obj
 0001:000f33b0       ??0CAmbientGeneric@@QAE@XZ 100f43b0 f i sound.obj
 0001:000f33d0       ?ObjectCaps@CAmbientGeneric@@UAEHXZ 100f43d0 f i sound.obj
 0001:000f33e0       ??0CEnvSound@@QAE@XZ       100f43e0 f i sound.obj
 0001:000f3400       ??0CSpeaker@@QAE@XZ        100f4400 f i sound.obj
 0001:000f3420       ?ObjectCaps@CSpeaker@@UAEHXZ 100f4420 f i sound.obj
 0001:000f3430       ?Spawn@CAmbientGeneric@@UAEXXZ 100f4430 f   sound.obj
 0001:000f3560       ?Precache@CAmbientGeneric@@UAEXXZ 100f4560 f   sound.obj
 0001:000f3640       ?SENTENCEG_Init@@YAXXZ     100f4640 f   sound.obj
 0001:000f3ad0       ?Spawn@CSpeaker@@UAEXXZ    100f4ad0 f   sound.obj
 0001:000f3bf0       ??$GetClassPtr@VCAmbientGeneric@@@@YAPAVCAmbientGeneric@@PAV0@@Z 100f4bf0 f i sound.obj
 0001:000f3ca0       ??$GetClassPtr@VCEnvSound@@@@YAPAVCEnvSound@@PAV0@@Z 100f4ca0 f i sound.obj
 0001:000f3d50       ??$GetClassPtr@VCSpeaker@@@@YAPAVCSpeaker@@PAV0@@Z 100f4d50 f i sound.obj
 0001:000f3e00       _ambient_generic           100f4e00 f   sound.obj
 0001:000f3e10       _env_sound                 100f4e10 f   sound.obj
 0001:000f3e20       ?FEnvSoundInRange@@YAHPAUentvars_s@@0PAM@Z 100f4e20 f   sound.obj
 0001:000f3f40       ?Think@CEnvSound@@UAEXXZ   100f4f40 f   sound.obj
 0001:000f40f0       _speaker                   100f50f0 f   sound.obj
 0001:000f4100       ?Clear@CSound@@QAEXXZ      100f5100 f   soundent.obj
 0001:000f4130       ?Reset@CSound@@QAEXXZ      100f5130 f   soundent.obj
 0001:000f4160       ?FIsSound@CSound@@QAEHXZ   100f5160 f   soundent.obj
 0001:000f4170       ?FIsScent@CSound@@QAEHXZ   100f5170 f   soundent.obj
 0001:000f4180       ??0CSound@@QAE@XZ          100f5180 f   soundent.obj
 0001:000f4190       ?setCanListenCheck@CSound@@QAEXP6AHPAVCBaseEntity@@@Z@Z 100f5190 f   soundent.obj
 0001:000f41a0       ?Precache@CSoundEnt@@UAEXXZ 100f51a0 f   soundent.obj
 0001:000f41b0       ?FreeSound@CSoundEnt@@SAXHH@Z 100f51b0 f   soundent.obj
 0001:000f4220       ?IAllocSound@CSoundEnt@@QAEHXZ 100f5220 f   soundent.obj
 0001:000f4270       ?InsertSound@CSoundEnt@@SAPAVCSound@@HABVVector@@HM@Z 100f5270 f   soundent.obj
 0001:000f4340       ?Initialize@CSoundEnt@@QAEXXZ 100f5340 f   soundent.obj
 0001:000f4410       ?ISoundsInList@CSoundEnt@@QAEHH@Z 100f5410 f   soundent.obj
 0001:000f4470       ?ActiveList@CSoundEnt@@SAHXZ 100f5470 f   soundent.obj
 0001:000f4490       ?FreeList@CSoundEnt@@SAHXZ 100f5490 f   soundent.obj
 0001:000f44b0       ?SoundPointerForIndex@CSoundEnt@@SAPAVCSound@@H@Z 100f54b0 f   soundent.obj
 0001:000f4500       ?ClientSoundIndex@CSoundEnt@@SAHPAUedict_s@@@Z 100f5500 f   soundent.obj
 0001:000f4520       ?Spawn@CSoundEnt@@UAEXXZ   100f5520 f   soundent.obj
 0001:000f4560       ?Think@CSoundEnt@@UAEXXZ   100f5560 f   soundent.obj
 0001:000f4640       ??0CSoundEnt@@QAE@XZ       100f5640 f i soundent.obj
 0001:000f4670       ?ObjectCaps@CSoundEnt@@UAEHXZ 100f5670 f i soundent.obj
 0001:000f4680       ??$GetClassPtr@VCSoundEnt@@@@YAPAVCSoundEnt@@PAV0@@Z 100f5680 f i soundent.obj
 0001:000f4720       _soundent                  100f5720 f   soundent.obj
 0001:000f4730       ?SpectatorConnect@CBaseSpectator@@QAEXXZ 100f5730 f   spectator.obj
 0001:000f4760       ?SpectatorDisconnect@CBaseSpectator@@QAEXXZ 100f5760 f   spectator.obj
 0001:000f4770       ?SpectatorImpulseCommand@CBaseSpectator@@AAEXXZ 100f5770 f   spectator.obj
 0001:000f4870       ?SpectatorThink@CBaseSpectator@@QAEXXZ 100f5870 f   spectator.obj
 0001:000f48c0       ?Spawn@CBaseSpectator@@UAEXXZ 100f58c0 f   spectator.obj
 0001:000f48f0       ?Save@CSquadMonster@@UAEHAAVCSave@@@Z 100f58f0 f   squadmonster.obj
 0001:000f4930       ?Restore@CSquadMonster@@UAEHAAVCRestore@@@Z 100f5930 f   squadmonster.obj
 0001:000f4970       ?SetActivity@CSquadMonster@@UAEXW4Activity@@@Z 100f5970 f   squadmonster.obj
 0001:000f4980       ?VacateSlot@CSquadMonster@@QAEXXZ 100f5980 f   squadmonster.obj
 0001:000f49d0       ?ScheduleChange@CSquadMonster@@UAEXXZ 100f59d0 f   squadmonster.obj
 0001:000f49e0       ?SquadRemove@CSquadMonster@@QAEXPAV1@@Z 100f59e0 f   squadmonster.obj
 0001:000f4aa0       ?SquadAdd@CSquadMonster@@QAEHPAV1@@Z 100f5aa0 f   squadmonster.obj
 0001:000f4b30       ?SquadPasteEnemyInfo@CSquadMonster@@QAEXXZ 100f5b30 f   squadmonster.obj
 0001:000f4b70       ?SquadCopyEnemyInfo@CSquadMonster@@QAEXXZ 100f5b70 f   squadmonster.obj
 0001:000f4bb0       ?SquadMakeEnemy@CSquadMonster@@QAEXPAVCBaseEntity@@@Z 100f5bb0 f   squadmonster.obj
 0001:000f4cc0       ?SquadCount@CSquadMonster@@QAEHXZ 100f5cc0 f   squadmonster.obj
 0001:000f4d30       ?SquadRecruit@CSquadMonster@@UAEHHH@Z 100f5d30 f   squadmonster.obj
 0001:000f5010       ?CheckEnemy@CSquadMonster@@UAEHPAVCBaseEntity@@@Z 100f6010 f   squadmonster.obj
 0001:000f5090       ??0CSquadMonster@@QAE@XZ   100f6090 f   squadmonster.obj
 0001:000f50c0       ?ChangeLeader@CSquadMonster@@QAEXPAV1@0@Z 100f60c0 f   squadmonster.obj
 0001:000f5170       ?checkLeaderlessSquadByNetname@CSquadMonster@@QAEHXZ 100f6170 f   squadmonster.obj
 0001:000f5260       ?StartMonster@CSquadMonster@@UAEXXZ 100f6260 f   squadmonster.obj
 0001:000f5560       ?NoFriendlyFire@CSquadMonster@@QAEHXZ 100f6560 f   squadmonster.obj
 0001:000f57d0       ?GetIdealState@CSquadMonster@@UAE?AW4MONSTERSTATE@@XZ 100f67d0 f   squadmonster.obj
 0001:000f5820       ?SquadEnemySplit@CSquadMonster@@QAEHXZ 100f6820 f   squadmonster.obj
 0001:000f58d0       ?SquadMemberInRange@CSquadMonster@@QAEHABVVector@@M@Z 100f68d0 f   squadmonster.obj
 0001:000f5990       ?GetScheduleOfType@CSquadMonster@@UAEPAUSchedule_t@@H@Z 100f6990 f   squadmonster.obj
 0001:000f59b0       ?TraceAttack@CSquadMonster@@UAEXPAUentvars_s@@MVVector@@PAUTraceResult@@H@Z 100f69b0 f   squadmonster.obj
 0001:000f59f0       ?TraceAttack@CSquadMonster@@UAEXPAUentvars_s@@MVVector@@PAUTraceResult@@HH@Z 100f69f0 f   squadmonster.obj
 0001:000f5a30       ?TraceAttack@CSquadMonster@@UAEXPAUentvars_s@@MVVector@@PAUTraceResult@@HHH@Z 100f6a30 f   squadmonster.obj
 0001:000f5a70       ?TraceAttack@CSquadMonster@@UAEXPAUentvars_s@@MVVector@@PAUTraceResult@@HHHPAH@Z 100f6a70 f   squadmonster.obj
 0001:000f5ac0       ?TakeDamage@CSquadMonster@@UAEHPAUentvars_s@@0MH@Z 100f6ac0 f   squadmonster.obj
 0001:000f5af0       ?TakeDamage@CSquadMonster@@UAEHPAUentvars_s@@0MHH@Z 100f6af0 f   squadmonster.obj
 0001:000f5b20       ?Activate@CSquadMonster@@UAEXXZ 100f6b20 f   squadmonster.obj
 0001:000f5b30       ?Spawn@CSquadMonster@@UAEXXZ 100f6b30 f   squadmonster.obj
 0001:000f5b40       ?getGermanModel@CSquadMonster@@UAEPBDXZ 100f6b40 f   squadmonster.obj
 0001:000f5b50       ?getNormalModel@CSquadMonster@@UAEPBDXZ 100f6b50 f   squadmonster.obj
 0001:000f5b60       ?setModel@CSquadMonster@@UAEXPBD@Z 100f6b60 f   squadmonster.obj
 0001:000f5b70       ?OccupySlot@CSquadMonster@@QAEHH@Z 100f6b70 f   squadmonster.obj
 0001:000f5c10       ?Killed@CSquadMonster@@UAEXPAUentvars_s@@0H@Z 100f6c10 f   squadmonster.obj
 0001:000f5c70       ?SquadJoin@CSquadMonster@@UAEXHH@Z 100f6c70 f   squadmonster.obj
 0001:000f6160       ?FValidateCover@CSquadMonster@@UAEHABVVector@@@Z 100f7160 f   squadmonster.obj
 0001:000f61a0       ?setModel@CSquadMonster@@UAEXXZ 100f71a0 f   squadmonster.obj
 0001:000f61b0       ?Killed@CSquadMonster@@UAEXPAUentvars_s@@H@Z 100f71b0 f   squadmonster.obj
 0001:000f61d0       ?Save@CSqueakGrenade@@UAEHAAVCSave@@@Z 100f71d0 f   squeakgrenade.obj
 0001:000f6210       ?Restore@CSqueakGrenade@@UAEHAAVCRestore@@@Z 100f7210 f   squeakgrenade.obj
 0001:000f6250       ?Classify@CSqueakGrenade@@UAEHXZ 100f7250 f   squeakgrenade.obj
 0001:000f62b0       ?usesSoundSentenceSave@CSqueakGrenade@@UAEHXZ 100f72b0 f   squeakgrenade.obj
 0001:000f62c0       ?Precache@CSqueakGrenade@@UAEXXZ 100f72c0 f   squeakgrenade.obj
 0001:000f6320       ?setModel@CSqueakGrenade@@UAEXPBD@Z 100f7320 f   squeakgrenade.obj
 0001:000f6330       ?Killed@CSqueakGrenade@@UAEXPAUentvars_s@@0H@Z 100f7330 f   squeakgrenade.obj
 0001:000f6490       ?GibMonster@CSqueakGrenade@@UAEXH@Z 100f7490 f   squeakgrenade.obj
 0001:000f64d0       ?isOrganic@CSqueakGrenade@@UAEHXZ 100f74d0 f   squeakgrenade.obj
 0001:000f64e0       ??0CSqueak@@QAE@XZ         100f74e0 f   squeakgrenade.obj
 0001:000f6500       ?iItemSlot@CSqueak@@UAEHXZ 100f7500 f i squeakgrenade.obj
 0001:000f6510       ?UseDecrement@CSqueak@@UAEHXZ 100f7510 f i squeakgrenade.obj
 0001:000f6520       ?customAttachToPlayer@CSqueak@@UAEXPAVCBasePlayer@@@Z 100f7520 f   squeakgrenade.obj
 0001:000f6540       ?GetPickupWalkerName@CSqueak@@UAEPBDXZ 100f7540 f   squeakgrenade.obj
 0001:000f6550       ?Spawn@CSqueak@@UAEXXZ     100f7550 f   squeakgrenade.obj
 0001:000f65d0       ?Precache@CSqueak@@UAEXXZ  100f75d0 f   squeakgrenade.obj
 0001:000f6640       ?setModel@CSqueak@@UAEXPBD@Z 100f7640 f   squeakgrenade.obj
 0001:000f6650       ?GetItemInfo@CSqueak@@UAEHPAUItemInfo@@@Z 100f7650 f   squeakgrenade.obj
 0001:000f66c0       ?Deploy@CSqueak@@UAEHXZ    100f76c0 f   squeakgrenade.obj
 0001:000f6790       ?Holster@CSqueak@@UAEXH@Z  100f7790 f   squeakgrenade.obj
 0001:000f6860       ?randomIdleAnimationDelay@CSqueak@@UAEMXZ 100f7860 f   squeakgrenade.obj
 0001:000f6870       ?PrimaryAttack@CSqueak@@UAEXXZ 100f7870 f   squeakgrenade.obj
 0001:000f6bd0       ?SecondaryAttack@CSqueak@@UAEXXZ 100f7bd0 f   squeakgrenade.obj
 0001:000f6be0       ?ItemPostFrame@CSqueak@@UAEXXZ 100f7be0 f   squeakgrenade.obj
 0001:000f6c40       ?WeaponIdle@CSqueak@@UAEXXZ 100f7c40 f   squeakgrenade.obj
 0001:000f6df0       ??$GetClassPtr@VCSqueak@@@@YAPAVCSqueak@@PAV0@@Z 100f7df0 f i squeakgrenade.obj
 0001:000f6e90       ??0CSqueakGrenade@@QAE@XZ  100f7e90 f   squeakgrenade.obj
 0001:000f6eb0       ?BloodColor@CSqueakGrenade@@UAEHXZ 100f7eb0 f i squeakgrenade.obj
 0001:000f6ec0       ?setModel@CSqueakGrenade@@UAEXXZ 100f7ec0 f   squeakgrenade.obj
 0001:000f6ed0       ?Killed@CSqueakGrenade@@UAEXPAUentvars_s@@H@Z 100f7ed0 f   squeakgrenade.obj
 0001:000f6ef0       ?GibMonster@CSqueakGrenade@@UAEXXZ 100f7ef0 f   squeakgrenade.obj
 0001:000f6f00       ?HuntThink@CSqueakGrenade@@QAEXXZ 100f7f00 f   squeakgrenade.obj
 0001:000f7410       ?SuperBounceTouch@CSqueakGrenade@@QAEXPAVCBaseEntity@@@Z 100f8410 f   squeakgrenade.obj
 0001:000f77b0       _weapon_snark              100f87b0 f   squeakgrenade.obj
 0001:000f77c0       ?setModel@CSqueak@@UAEXXZ  100f87c0 f   squeakgrenade.obj
 0001:000f77d0       ??$GetClassPtr@VCSqueakGrenade@@@@YAPAVCSqueakGrenade@@PAV0@@Z 100f87d0 f i squeakgrenade.obj
 0001:000f7870       _monster_snark             100f8870 f   squeakgrenade.obj
 0001:000f7880       _snark                     100f8880 f   squeakgrenade.obj
 0001:000f7890       ?Spawn@CSqueakGrenade@@UAEXXZ 100f8890 f   squeakgrenade.obj
 0001:000f7a20       ?Spawn@CPointEntity@@UAEXXZ 100f8a20 f   subs.obj
 0001:000f7a30       ??0CPointEntity@@QAE@XZ    100f8a30 f   subs.obj
 0001:000f7a50       ??0CNullEntity@@QAE@XZ     100f8a50 f   subs.obj
 0001:000f7a70       ?Spawn@CNullEntity@@UAEXXZ 100f8a70 f   subs.obj
 0001:000f7a90       ?KeyValue@CBaseDMStart@@UAEXPAUKeyValueData_s@@@Z 100f8a90 f   subs.obj
 0001:000f7b00       ?IsTriggered@CBaseDMStart@@UAEHPAVCBaseEntity@@@Z 100f8b00 f   subs.obj
 0001:000f7b20       ?UpdateOnRemove@CBaseEntity@@QAEXXZ 100f8b20 f   subs.obj
 0001:000f7b80       ?SUB_Remove@CBaseEntity@@QAEXXZ 100f8b80 f   subs.obj
 0001:000f7bd0       ?SUB_DoNothing@CBaseEntity@@QAEXXZ 100f8bd0 f   subs.obj
 0001:000f7be0       ?Save@CBaseDelay@@UAEHAAVCSave@@@Z 100f8be0 f   subs.obj
 0001:000f7c20       ?PostRestore@CBaseDelay@@QAEXXZ 100f8c20 f   subs.obj
 0001:000f7c30       ?KeyValue@CBaseDelay@@UAEXPAUKeyValueData_s@@@Z 100f8c30 f   subs.obj
 0001:000f7cf0       ?FireTargets@@YAXPBDPAVCBaseEntity@@1W4USE_TYPE@@M@Z 100f8cf0 f   subs.obj
 0001:000f7da0       ?FireTargetsTest@@YAXPBDPAVCBaseEntity@@1W4USE_TYPE@@M@Z 100f8da0 f   subs.obj
 0001:000f7e50       ?SetMovedir@@YAXPAUentvars_s@@@Z 100f8e50 f   subs.obj
 0001:000f7f30       ?Save@CBaseToggle@@UAEHAAVCSave@@@Z 100f8f30 f   subs.obj
 0001:000f7f70       ?PostRestore@CBaseToggle@@QAEXXZ 100f8f70 f   subs.obj
 0001:000f7f80       ?KeyValue@CBaseToggle@@UAEXPAUKeyValueData_s@@@Z 100f8f80 f   subs.obj
 0001:000f80c0       ?LinearMoveDone@CBaseToggle@@QAEXXZ 100f90c0 f   subs.obj
 0001:000f8120       ?IsLockedByMaster@CBaseToggle@@QAEHXZ 100f9120 f   subs.obj
 0001:000f8160       ?AngularMoveDone@CBaseToggle@@QAEXXZ 100f9160 f   subs.obj
 0001:000f81c0       ?AxisValue@CBaseToggle@@SAMHABVVector@@@Z 100f91c0 f   subs.obj
 0001:000f81f0       ?AxisDir@CBaseToggle@@SAXPAUentvars_s@@@Z 100f91f0 f   subs.obj
 0001:000f8260       ?AxisDelta@CBaseToggle@@SAMHABVVector@@0@Z 100f9260 f   subs.obj
 0001:000f82b0       ??$GetClassPtr@VCNullEntity@@@@YAPAVCNullEntity@@PAV0@@Z 100f92b0 f i subs.obj
 0001:000f8350       ??0CBaseDMStart@@QAE@XZ    100f9350 f i subs.obj
 0001:000f8370       _info_null                 100f9370 f   subs.obj
 0001:000f8380       _info_player_start         100f9380 f   subs.obj
 0001:000f8390       _info_landmark             100f9390 f   subs.obj
 0001:000f83a0       ?Restore@CBaseDelay@@UAEHAAVCRestore@@@Z 100f93a0 f   subs.obj
 0001:000f83e0       ?SUB_UseTargets@CBaseEntity@@QAEXPAV1@W4USE_TYPE@@M@Z 100f93e0 f   subs.obj
 0001:000f8420       ?Restore@CBaseToggle@@UAEHAAVCRestore@@@Z 100f9420 f   subs.obj
 0001:000f8460       ?LinearMove@CBaseToggle@@QAEXVVector@@M@Z 100f9460 f   subs.obj
 0001:000f8570       ?AngularMove@CBaseToggle@@QAEXVVector@@M@Z 100f9570 f   subs.obj
 0001:000f8680       ?FEntIsVisible@@YAHPAUentvars_s@@0@Z 100f9680 f   subs.obj
 0001:000f8720       ??$GetClassPtr@VCBaseDMStart@@@@YAPAVCBaseDMStart@@PAV0@@Z 100f9720 f i subs.obj
 0001:000f87d0       ??$GetClassPtr@VCBaseDelay@@@@YAPAVCBaseDelay@@PAV0@@Z 100f97d0 f i subs.obj
 0001:000f8880       _info_player_deathmatch    100f9880 f   subs.obj
 0001:000f8890       _DelayedUse                100f9890 f   subs.obj
 0001:000f88a0       ?SUB_UseTargets@CBaseDelay@@QAEXPAVCBaseEntity@@W4USE_TYPE@@M@Z 100f98a0 f   subs.obj
 0001:000f8a80       ?DelayThink@CBaseDelay@@QAEXXZ 100f9a80 f   subs.obj
 0001:000f8ac0       ?StopTalking@CTalkMonster@@QAEXXZ 100f9ac0 f i talkmonster.obj
 0001:000f8ad0       ?Save@CTalkMonster@@UAEHAAVCSave@@@Z 100f9ad0 f   talkmonster.obj
 0001:000f8b10       ?Restore@CTalkMonster@@UAEHAAVCRestore@@@Z 100f9b10 f   talkmonster.obj
 0001:000f8b80       ?getMadSentencesMax@CTalkMonster@@UAEHXZ 100f9b80 f   talkmonster.obj
 0001:000f8b90       ?getMadInterSentencesMax@CTalkMonster@@UAEHXZ 100f9b90 f   talkmonster.obj
 0001:000f8ba0       ?ScheduleFromName@CTalkMonster@@UAEPAUSchedule_t@@PBD@Z 100f9ba0 f   talkmonster.obj
 0001:000f8bd0       ?Activate@CTalkMonster@@UAEXXZ 100f9bd0 f   talkmonster.obj
 0001:000f8be0       ?Spawn@CTalkMonster@@UAEXXZ 100f9be0 f   talkmonster.obj
 0001:000f8c20       ?getGermanModelRequirement@CTalkMonster@@UAEHXZ 100f9c20 f   talkmonster.obj
 0001:000f8c30       ?getGermanModel@CTalkMonster@@UAEPBDXZ 100f9c30 f   talkmonster.obj
 0001:000f8c40       ?getNormalModel@CTalkMonster@@UAEPBDXZ 100f9c40 f   talkmonster.obj
 0001:000f8c50       ?setModel@CTalkMonster@@UAEXPBD@Z 100f9c50 f   talkmonster.obj
 0001:000f8c60       ?TargetDistance@CTalkMonster@@QAEMXZ 100f9c60 f   talkmonster.obj
 0001:000f8d00       ?TalkInit@CTalkMonster@@QAEXXZ 100f9d00 f   talkmonster.obj
 0001:000f8d20       ?FindNearestFriend@CTalkMonster@@QAEPAVCBaseEntity@@H@Z 100f9d20 f   talkmonster.obj
 0001:000f8f80       ?GetVoicePitch@CTalkMonster@@QAEHXZ 100f9f80 f   talkmonster.obj
 0001:000f8fb0       ?IdleRespond@CTalkMonster@@QAEXXZ 100f9fb0 f   talkmonster.obj
 0001:000f9020       ?FOkToSpeak@CTalkMonster@@QAEHXZ 100fa020 f   talkmonster.obj
 0001:000f90d0       ?FOkToSpeakAllowCombat@CTalkMonster@@QAEHM@Z 100fa0d0 f   talkmonster.obj
 0001:000f9240       ?CanPlaySentence@CTalkMonster@@UAEHH@Z 100fa240 f   talkmonster.obj
 0001:000f9260       ?FIdleStare@CTalkMonster@@QAEHXZ 100fa260 f   talkmonster.obj
 0001:000f92f0       ?FIdleHello@CTalkMonster@@QAEHXZ 100fa2f0 f   talkmonster.obj
 0001:000f9430       ?IdleHeadTurn@CTalkMonster@@QAEXAAVVector@@@Z 100fa430 f   talkmonster.obj
 0001:000f9500       ?Talk@CTalkMonster@@QAEXM@Z 100fa500 f   talkmonster.obj
 0001:000f9540       ?SetAnswerQuestion@CTalkMonster@@UAEXPAV1@@Z 100fa540 f   talkmonster.obj
 0001:000f9570       ?DeclineFollowingProvoked@CTalkMonster@@UAEXPAVCBaseEntity@@@Z 100fa570 f   talkmonster.obj
 0001:000f9580       ?SayProvoked@CTalkMonster@@UAEXXZ 100fa580 f   talkmonster.obj
 0001:000f9590       ?SaySuspicious@CTalkMonster@@UAEXXZ 100fa590 f   talkmonster.obj
 0001:000f95a0       ?SayLeaderDied@CTalkMonster@@UAEXXZ 100fa5a0 f   talkmonster.obj
 0001:000f95b0       ?TraceAttack@CTalkMonster@@UAEXPAUentvars_s@@MVVector@@PAUTraceResult@@HHHPAH@Z 100fa5b0 f   talkmonster.obj
 0001:000f9600       ?TakeDamage@CTalkMonster@@UAEHPAUentvars_s@@0MHH@Z 100fa600 f   talkmonster.obj
 0001:000f9830       ?IsTalking@CTalkMonster@@QAEHXZ 100fa830 f   talkmonster.obj
 0001:000f9850       ??0CTalkMonster@@QAE@XZ    100fa850 f   talkmonster.obj
 0001:000f98c0       ?DeclineFollowing@CTalkMonster@@UAEXXZ 100fa8c0 f i talkmonster.obj
 0001:000f98d0       ?MonsterThink@CTalkMonster@@UAEXXZ 100fa8d0 f   talkmonster.obj
 0001:000f9af0       ?PrescheduleThink@CTalkMonster@@UAEXXZ 100faaf0 f   talkmonster.obj
 0001:000f9b10       ?TrySmellTalk@CTalkMonster@@QAEXXZ 100fab10 f   talkmonster.obj
 0001:000f9bc0       ?IRelationship@CTalkMonster@@UAEHPAVCBaseEntity@@@Z 100fabc0 f   talkmonster.obj
 0001:000f9c10       ?StopFollowing@CTalkMonster@@QAEXHH@Z 100fac10 f   talkmonster.obj
 0001:000f9d30       ?StartFollowing@CTalkMonster@@UAEXPAVCBaseEntity@@@Z 100fad30 f   talkmonster.obj
 0001:000f9e10       ?playPissed@CTalkMonster@@UAEXXZ 100fae10 f   talkmonster.obj
 0001:000f9f60       ?playInterPissed@CTalkMonster@@UAEXXZ 100faf60 f   talkmonster.obj
 0001:000fa040       ?CanFollow@CTalkMonster@@QAEHXZ 100fb040 f   talkmonster.obj
 0001:000fa0d0       ?KeyValue@CTalkMonster@@UAEXPAUKeyValueData_s@@@Z 100fb0d0 f   talkmonster.obj
 0001:000fa190       ?Precache@CTalkMonster@@UAEXXZ 100fb190 f   talkmonster.obj
 0001:000fa1d0       ?isTalkMonster@CTalkMonster@@UAEHXZ 100fb1d0 f   talkmonster.obj
 0001:000fa1e0       ?forgetHealNPC@CTalkMonster@@UAEXXZ 100fb1e0 f   talkmonster.obj
 0001:000fa1f0       ?ReportAIState@CTalkMonster@@UAEXXZ 100fb1f0 f   talkmonster.obj
 0001:000fa210       ?SetActivity@CTalkMonster@@UAEXW4Activity@@@Z 100fb210 f   talkmonster.obj
 0001:000fa260       ?setModel@CTalkMonster@@UAEXXZ 100fb260 f   talkmonster.obj
 0001:000fa270       ?EnumFriends@CTalkMonster@@QAEPAVCBaseEntity@@PAV2@HH@Z 100fb270 f   talkmonster.obj
 0001:000fa350       ?AlertFriends@CTalkMonster@@QAEXXZ 100fb350 f   talkmonster.obj
 0001:000fa3c0       ?ShutUpFriends@CTalkMonster@@QAEXXZ 100fb3c0 f   talkmonster.obj
 0001:000fa420       ?LimitFollowers@CTalkMonster@@QAEXPAVCBaseEntity@@H@Z 100fb420 f   talkmonster.obj
 0001:000fa4b0       ?HandleAnimEvent@CTalkMonster@@UAEXPAUMonsterEvent_t@@@Z 100fb4b0 f   talkmonster.obj
 0001:000fa540       ?Touch@CTalkMonster@@UAEXPAVCBaseEntity@@@Z 100fb540 f   talkmonster.obj
 0001:000fa5f0       ?FIdleSpeak@CTalkMonster@@QAEHXZ 100fb5f0 f   talkmonster.obj
 0001:000fa990       ?PlayScriptedSentence@CTalkMonster@@UAEXPBDMMMHPAVCBaseEntity@@@Z 100fb990 f   talkmonster.obj
 0001:000faa00       ?PlaySentence@CTalkMonster@@UAEXPBDMMM@Z 100fba00 f   talkmonster.obj
 0001:000faab0       ?TraceAttack@CTalkMonster@@UAEXPAUentvars_s@@MVVector@@PAUTraceResult@@H@Z 100fbab0 f   talkmonster.obj
 0001:000faaf0       ?TraceAttack@CTalkMonster@@UAEXPAUentvars_s@@MVVector@@PAUTraceResult@@HH@Z 100fbaf0 f   talkmonster.obj
 0001:000fab30       ?TraceAttack@CTalkMonster@@UAEXPAUentvars_s@@MVVector@@PAUTraceResult@@HHH@Z 100fbb30 f   talkmonster.obj
 0001:000fab70       ?TakeDamage@CTalkMonster@@UAEHPAUentvars_s@@0MH@Z 100fbb70 f   talkmonster.obj
 0001:000faba0       ?GetScheduleOfType@CTalkMonster@@UAEPAUSchedule_t@@H@Z 100fbba0 f   talkmonster.obj
 0001:000faf40       ?StopFollowing@CTalkMonster@@UAEXH@Z 100fbf40 f   talkmonster.obj
 0001:000faf60       ?FollowerUse@CTalkMonster@@QAEXPAVCBaseEntity@@0W4USE_TYPE@@M@Z 100fbf60 f   talkmonster.obj
 0001:000fb040       ?StartTask@CTalkMonster@@UAEXPAUTask_t@@@Z 100fc040 f   talkmonster.obj
 0001:000fb590       ?RunTask@CTalkMonster@@UAEXPAUTask_t@@@Z 100fc590 f   talkmonster.obj
 0001:000fbb10       ?Killed@CTalkMonster@@UAEXPAUentvars_s@@0H@Z 100fcb10 f   talkmonster.obj
 0001:000fbbd0       ?Killed@CTalkMonster@@UAEXPAUentvars_s@@H@Z 100fcbd0 f   talkmonster.obj
 0001:000fbbf0       ?Think@CHalfLifeTeamplay@@UAEXXZ 100fcbf0 f   teamplay_gamerules.obj
 0001:000fbd80       ?ClientCommand@CHalfLifeTeamplay@@UAEHPAVCBasePlayer@@PBD@Z 100fcd80 f   teamplay_gamerules.obj
 0001:000fbe00       ?UpdateGameMode@CHalfLifeTeamplay@@UAEXPAVCBasePlayer@@@Z 100fce00 f   teamplay_gamerules.obj
 0001:000fbe40       ?ChangePlayerTeam@CHalfLifeTeamplay@@UAEXPAVCBasePlayer@@PBDHH@Z 100fce40 f   teamplay_gamerules.obj
 0001:000fbfc0       ?DeathNotice@CHalfLifeTeamplay@@UAEXPAVCBasePlayer@@PAUentvars_s@@1@Z 100fcfc0 f   teamplay_gamerules.obj
 0001:000fc080       ?IsTeamplay@CHalfLifeTeamplay@@UAEHXZ 100fd080 f   teamplay_gamerules.obj
 0001:000fc090       ?FPlayerCanTakeDamage@CHalfLifeTeamplay@@UAEHPAVCBasePlayer@@PAVCBaseEntity@@@Z 100fd090 f   teamplay_gamerules.obj
 0001:000fc0f0       ?PlayerRelationship@CHalfLifeTeamplay@@UAEHPAVCBaseEntity@@0@Z 100fd0f0 f   teamplay_gamerules.obj
 0001:000fc180       ?ShouldAutoAim@CHalfLifeTeamplay@@UAEHPAVCBasePlayer@@PAUedict_s@@@Z 100fd180 f   teamplay_gamerules.obj
 0001:000fc1e0       ?IPointsForKill@CHalfLifeTeamplay@@UAEHPAVCBasePlayer@@0@Z 100fd1e0 f   teamplay_gamerules.obj
 0001:000fc220       ?GetTeamID@CHalfLifeTeamplay@@UAEPBDPAVCBaseEntity@@@Z 100fd220 f   teamplay_gamerules.obj
 0001:000fc250       ?GetTeamIndex@CHalfLifeTeamplay@@UAEHPBD@Z 100fd250 f   teamplay_gamerules.obj
 0001:000fc2a0       ?GetIndexedTeamName@CHalfLifeTeamplay@@UAEPBDH@Z 100fd2a0 f   teamplay_gamerules.obj
 0001:000fc2d0       ?IsValidTeam@CHalfLifeTeamplay@@UAEHPBD@Z 100fd2d0 f   teamplay_gamerules.obj
 0001:000fc300       ?TeamWithFewestPlayers@CHalfLifeTeamplay@@AAEPBDXZ 100fd300 f   teamplay_gamerules.obj
 0001:000fc3f0       ?RecountTeams@CHalfLifeTeamplay@@AAEX_N@Z 100fd3f0 f   teamplay_gamerules.obj
 0001:000fc610       ??0CHalfLifeTeamplay@@QAE@XZ 100fd610 f   teamplay_gamerules.obj
 0001:000fc6f0       ?GetGameDescription@CHalfLifeTeamplay@@UAEPBDXZ 100fd6f0 f i teamplay_gamerules.obj
 0001:000fc700       ?SetDefaultPlayerTeam@CHalfLifeTeamplay@@UAEPBDPAVCBasePlayer@@@Z 100fd700 f   teamplay_gamerules.obj
 0001:000fc7d0       ?InitHUD@CHalfLifeTeamplay@@UAEXPAVCBasePlayer@@@Z 100fd7d0 f   teamplay_gamerules.obj
 0001:000fca20       ?ClientUserInfoChanged@CHalfLifeTeamplay@@UAEXPAVCBasePlayer@@PAD@Z 100fda20 f   teamplay_gamerules.obj
 0001:000fcc80       ?PlayerKilled@CHalfLifeTeamplay@@UAEXPAVCBasePlayer@@PAUentvars_s@@1@Z 100fdc80 f   teamplay_gamerules.obj
 0001:000fccb0       ?Save@CTentacle@@UAEHAAVCSave@@@Z 100fdcb0 f   tentacle.obj
 0001:000fccf0       ?Restore@CTentacle@@UAEHAAVCRestore@@@Z 100fdcf0 f   tentacle.obj
 0001:000fcd30       ?Classify@CTentacle@@UAEHXZ 100fdd30 f   tentacle.obj
 0001:000fcd40       ?Precache@CTentacle@@UAEXXZ 100fdd40 f   tentacle.obj
 0001:000fce60       ??0CTentacle@@QAE@XZ       100fde60 f   tentacle.obj
 0001:000fce90       ?ObjectCaps@CTentacle@@UAEHXZ 100fde90 f i tentacle.obj
 0001:000fcea0       ?SetObjectCollisionBox@CTentacle@@UAEXXZ 100fdea0 f i tentacle.obj
 0001:000fcf30       ?HearingSensitivity@CTentacle@@UAEMXZ 100fdf30 f i tentacle.obj
 0001:000fcf40       ?GetIdealState@CTentacle@@UAE?AW4MONSTERSTATE@@XZ 100fdf40 f i tentacle.obj
 0001:000fcf50       ?KeyValue@CTentacle@@UAEXPAUKeyValueData_s@@@Z 100fdf50 f   tentacle.obj
 0001:000fd020       ?Level@CTentacle@@QAEHM@Z  100fe020 f   tentacle.obj
 0001:000fd070       ?MyLevel@CTentacle@@QAEHXZ 100fe070 f   tentacle.obj
 0001:000fd0f0       ?Test@CTentacle@@QAEXXZ    100fe0f0 f   tentacle.obj
 0001:000fd140       ?DieThink@CTentacle@@QAEXXZ 100fe140 f   tentacle.obj
 0001:000fd310       ?TraceAttack@CTentacle@@UAEXPAUentvars_s@@MVVector@@PAUTraceResult@@HHHPAH@Z 100fe310 f   tentacle.obj
 0001:000fd360       ?TakeDamage@CTentacle@@UAEHPAUentvars_s@@0MHH@Z 100fe360 f   tentacle.obj
 0001:000fd3b0       ?Killed@CTentacle@@UAEXPAUentvars_s@@0H@Z 100fe3b0 f   tentacle.obj
 0001:000fd3c0       ??$GetClassPtr@VCTentacle@@@@YAPAVCTentacle@@PAV0@@Z 100fe3c0 f i tentacle.obj
 0001:000fd460       _monster_tentacle          100fe460 f   tentacle.obj
 0001:000fd470       _tentacle                  100fe470 f   tentacle.obj
 0001:000fd480       ?MyHeight@CTentacle@@QAEMXZ 100fe480 f   tentacle.obj
 0001:000fd4b0       ?Cycle@CTentacle@@QAEXXZ   100fe4b0 f   tentacle.obj
 0001:000fdf20       ?CommandUse@CTentacle@@QAEXPAVCBaseEntity@@0W4USE_TYPE@@M@Z 100fef20 f   tentacle.obj
 0001:000fdfa0       ?HandleAnimEvent@CTentacle@@UAEXPAUMonsterEvent_t@@@Z 100fefa0 f   tentacle.obj
 0001:000fe510       ?Start@CTentacle@@QAEXXZ   100ff510 f   tentacle.obj
 0001:000fe5c0       ?HitTouch@CTentacle@@QAEXPAVCBaseEntity@@@Z 100ff5c0 f   tentacle.obj
 0001:000fe670       ?TraceAttack@CTentacle@@UAEXPAUentvars_s@@MVVector@@PAUTraceResult@@H@Z 100ff670 f   tentacle.obj
 0001:000fe6b0       ?TraceAttack@CTentacle@@UAEXPAUentvars_s@@MVVector@@PAUTraceResult@@HH@Z 100ff6b0 f   tentacle.obj
 0001:000fe6f0       ?TraceAttack@CTentacle@@UAEXPAUentvars_s@@MVVector@@PAUTraceResult@@HHH@Z 100ff6f0 f   tentacle.obj
 0001:000fe730       ?TakeDamage@CTentacle@@UAEHPAUentvars_s@@0MH@Z 100ff730 f   tentacle.obj
 0001:000fe760       ?Killed@CTentacle@@UAEXPAUentvars_s@@H@Z 100ff760 f   tentacle.obj
 0001:000fe780       ?Spawn@CTentacle@@UAEXXZ   100ff780 f   tentacle.obj
 0001:000fe920       ?Save@CFrictionModifier@@UAEHAAVCSave@@@Z 100ff920 f   triggers.obj
 0001:000fe960       ?Restore@CFrictionModifier@@UAEHAAVCRestore@@@Z 100ff960 f   triggers.obj
 0001:000fe9a0       ?ChangeFriction@CFrictionModifier@@QAEXPAVCBaseEntity@@@Z 100ff9a0 f   triggers.obj
 0001:000fe9d0       ?KeyValue@CFrictionModifier@@UAEXPAUKeyValueData_s@@@Z 100ff9d0 f   triggers.obj
 0001:000fea40       ?Save@CAutoTrigger@@UAEHAAVCSave@@@Z 100ffa40 f   triggers.obj
 0001:000fea80       ?Restore@CAutoTrigger@@UAEHAAVCRestore@@@Z 100ffa80 f   triggers.obj
 0001:000feac0       ?KeyValue@CAutoTrigger@@UAEXPAUKeyValueData_s@@@Z 100ffac0 f   triggers.obj
 0001:000febc0       ?Spawn@CAutoTrigger@@UAEXXZ 100ffbc0 f   triggers.obj
 0001:000febd0       ?Precache@CAutoTrigger@@UAEXXZ 100ffbd0 f   triggers.obj
 0001:000fec00       ?Think@CAutoTrigger@@UAEXXZ 100ffc00 f   triggers.obj
 0001:000fec50       ?Save@CTriggerRelay@@UAEHAAVCSave@@@Z 100ffc50 f   triggers.obj
 0001:000fec90       ?Restore@CTriggerRelay@@UAEHAAVCRestore@@@Z 100ffc90 f   triggers.obj
 0001:000fecd0       ?KeyValue@CTriggerRelay@@UAEXPAUKeyValueData_s@@@Z 100ffcd0 f   triggers.obj
 0001:000fed70       ?Spawn@CTriggerRelay@@UAEXXZ 100ffd70 f   triggers.obj
 0001:000fed80       ?Use@CTriggerRelay@@UAEXPAVCBaseEntity@@0W4USE_TYPE@@M@Z 100ffd80 f   triggers.obj
 0001:000fedb0       ?IsClone@CMultiManager@@AAEHXZ 100ffdb0 f i triggers.obj
 0001:000fedc0       ?ShouldClone@CMultiManager@@AAEHXZ 100ffdc0 f i triggers.obj
 0001:000fede0       ?Save@CMultiManager@@UAEHAAVCSave@@@Z 100ffde0 f   triggers.obj
 0001:000fee20       ?Restore@CMultiManager@@UAEHAAVCRestore@@@Z 100ffe20 f   triggers.obj
 0001:000fee60       ?KeyValue@CMultiManager@@UAEXPAUKeyValueData_s@@@Z 100ffe60 f   triggers.obj
 0001:000fef50       ?HasTarget@CMultiManager@@UAEHH@Z 100fff50 f   triggers.obj
 0001:000fefe0       ?ManagerThink@CMultiManager@@QAEXXZ 100fffe0 f   triggers.obj
 0001:000ff0e0       ?Spawn@CRenderFxManager@@UAEXXZ 101000e0 f   triggers.obj
 0001:000ff0f0       ?Use@CRenderFxManager@@UAEXPAVCBaseEntity@@0W4USE_TYPE@@M@Z 101000f0 f   triggers.obj
 0001:000ff1e0       ?InitTrigger@CBaseTrigger@@QAEXXZ 101001e0 f   triggers.obj
 0001:000ff290       ?KeyValue@CBaseTrigger@@UAEXPAUKeyValueData_s@@@Z 10100290 f   triggers.obj
 0001:000ff3b0       ?Think@CTriggerMonsterJump@@UAEXXZ 101003b0 f   triggers.obj
 0001:000ff3e0       ?Touch@CTriggerMonsterJump@@UAEXPAVCBaseEntity@@@Z 101003e0 f   triggers.obj
 0001:000ff480       ?Spawn@CTriggerCDAudio@@UAEXXZ 10100480 f   triggers.obj
 0001:000ff490       ?PlayCDTrack@@YAXH@Z       10100490 f   triggers.obj
 0001:000ff530       ?PlayTrack@CTriggerCDAudio@@QAEXXZ 10100530 f   triggers.obj
 0001:000ff560       ?KeyValue@CTargetCDAudio@@UAEXPAUKeyValueData_s@@@Z 10100560 f   triggers.obj
 0001:000ff5d0       ?Spawn@CTargetCDAudio@@UAEXXZ 101005d0 f   triggers.obj
 0001:000ff620       ?Play@CTargetCDAudio@@QAEXXZ 10100620 f   triggers.obj
 0001:000ff650       ?ToggleUse@CBaseTrigger@@QAEXPAVCBaseEntity@@0W4USE_TYPE@@M@Z 10100650 f   triggers.obj
 0001:000ff6b0       ?HurtTouch@CBaseTrigger@@QAEXPAVCBaseEntity@@@Z 101006b0 f   triggers.obj
 0001:000ff8d0       ?MultiWaitOver@CBaseTrigger@@QAEXXZ 101008d0 f   triggers.obj
 0001:000ff8e0       ?Spawn@CTriggerVolume@@UAEXXZ 101008e0 f   triggers.obj
 0001:000ff930       ?Spawn@CFireAndDie@@UAEXXZ 10100930 f   triggers.obj
 0001:000ff950       ?Precache@CFireAndDie@@UAEXXZ 10100950 f   triggers.obj
 0001:000ff980       ?Think@CFireAndDie@@UAEXXZ 10100980 f   triggers.obj
 0001:000ff9a0       ?Save@CChangeLevel@@UAEHAAVCSave@@@Z 101009a0 f   triggers.obj
 0001:000ff9e0       ?Restore@CChangeLevel@@UAEHAAVCRestore@@@Z 101009e0 f   triggers.obj
 0001:000ffa20       ?KeyValue@CChangeLevel@@UAEXPAUKeyValueData_s@@@Z 10100a20 f   triggers.obj
 0001:000ffbc0       ?ExecuteChangeLevel@CChangeLevel@@QAEXXZ 10100bc0 f   triggers.obj
 0001:000ffc00       ?FindLandmark@CChangeLevel@@SAPAUedict_s@@PBD@Z 10100c00 f   triggers.obj
 0001:000ffca0       ??0LEVELLIST@@QAE@XZ       10100ca0 f i triggers.obj
 0001:000ffcb0       ?AddTransitionToList@CChangeLevel@@SAHPAULEVELLIST@@HPBD1PAUedict_s@@@Z 10100cb0 f   triggers.obj
 0001:000ffda0       ?InTransitionVolume@CChangeLevel@@SAHPAVCBaseEntity@@PAD@Z 10100da0 f   triggers.obj
 0001:000ffea0       ?KeyValue@CLadder@@UAEXPAUKeyValueData_s@@@Z 10100ea0 f   triggers.obj
 0001:000ffeb0       ?Precache@CLadder@@UAEXXZ  10100eb0 f   triggers.obj
 0001:000fff20       ?Spawn@CLadder@@UAEXXZ     10100f20 f   triggers.obj
 0001:000fff60       ?KeyValue@CTriggerPush@@UAEXPAUKeyValueData_s@@@Z 10100f60 f   triggers.obj
 0001:000fff70       ?Spawn@CTriggerPush@@UAEXXZ 10100f70 f   triggers.obj
 0001:00100010       ?Touch@CTriggerPush@@UAEXPAVCBaseEntity@@@Z 10101010 f   triggers.obj
 0001:00100160       ?TeleportTouch@CBaseTrigger@@QAEXPAVCBaseEntity@@@Z 10101160 f   triggers.obj
 0001:001002f0       ?Spawn@CTriggerTeleport@@UAEXXZ 101012f0 f   triggers.obj
 0001:00100310       ?SaveTouch@CTriggerSave@@QAEXPAVCBaseEntity@@@Z 10101310 f   triggers.obj
 0001:00100380       ?EndSectionUse@CTriggerEndSection@@QAEXPAVCBaseEntity@@0W4USE_TYPE@@M@Z 10101380 f   triggers.obj
 0001:001003e0       ?EndSectionTouch@CTriggerEndSection@@QAEXPAVCBaseEntity@@@Z 101013e0 f   triggers.obj
 0001:00100440       ?KeyValue@CTriggerEndSection@@UAEXPAUKeyValueData_s@@@Z 10101440 f   triggers.obj
 0001:001004b0       ?GravityTouch@CTriggerGravity@@QAEXPAVCBaseEntity@@@Z 101014b0 f   triggers.obj
 0001:001004f0       ?Save@CTriggerChangeTarget@@UAEHAAVCSave@@@Z 101014f0 f   triggers.obj
 0001:00100530       ?Restore@CTriggerChangeTarget@@UAEHAAVCRestore@@@Z 10101530 f   triggers.obj
 0001:00100570       ?KeyValue@CTriggerChangeTarget@@UAEXPAUKeyValueData_s@@@Z 10101570 f   triggers.obj
 0001:001005e0       ?Spawn@CTriggerChangeTarget@@UAEXXZ 101015e0 f   triggers.obj
 0001:001005f0       ?Use@CTriggerChangeTarget@@UAEXPAVCBaseEntity@@0W4USE_TYPE@@M@Z 101015f0 f   triggers.obj
 0001:00100650       ?Save@CTriggerCamera@@UAEHAAVCSave@@@Z 10101650 f   triggers.obj
 0001:00100690       ?Restore@CTriggerCamera@@UAEHAAVCRestore@@@Z 10101690 f   triggers.obj
 0001:001006d0       ?Spawn@CTriggerCamera@@UAEXXZ 101016d0 f   triggers.obj
 0001:00100750       ?KeyValue@CTriggerCamera@@UAEXPAUKeyValueData_s@@@Z 10101750 f   triggers.obj
 0001:00100890       ?Move@CTriggerCamera@@QAEXXZ 10101890 f   triggers.obj
 0001:00100b50       ??0CFrictionModifier@@QAE@XZ 10101b50 f i triggers.obj
 0001:00100b70       ?ObjectCaps@CFrictionModifier@@UAEHXZ 10101b70 f i triggers.obj
 0001:00100b80       ??0CRenderFxManager@@QAE@XZ 10101b80 f i triggers.obj
 0001:00100ba0       ??0CTargetCDAudio@@QAE@XZ  10101ba0 f i triggers.obj
 0001:00100bc0       ??0CTriggerVolume@@QAE@XZ  10101bc0 f i triggers.obj
 0001:00100be0       ?Spawn@CFrictionModifier@@UAEXXZ 10101be0 f   triggers.obj
 0001:00100c30       ?Spawn@CTriggerMonsterJump@@UAEXXZ 10101c30 f   triggers.obj
 0001:00100ca0       ?Touch@CTriggerCDAudio@@UAEXPAVCBaseEntity@@@Z 10101ca0 f   triggers.obj
 0001:00100ce0       ?Use@CTriggerCDAudio@@UAEXPAVCBaseEntity@@0W4USE_TYPE@@M@Z 10101ce0 f   triggers.obj
 0001:00100d00       ?Use@CTargetCDAudio@@UAEXPAVCBaseEntity@@0W4USE_TYPE@@M@Z 10101d00 f   triggers.obj
 0001:00100d20       ?Think@CTargetCDAudio@@UAEXXZ 10101d20 f   triggers.obj
 0001:00100dd0       ?RadiationThink@CTriggerHurt@@QAEXXZ 10101dd0 f   triggers.obj
 0001:00101040       ?ActivateMultiTrigger@CBaseTrigger@@QAEXPAVCBaseEntity@@@Z 10102040 f   triggers.obj
 0001:00101200       ?CounterUse@CBaseTrigger@@QAEXPAVCBaseEntity@@0W4USE_TYPE@@M@Z 10102200 f   triggers.obj
 0001:00101310       ?Spawn@CTriggerCounter@@UAEXXZ 10102310 f   triggers.obj
 0001:00101340       _info_teleport_destination 10102340 f   triggers.obj
 0001:00101350       ?Spawn@CTriggerSave@@UAEXXZ 10102350 f   triggers.obj
 0001:00101390       ?Spawn@CTriggerEndSection@@UAEXXZ 10102390 f   triggers.obj
 0001:001013f0       ?Spawn@CTriggerGravity@@UAEXXZ 101023f0 f   triggers.obj
 0001:00101410       ?FollowTarget@CTriggerCamera@@QAEXXZ 10102410 f   triggers.obj
 0001:001016c0       ??$GetClassPtr@VCFrictionModifier@@@@YAPAVCFrictionModifier@@PAV0@@Z 101026c0 f i triggers.obj
 0001:00101770       ??$GetClassPtr@VCRenderFxManager@@@@YAPAVCRenderFxManager@@PAV0@@Z 10102770 f i triggers.obj
 0001:00101820       ??$GetClassPtr@VCTargetCDAudio@@@@YAPAVCTargetCDAudio@@PAV0@@Z 10102820 f i triggers.obj
 0001:001018d0       ??$GetClassPtr@VCTriggerVolume@@@@YAPAVCTriggerVolume@@PAV0@@Z 101028d0 f i triggers.obj
 0001:00101980       ??0CAutoTrigger@@QAE@XZ    10102980 f i triggers.obj
 0001:001019a0       ?ObjectCaps@CAutoTrigger@@UAEHXZ 101029a0 f i triggers.obj
 0001:001019b0       ??0CTriggerRelay@@QAE@XZ   101029b0 f i triggers.obj
 0001:001019d0       ?ObjectCaps@CTriggerRelay@@UAEHXZ 101029d0 f i triggers.obj
 0001:001019e0       ??0CMultiManager@@QAE@XZ   101029e0 f i triggers.obj
 0001:00101a00       ?ObjectCaps@CMultiManager@@UAEHXZ 10102a00 f i triggers.obj
 0001:00101a10       ??0CBaseTrigger@@QAE@XZ    10102a10 f i triggers.obj
 0001:00101a30       ?ObjectCaps@CBaseTrigger@@UAEHXZ 10102a30 f i triggers.obj
 0001:00101a40       ??0CTriggerHurt@@QAE@XZ    10102a40 f i triggers.obj
 0001:00101a60       ??0CTriggerMonsterJump@@QAE@XZ 10102a60 f i triggers.obj
 0001:00101a80       ??0CTriggerCDAudio@@QAE@XZ 10102a80 f i triggers.obj
 0001:00101aa0       ??0CTriggerMultiple@@QAE@XZ 10102aa0 f i triggers.obj
 0001:00101ac0       ??0CTriggerOnce@@QAE@XZ    10102ac0 f i triggers.obj
 0001:00101ae0       ??0CTriggerCounter@@QAE@XZ 10102ae0 f i triggers.obj
 0001:00101b00       ??0CFireAndDie@@QAE@XZ     10102b00 f i triggers.obj
 0001:00101b20       ?ObjectCaps@CFireAndDie@@UAEHXZ 10102b20 f i triggers.obj
 0001:00101b30       ??0CChangeLevel@@QAE@XZ    10102b30 f i triggers.obj
 0001:00101b50       ??0CLadder@@QAE@XZ         10102b50 f i triggers.obj
 0001:00101b70       ??0CTriggerPush@@QAE@XZ    10102b70 f i triggers.obj
 0001:00101b90       ??0CTriggerTeleport@@QAE@XZ 10102b90 f i triggers.obj
 0001:00101bb0       ??0CTriggerSave@@QAE@XZ    10102bb0 f i triggers.obj
 0001:00101bd0       ??0CTriggerEndSection@@QAE@XZ 10102bd0 f i triggers.obj
 0001:00101bf0       ??0CTriggerGravity@@QAE@XZ 10102bf0 f i triggers.obj
 0001:00101c10       ??0CTriggerChangeTarget@@QAE@XZ 10102c10 f i triggers.obj
 0001:00101c30       ?ObjectCaps@CTriggerChangeTarget@@UAEHXZ 10102c30 f i triggers.obj
 0001:00101c40       ??0CTriggerCamera@@QAE@XZ  10102c40 f i triggers.obj
 0001:00101c60       ?ObjectCaps@CTriggerCamera@@UAEHXZ 10102c60 f i triggers.obj
 0001:00101c70       _func_friction             10102c70 f   triggers.obj
 0001:00101c80       _env_render                10102c80 f   triggers.obj
 0001:00101c90       _target_cdaudio            10102c90 f   triggers.obj
 0001:00101ca0       ?Spawn@CTriggerHurt@@UAEXXZ 10102ca0 f   triggers.obj
 0001:00101d50       ?MultiTouch@CBaseTrigger@@QAEXPAVCBaseEntity@@@Z 10102d50 f   triggers.obj
 0001:00101de0       _trigger_transition        10102de0 f   triggers.obj
 0001:00101df0       ?Use@CTriggerCamera@@UAEXPAVCBaseEntity@@0W4USE_TYPE@@M@Z 10102df0 f   triggers.obj
 0001:001020d0       ??$GetClassPtr@VCAutoTrigger@@@@YAPAVCAutoTrigger@@PAV0@@Z 101030d0 f i triggers.obj
 0001:00102180       ??$GetClassPtr@VCTriggerRelay@@@@YAPAVCTriggerRelay@@PAV0@@Z 10103180 f i triggers.obj
 0001:00102230       ??$GetClassPtr@VCMultiManager@@@@YAPAVCMultiManager@@PAV0@@Z 10103230 f i triggers.obj
 0001:001022e0       ??$GetClassPtr@VCBaseTrigger@@@@YAPAVCBaseTrigger@@PAV0@@Z 101032e0 f i triggers.obj
 0001:00102390       ??$GetClassPtr@VCTriggerHurt@@@@YAPAVCTriggerHurt@@PAV0@@Z 10103390 f i triggers.obj
 0001:00102440       ??$GetClassPtr@VCTriggerMonsterJump@@@@YAPAVCTriggerMonsterJump@@PAV0@@Z 10103440 f i triggers.obj
 0001:001024f0       ??$GetClassPtr@VCTriggerCDAudio@@@@YAPAVCTriggerCDAudio@@PAV0@@Z 101034f0 f i triggers.obj
 0001:001025a0       ??$GetClassPtr@VCTriggerMultiple@@@@YAPAVCTriggerMultiple@@PAV0@@Z 101035a0 f i triggers.obj
 0001:00102650       ??$GetClassPtr@VCTriggerOnce@@@@YAPAVCTriggerOnce@@PAV0@@Z 10103650 f i triggers.obj
 0001:00102700       ??$GetClassPtr@VCTriggerCounter@@@@YAPAVCTriggerCounter@@PAV0@@Z 10103700 f i triggers.obj
 0001:001027b0       ??$GetClassPtr@VCFireAndDie@@@@YAPAVCFireAndDie@@PAV0@@Z 101037b0 f i triggers.obj
 0001:00102860       ??$GetClassPtr@VCChangeLevel@@@@YAPAVCChangeLevel@@PAV0@@Z 10103860 f i triggers.obj
 0001:00102910       ??$GetClassPtr@VCLadder@@@@YAPAVCLadder@@PAV0@@Z 10103910 f i triggers.obj
 0001:001029c0       ??$GetClassPtr@VCTriggerPush@@@@YAPAVCTriggerPush@@PAV0@@Z 101039c0 f i triggers.obj
 0001:00102a70       ??$GetClassPtr@VCTriggerTeleport@@@@YAPAVCTriggerTeleport@@PAV0@@Z 10103a70 f i triggers.obj
 0001:00102b20       ??$GetClassPtr@VCTriggerSave@@@@YAPAVCTriggerSave@@PAV0@@Z 10103b20 f i triggers.obj
 0001:00102bd0       ??$GetClassPtr@VCTriggerEndSection@@@@YAPAVCTriggerEndSection@@PAV0@@Z 10103bd0 f i triggers.obj
 0001:00102c80       ??$GetClassPtr@VCTriggerGravity@@@@YAPAVCTriggerGravity@@PAV0@@Z 10103c80 f i triggers.obj
 0001:00102d30       ??$GetClassPtr@VCTriggerChangeTarget@@@@YAPAVCTriggerChangeTarget@@PAV0@@Z 10103d30 f i triggers.obj
 0001:00102de0       ??$GetClassPtr@VCTriggerCamera@@@@YAPAVCTriggerCamera@@PAV0@@Z 10103de0 f i triggers.obj
 0001:00102e90       _trigger_auto              10103e90 f   triggers.obj
 0001:00102ea0       _trigger_relay             10103ea0 f   triggers.obj
 0001:00102eb0       _multi_manager             10103eb0 f   triggers.obj
 0001:00102ec0       ?Clone@CMultiManager@@AAEPAV1@XZ 10103ec0 f   triggers.obj
 0001:00102f30       ?ManagerUse@CMultiManager@@QAEXPAVCBaseEntity@@0W4USE_TYPE@@M@Z 10103f30 f   triggers.obj
 0001:00102fb0       _trigger                   10103fb0 f   triggers.obj
 0001:00102fc0       _trigger_hurt              10103fc0 f   triggers.obj
 0001:00102fd0       _trigger_monsterjump       10103fd0 f   triggers.obj
 0001:00102fe0       _trigger_cdaudio           10103fe0 f   triggers.obj
 0001:00102ff0       _trigger_multiple          10103ff0 f   triggers.obj
 0001:00103000       ?Spawn@CTriggerMultiple@@UAEXXZ 10104000 f   triggers.obj
 0001:00103040       _trigger_once              10104040 f   triggers.obj
 0001:00103050       ?Spawn@CTriggerOnce@@UAEXXZ 10104050 f   triggers.obj
 0001:00103070       _trigger_counter           10104070 f   triggers.obj
 0001:00103080       _fireanddie                10104080 f   triggers.obj
 0001:00103090       _trigger_changelevel       10104090 f   triggers.obj
 0001:001030a0       ?ChangeLevelNow@CChangeLevel@@QAEXPAVCBaseEntity@@@Z 101040a0 f   triggers.obj
 0001:00103290       ?TouchChangeLevel@CChangeLevel@@QAEXPAVCBaseEntity@@@Z 10104290 f   triggers.obj
 0001:00103300       ?ChangeList@CChangeLevel@@SAHPAULEVELLIST@@H@Z 10104300 f   triggers.obj
 0001:00103800       ?NextLevel@@YAXXZ          10104800 f   triggers.obj
 0001:001038d0       _func_ladder               101048d0 f   triggers.obj
 0001:001038e0       _trigger_push              101048e0 f   triggers.obj
 0001:001038f0       _trigger_teleport          101048f0 f   triggers.obj
 0001:00103900       _trigger_autosave          10104900 f   triggers.obj
 0001:00103910       _trigger_endsection        10104910 f   triggers.obj
 0001:00103920       _trigger_gravity           10104920 f   triggers.obj
 0001:00103930       _trigger_changetarget      10104930 f   triggers.obj
 0001:00103940       _trigger_camera            10104940 f   triggers.obj
 0001:00103950       ?Spawn@CMultiManager@@UAEXXZ 10104950 f   triggers.obj
 0001:001039e0       ?UseChangeLevel@CChangeLevel@@QAEXPAVCBaseEntity@@0W4USE_TYPE@@M@Z 101049e0 f   triggers.obj
 0001:00103a20       ?BuildChangeList@@YAHPAULEVELLIST@@H@Z 10104a20 f   triggers.obj
 0001:00103a30       ?Spawn@CChangeLevel@@UAEXXZ 10104a30 f   triggers.obj
 0001:00103b00       ?Save@CTripmineGrenade@@EAEHAAVCSave@@@Z 10104b00 f   tripmine.obj
 0001:00103b40       ?Restore@CTripmineGrenade@@EAEHAAVCRestore@@@Z 10104b40 f   tripmine.obj
 0001:00103b80       ?Precache@CTripmineGrenade@@EAEXXZ 10104b80 f   tripmine.obj
 0001:00103bd0       ?KillBeam@CTripmineGrenade@@AAEXXZ 10104bd0 f   tripmine.obj
 0001:00103c00       ?Activate@CTripmineGrenade@@EAEXXZ 10104c00 f   tripmine.obj
 0001:00103c40       ?MakeBeam@CTripmineGrenade@@AAEXXZ 10104c40 f   tripmine.obj
 0001:00103da0       ?BeamBreakThink@CTripmineGrenade@@AAEXXZ 10104da0 f   tripmine.obj
 0001:00103ee0       ?TraceAttack@CTripmineGrenade@@EAEXPAUentvars_s@@MVVector@@PAUTraceResult@@HHHPAH@Z 10104ee0 f   tripmine.obj
 0001:00103f30       ?TakeDamage@CTripmineGrenade@@EAEHPAUentvars_s@@0MHH@Z 10104f30 f   tripmine.obj
 0001:00103fb0       ?DelayDeathThink@CTripmineGrenade@@AAEXXZ 10104fb0 f   tripmine.obj
 0001:00104090       ??0CTripmine@@QAE@XZ       10105090 f   tripmine.obj
 0001:001040f0       ?iItemSlot@CTripmine@@UAEHXZ 101050f0 f i tripmine.obj
 0001:00104100       ?SetObjectCollisionBox@CTripmine@@UAEXXZ 10105100 f i tripmine.obj
 0001:00104190       ?UseDecrement@CTripmine@@UAEHXZ 10105190 f i tripmine.obj
 0001:001041a0       ?customAttachToPlayer@CTripmine@@UAEXPAVCBasePlayer@@@Z 101051a0 f   tripmine.obj
 0001:001041d0       ?Spawn@CTripmine@@UAEXXZ   101051d0 f   tripmine.obj
 0001:001042a0       ?Precache@CTripmine@@UAEXXZ 101052a0 f   tripmine.obj
 0001:001042e0       ?GetItemInfo@CTripmine@@UAEHPAUItemInfo@@@Z 101052e0 f   tripmine.obj
 0001:00104350       ?Deploy@CTripmine@@UAEHXZ  10105350 f   tripmine.obj
 0001:00104390       ?Holster@CTripmine@@UAEXH@Z 10105390 f   tripmine.obj
 0001:00104460       ?PrimaryAttack@CTripmine@@UAEXXZ 10105460 f   tripmine.obj
 0001:00104760       ?ItemPreFrame@CTripmine@@UAEXXZ 10105760 f   tripmine.obj
 0001:001048a0       ?ItemPostFrame@CTripmine@@UAEXXZ 101058a0 f   tripmine.obj
 0001:001048b0       ?WeaponIdle@CTripmine@@UAEXXZ 101058b0 f   tripmine.obj
 0001:00104a20       ??$GetClassPtr@VCTripmine@@@@YAPAVCTripmine@@PAV0@@Z 10105a20 f i tripmine.obj
 0001:00104ac0       ?ActivateMine@CTripmineGrenade@@AAEXH@Z 10105ac0 f   tripmine.obj
 0001:00104b30       ?TraceAttack@CTripmineGrenade@@EAEXPAUentvars_s@@MVVector@@PAUTraceResult@@H@Z 10105b30 f   tripmine.obj
 0001:00104b70       ?TraceAttack@CTripmineGrenade@@EAEXPAUentvars_s@@MVVector@@PAUTraceResult@@HH@Z 10105b70 f   tripmine.obj
 0001:00104bb0       ?TraceAttack@CTripmineGrenade@@EAEXPAUentvars_s@@MVVector@@PAUTraceResult@@HHH@Z 10105bb0 f   tripmine.obj
 0001:00104bf0       ?TakeDamage@CTripmineGrenade@@EAEHPAUentvars_s@@0MH@Z 10105bf0 f   tripmine.obj
 0001:00104c20       ?Killed@CTripmineGrenade@@EAEXPAUentvars_s@@0H@Z 10105c20 f   tripmine.obj
 0001:00104cd0       _weapon_tripmine           10105cd0 f   tripmine.obj
 0001:00104ce0       ??0CTripmineGrenade@@QAE@XZ 10105ce0 f i tripmine.obj
 0001:00104d00       ?PowerupThink@CTripmineGrenade@@AAEXXZ 10105d00 f   tripmine.obj
 0001:00105120       ?Killed@CTripmineGrenade@@EAEXPAUentvars_s@@H@Z 10106120 f   tripmine.obj
 0001:00105140       ??$GetClassPtr@VCTripmineGrenade@@@@YAPAVCTripmineGrenade@@PAV0@@Z 10106140 f i tripmine.obj
 0001:001051f0       _monster_tripmine          101061f0 f   tripmine.obj
 0001:00105200       ?Spawn@CTripmineGrenade@@EAEXXZ 10106200 f   tripmine.obj
 0001:00105480       ?WarningThink@CTripmineGrenade@@AAEXXZ 10106480 f   tripmine.obj
 0001:001054b0       ?SpinDownCall@CBaseTurret@@UAEXXZ 101064b0 f i turret.obj
 0001:001054c0       ?SpinUpCall@CBaseTurret@@UAEXXZ 101064c0 f i turret.obj
 0001:00105590       ?Save@CBaseTurret@@UAEHAAVCSave@@@Z 10106590 f   turret.obj
 0001:001055d0       ?Restore@CBaseTurret@@UAEHAAVCRestore@@@Z 101065d0 f   turret.obj
 0001:00105610       ?Save@CTurret@@UAEHAAVCSave@@@Z 10106610 f   turret.obj
 0001:00105650       ?Restore@CTurret@@UAEHAAVCRestore@@@Z 10106650 f   turret.obj
 0001:00105690       ?KeyValue@CBaseTurret@@UAEXPAUKeyValueData_s@@@Z 10106690 f   turret.obj
 0001:00105840       ??0CBaseTurret@@QAE@XZ     10106840 f   turret.obj
 0001:00105860       ?SetObjectCollisionBox@CBaseTurret@@UAEXXZ 10106860 f i turret.obj
 0001:00105900       ?Shoot@CBaseTurret@@UAEXAAVVector@@0@Z 10106900 f i turret.obj
 0001:00105910       ?getGibInfoRef@CBaseTurret@@UAEPAUGibInfo_s@@XZ 10106910 f i turret.obj
 0001:00105920       ?getGibCVar@CBaseTurret@@UAEMXZ 10106920 f i turret.obj
 0001:00105930       ?Precache@CBaseTurret@@UAEXXZ 10106930 f   turret.obj
 0001:001059c0       ?getGibCVar@CTurret@@UAEMXZ 101069c0 f   turret.obj
 0001:001059d0       ?Precache@CTurret@@UAEXXZ  101069d0 f   turret.obj
 0001:00105a40       ?getGibCVar@CMiniTurret@@UAEMXZ 10106a40 f   turret.obj
 0001:00105a50       ?Precache@CMiniTurret@@UAEXXZ 10106a50 f   turret.obj
 0001:00105af0       ?Ping@CBaseTurret@@UAEXXZ  10106af0 f   turret.obj
 0001:00105b90       ?EyeOn@CBaseTurret@@UAEXXZ 10106b90 f   turret.obj
 0001:00105bc0       ?EyeOff@CBaseTurret@@UAEXXZ 10106bc0 f   turret.obj
 0001:00105c00       ?Shoot@CTurret@@UAEXAAVVector@@0@Z 10106c00 f   turret.obj
 0001:00105ca0       ?Shoot@CMiniTurret@@UAEXAAVVector@@0@Z 10106ca0 f   turret.obj
 0001:00105db0       ?SetTurretAnim@CBaseTurret@@QAEXW4TURRET_ANIM@@@Z 10106db0 f   turret.obj
 0001:00105e30       ?AutoSearchThink@CBaseTurret@@QAEXXZ 10106e30 f   turret.obj
 0001:00105f20       ?TraceAttack@CBaseTurret@@UAEXPAUentvars_s@@MVVector@@PAUTraceResult@@HHHPAH@Z 10106f20 f   turret.obj
 0001:00106060       ?TurretDeathCheck@CBaseTurret@@QAEHPAUentvars_s@@0MHHP81@AEXXZ@Z 10107060 f   turret.obj
 0001:00106250       ?MoveTurret@CBaseTurret@@QAEHXZ 10107250 f   turret.obj
 0001:00106500       ?Classify@CBaseTurret@@UAEHXZ 10107500 f   turret.obj
 0001:00106520       ?isOrganic@CBaseTurret@@UAEHXZ 10107520 f   turret.obj
 0001:00106530       ?Precache@CSentry@@UAEXXZ  10107530 f   turret.obj
 0001:00106590       ?getGibCVar@CSentry@@UAEMXZ 10107590 f   turret.obj
 0001:001065a0       ?Shoot@CSentry@@UAEXAAVVector@@0@Z 101075a0 f   turret.obj
 0001:001066b0       ?TraceAttack@CSentry@@UAEXPAUentvars_s@@MVVector@@PAUTraceResult@@HHHPAH@Z 101076b0 f   turret.obj
 0001:00106700       ?SentryTouch@CSentry@@QAEXPAVCBaseEntity@@@Z 10107700 f   turret.obj
 0001:00106750       ?SentryDeath@CSentry@@QAEXXZ 10107750 f   turret.obj
 0001:00106b00       ??0CTurret@@QAE@XZ         10107b00 f i turret.obj
 0001:00106b20       ?getGibInfoRef@CTurret@@UAEPAUGibInfo_s@@XZ 10107b20 f i turret.obj
 0001:00106b30       ??0CMiniTurret@@QAE@XZ     10107b30 f i turret.obj
 0001:00106b50       ?getGibInfoRef@CMiniTurret@@UAEPAUGibInfo_s@@XZ 10107b50 f i turret.obj
 0001:00106b60       ??0CSentry@@QAE@XZ         10107b60 f i turret.obj
 0001:00106b80       ?getGibInfoRef@CSentry@@UAEPAUGibInfo_s@@XZ 10107b80 f i turret.obj
 0001:00106b90       ?Initialize@CBaseTurret@@QAEXXZ 10107b90 f   turret.obj
 0001:00106ce0       ?ActiveThink@CBaseTurret@@QAEXXZ 10107ce0 f   turret.obj
 0001:001071e0       ?Retire@CBaseTurret@@QAEXXZ 101081e0 f   turret.obj
 0001:00107370       ?SpinUpCall@CTurret@@UAEXXZ 10108370 f   turret.obj
 0001:001074d0       ?SpinDownCall@CTurret@@UAEXXZ 101084d0 f   turret.obj
 0001:00107590       ?SearchThink@CBaseTurret@@QAEXXZ 10108590 f   turret.obj
 0001:00107760       ?TurretDeath@CBaseTurret@@QAEXXZ 10108760 f   turret.obj
 0001:00107b00       ?TraceAttack@CBaseTurret@@UAEXPAUentvars_s@@MVVector@@PAUTraceResult@@H@Z 10108b00 f   turret.obj
 0001:00107b40       ?TraceAttack@CBaseTurret@@UAEXPAUentvars_s@@MVVector@@PAUTraceResult@@HH@Z 10108b40 f   turret.obj
 0001:00107b80       ?TraceAttack@CBaseTurret@@UAEXPAUentvars_s@@MVVector@@PAUTraceResult@@HHH@Z 10108b80 f   turret.obj
 0001:00107bc0       ?TakeDamage@CBaseTurret@@UAEHPAUentvars_s@@0MHH@Z 10108bc0 f   turret.obj
 0001:00107cb0       ?GibMonster@CBaseTurret@@UAEXH@Z 10108cb0 f   turret.obj
 0001:00107e10       ?TraceAttack@CSentry@@UAEXPAUentvars_s@@MVVector@@PAUTraceResult@@H@Z 10108e10 f   turret.obj
 0001:00107e50       ?TraceAttack@CSentry@@UAEXPAUentvars_s@@MVVector@@PAUTraceResult@@HH@Z 10108e50 f   turret.obj
 0001:00107e90       ?TraceAttack@CSentry@@UAEXPAUentvars_s@@MVVector@@PAUTraceResult@@HHH@Z 10108e90 f   turret.obj
 0001:00107ed0       ??$GetClassPtr@VCTurret@@@@YAPAVCTurret@@PAV0@@Z 10108ed0 f i turret.obj
 0001:00107f80       ??$GetClassPtr@VCMiniTurret@@@@YAPAVCMiniTurret@@PAV0@@Z 10108f80 f i turret.obj
 0001:00108030       ??$GetClassPtr@VCSentry@@@@YAPAVCSentry@@PAV0@@Z 10109030 f i turret.obj
 0001:001080e0       _monster_turret            101090e0 f   turret.obj
 0001:001080f0       _monster_miniturret        101090f0 f   turret.obj
 0001:00108100       _turret                    10109100 f   turret.obj
 0001:00108110       _miniturret                10109110 f   turret.obj
 0001:00108120       ?Deploy@CBaseTurret@@QAEXXZ 10109120 f   turret.obj
 0001:00108270       ?TakeDamage@CBaseTurret@@UAEHPAUentvars_s@@0MH@Z 10109270 f   turret.obj
 0001:001082a0       ?GibMonster@CBaseTurret@@UAEXXZ 101092a0 f   turret.obj
 0001:001082b0       _monster_sentry            101092b0 f   turret.obj
 0001:001082c0       _sentry                    101092c0 f   turret.obj
 0001:001082d0       ?TakeDamage@CSentry@@UAEHPAUentvars_s@@0MHH@Z 101092d0 f   turret.obj
 0001:001083a0       ?TurretUse@CBaseTurret@@QAEXPAVCBaseEntity@@0W4USE_TYPE@@M@Z 101093a0 f   turret.obj
 0001:00108450       ?TakeDamage@CSentry@@UAEHPAUentvars_s@@0MH@Z 10109450 f   turret.obj
 0001:00108480       ?Spawn@CBaseTurret@@UAEXXZ 10109480 f   turret.obj
 0001:00108580       ?Spawn@CTurret@@UAEXXZ     10109580 f   turret.obj
 0001:00108760       ?Spawn@CMiniTurret@@UAEXXZ 10109760 f   turret.obj
 0001:00108870       ?Spawn@CSentry@@UAEXXZ     10109870 f   turret.obj
 0001:001089a0       _asinf                     101099a0 f i util.obj
 0001:001089c0       ?asin@@YAMM@Z              101099c0 f i util.obj
 0001:001089e0       ?Empty@CRestore@@QAEHXZ    101099e0 f i util.obj
 0001:00108a00       ?UTIL_WeaponTimeBase@@YAMXZ 10109a00 f   util.obj
 0001:00108a10       ?U_Random@@YAIXZ           10109a10 f   util.obj
 0001:00108a40       ?U_Srand@@YAXI@Z           10109a40 f   util.obj
 0001:00108a60       ?UTIL_SharedRandomLong@@YAHIHH@Z 10109a60 f   util.obj
 0001:00108aa0       ?UTIL_SharedRandomFloat@@YAMIMM@Z 10109aa0 f   util.obj
 0001:00108b30       ?UTIL_SetGroupTrace@@YAXHH@Z 10109b30 f   util.obj
 0001:00108b60       ?UTIL_UnsetGroupTrace@@YAXXZ 10109b60 f   util.obj
 0001:00108b80       ??0UTIL_GroupTrace@@QAE@HH@Z 10109b80 f   util.obj
 0001:00108bc0       ??1UTIL_GroupTrace@@QAE@XZ 10109bc0 f   util.obj
 0001:00108be0       ?UTIL_GetNextBestWeapon@@YAHPAVCBasePlayer@@PAVCBasePlayerItem@@@Z 10109be0 f   util.obj
 0001:00108c00       ?UTIL_AngleMod@@YAMM@Z     10109c00 f   util.obj
 0001:00108c70       ?UTIL_AngleDiff@@YAMMM@Z   10109c70 f   util.obj
 0001:00108ce0       ?UTIL_VecToAngles@@YA?AVVector@@ABV1@@Z 10109ce0 f   util.obj
 0001:00108d30       ?UTIL_MoveToOrigin@@YAXPAUedict_s@@ABVVector@@MH@Z 10109d30 f   util.obj
 0001:00108d80       ?UTIL_EntitiesInBoxAlsoBarnacles@@YAHPAPAVCBaseEntity@@HABVVector@@1H@Z 10109d80 f   util.obj
 0001:00108ef0       ?UTIL_EntitiesInBox@@YAHPAPAVCBaseEntity@@HABVVector@@1H@Z 10109ef0 f   util.obj
 0001:00108ff0       ?UTIL_NonDeadEntitiesInBox@@YAHPAPAVCBaseEntity@@HABVVector@@1H@Z 10109ff0 f   util.obj
 0001:00109100       ?UTIL_MonstersInSphere@@YAHPAPAVCBaseEntity@@HABVVector@@M@Z 1010a100 f   util.obj
 0001:00109220       ?UTIL_FindEntityInSphere@@YAPAVCBaseEntity@@PAV1@ABVVector@@M@Z 1010a220 f   util.obj
 0001:00109270       ?UTIL_FindEntityByString@@YAPAVCBaseEntity@@PAV1@PBD1@Z 1010a270 f   util.obj
 0001:001092c0       ?UTIL_FindEntityByClassname@@YAPAVCBaseEntity@@PAV1@PBD@Z 1010a2c0 f   util.obj
 0001:001092e0       ?UTIL_FindEntityByTargetname@@YAPAVCBaseEntity@@PAV1@PBD@Z 1010a2e0 f   util.obj
 0001:00109300       ?UTIL_FindEntityGeneric@@YAPAVCBaseEntity@@PBDAAVVector@@M@Z 1010a300 f   util.obj
 0001:001093d0       ?UTIL_PlayerByIndex@@YAPAVCBaseEntity@@H@Z 1010a3d0 f   util.obj
 0001:00109410       ?UTIL_MakeVectors@@YAXABVVector@@@Z 1010a410 f   util.obj
 0001:00109420       ?UTIL_MakeAimVectors@@YAXABVVector@@@Z 1010a420 f   util.obj
 0001:00109470       ?UTIL_MakeInvVectors@@YAXABVVector@@PAUglobalvars_t@@@Z 1010a470 f   util.obj
 0001:00109550       ?UTIL_ScreenShake@@YAXABVVector@@MMMM@Z 1010a550 f   util.obj
 0001:001096b0       ?UTIL_ScreenShakeAll@@YAXABVVector@@MMM@Z 1010a6b0 f   util.obj
 0001:001096e0       ?UTIL_ScreenFadeBuild@@YAXAAUScreenFade@@ABVVector@@MMHH@Z 1010a6e0 f   util.obj
 0001:001097a0       ?UTIL_ScreenFadeWrite@@YAXABUScreenFade@@PAVCBaseEntity@@@Z 1010a7a0 f   util.obj
 0001:00109840       ?UTIL_ScreenFadeAll@@YAXABVVector@@MMHH@Z 1010a840 f   util.obj
 0001:001098b0       ?UTIL_ScreenFade@@YAXPAVCBaseEntity@@ABVVector@@MMHH@Z 1010a8b0 f   util.obj
 0001:001098f0       ?UTIL_HudMessage@@YAXPAVCBaseEntity@@ABUhudtextparms_s@@PBD@Z 1010a8f0 f   util.obj
 0001:00109af0       ?UTIL_HudMessageAll@@YAXABUhudtextparms_s@@PBD@Z 1010aaf0 f   util.obj
 0001:00109b40       ?kbwTrace@@YAHPBDZZ        1010ab40 f   util.obj
 0001:00109b60       ?UTIL_SayText@@YAXPBDPAVCBaseEntity@@@Z 1010ab60 f   util.obj
 0001:00109bc0       ?UTIL_SayTextAll@@YAXPBDPAVCBaseEntity@@@Z 1010abc0 f   util.obj
 0001:00109c10       ?UTIL_dtos1@@YAPADH@Z      1010ac10 f   util.obj
 0001:00109c30       ?UTIL_dtos2@@YAPADH@Z      1010ac30 f   util.obj
 0001:00109c50       ?UTIL_dtos3@@YAPADH@Z      1010ac50 f   util.obj
 0001:00109c70       ?UTIL_dtos4@@YAPADH@Z      1010ac70 f   util.obj
 0001:00109c90       ?UTIL_ShowMessage@@YAXPBDPAVCBaseEntity@@@Z 1010ac90 f   util.obj
 0001:00109ce0       ?UTIL_ShowMessageAll@@YAXPBD@Z 1010ace0 f   util.obj
 0001:00109d30       ?UTIL_TraceLine@@YAXABVVector@@0W4IGNORE_MONSTERS@@W4IGNORE_GLASS@@PAUedict_s@@PAUTraceResult@@@Z 1010ad30 f   util.obj
 0001:00109d70       ?UTIL_TraceLine@@YAXABVVector@@0W4IGNORE_MONSTERS@@PAUedict_s@@PAUTraceResult@@@Z 1010ad70 f   util.obj
 0001:00109da0       ?UTIL_TraceHull@@YAXABVVector@@0W4IGNORE_MONSTERS@@HPAUedict_s@@PAUTraceResult@@@Z 1010ada0 f   util.obj
 0001:00109dd0       ?UTIL_TraceModel@@YAXABVVector@@0HPAUedict_s@@PAUTraceResult@@@Z 1010add0 f   util.obj
 0001:00109de0       ?UTIL_fromToBlood@@YAXPAVCBaseEntity@@0ABM1PAVVector@@22@Z 1010ade0 f   util.obj
 0001:0010aae0       ?UTIL_SetSizeAlt@@YAXPAUentvars_s@@ABVVector@@1@Z 1010bae0 f   util.obj
 0001:0010abf0       ?UTIL_SetSize@@YAXPAUentvars_s@@ABVVector@@1@Z 1010bbf0 f   util.obj
 0001:0010ac10       ?UTIL_VecToYaw@@YAMABVVector@@@Z 1010bc10 f   util.obj
 0001:0010ac20       ?UTIL_VecToYawRadians@@YAMABVVector@@@Z 1010bc20 f   util.obj
 0001:0010ac40       ?UTIL_VecGetForward2D@@YA?AVVector@@ABV1@@Z 1010bc40 f   util.obj
 0001:0010ac90       ?UTIL_VecGetForward@@YA?AVVector@@ABV1@@Z 1010bc90 f   util.obj
 0001:0010ad80       ?UTIL_velocityToAngles@@YA?AVVector@@ABV1@@Z 1010bd80 f   util.obj
 0001:0010aed0       ?UTIL_YawToVec@@YA?AVVector@@ABM@Z 1010bed0 f   util.obj
 0001:0010af20       ?UTIL_SetOrigin@@YAXPAUentvars_s@@ABVVector@@@Z 1010bf20 f   util.obj
 0001:0010af40       ?UTIL_SetOrigin@@YAXPAVCBaseEntity@@ABVVector@@@Z 1010bf40 f   util.obj
 0001:0010af60       ?UTIL_ParticleEffect@@YAXABVVector@@0KK@Z 1010bf60 f   util.obj
 0001:0010afa0       ?UTIL_Approach@@YAMMMM@Z   1010bfa0 f   util.obj
 0001:0010b000       ?UTIL_ApproachAngle@@YAMMMM@Z 1010c000 f   util.obj
 0001:0010b0c0       ?UTIL_AngleDistance@@YAMMM@Z 1010c0c0 f   util.obj
 0001:0010b110       ?UTIL_SplineFraction@@YAMMM@Z 1010c110 f   util.obj
 0001:0010b150       ?UTIL_GetAimVector@@YA?AVVector@@PAUedict_s@@M@Z 1010c150 f   util.obj
 0001:0010b180       ?UTIL_IsMasterTriggered@@YAHHPAVCBaseEntity@@@Z 1010c180 f   util.obj
 0001:0010b200       ?UTIL_ShouldShowBlood@@YAHH@Z 1010c200 f   util.obj
 0001:0010b270       ?UTIL_PointContents@@YAHABVVector@@@Z 1010c270 f   util.obj
 0001:0010b280       ?UTIL_BloodStream@@YAXABVVector@@0HH@Z 1010c280 f   util.obj
 0001:0010b330       ?UTIL_BloodDrips@@YAXABVVector@@0HH@Z 1010c330 f   util.obj
 0001:0010b430       ?UTIL_RandomBloodVector@@YA?AVVector@@XZ 1010c430 f   util.obj
 0001:0010b490       ?UTIL_DecalTrace@@YAXPAUTraceResult@@H@Z 1010c490 f   util.obj
 0001:0010b5a0       ?UTIL_PlayerDecalTrace@@YAXPAUTraceResult@@HHH@Z 1010c5a0 f   util.obj
 0001:0010b650       ?UTIL_GunshotDecalTrace@@YAXPAUTraceResult@@H@Z 1010c650 f   util.obj
 0001:0010b690       ?UTIL_GunshotDecalTraceForceDefault@@YAXPAUTraceResult@@H@Z 1010c690 f   util.obj
 0001:0010b6a0       ?UTIL_GetProjectileVelocityExtra@@YA?AVVector@@AAV1@M@Z 1010c6a0 f   util.obj
 0001:0010b710       ?UTIL_Sparks2@@YAXABVVector@@HM@Z 1010c710 f   util.obj
 0001:0010b7f0       ?UTIL_Sparks@@YAXABVVector@@@Z 1010c7f0 f   util.obj
 0001:0010b810       ?interpretSoundAsSentence@@YAXPADPBD@Z 1010c810 f   util.obj
 0001:0010b9d0       ?EMIT_SOUND_DYN@@YAXPAUedict_s@@HPBDMMHH@Z 1010c9d0 f   util.obj
 0001:0010ba80       ?EMIT_SOUND_SUIT@@YAXPAUedict_s@@PBD@Z 1010ca80 f   util.obj
 0001:0010bb00       ?STOP_SOUND_SUIT@@YAXPAUedict_s@@PBD@Z 1010cb00 f   util.obj
 0001:0010bb80       ?EMIT_GROUPID_SUIT@@YAXPAUedict_s@@H@Z 1010cb80 f   util.obj
 0001:0010bc00       ?EMIT_GROUPNAME_SUIT@@YAXPAUedict_s@@PBD@Z 1010cc00 f   util.obj
 0001:0010bc80       ?UTIL_EmitAmbientSound@@YAXPAUedict_s@@ABVVector@@PBDMMHH@Z 1010cc80 f   util.obj
 0001:0010bd20       ?UTIL_PRECACHESOUND@@YAXPADH@Z 1010cd20 f   util.obj
 0001:0010bd50       ?UTIL_PRECACHESOUND_ARRAY@@YAXQAPBDHH@Z 1010cd50 f   util.obj
 0001:0010bd80       ?UTIL_Smoke@@YAXABVVector@@MMMFMH@Z 1010cd80 f   util.obj
 0001:0010be30       ?UTIL_getExplosionsHaveSparks@@YAHXZ 1010ce30 f   util.obj
 0001:0010be70       ?UTIL_Ricochet@@YAXABVVector@@M@Z 1010ce70 f   util.obj
 0001:0010bef0       ?UTIL_TeamsMatch@@YAHPBD0@Z 1010cef0 f   util.obj
 0001:0010bf30       ?UTIL_StringToVector@@YAXPAMPBD@Z 1010cf30 f   util.obj
 0001:0010bfd0       ?UTIL_StringToIntArray@@YAXPAHHPBD@Z 1010cfd0 f   util.obj
 0001:0010c080       ?clamp@@YAMMMM@Z           1010d080 f   util.obj
 0001:0010c0b0       ?UTIL_ClampVectorToBoxNonNormalized@@YA?AVVector@@ABV1@0@Z 1010d0b0 f   util.obj
 0001:0010c190       ?UTIL_WaterLevel@@YAMABVVector@@MM@Z 1010d190 f   util.obj
 0001:0010c250       ?UTIL_Bubbles@@YAXVVector@@0H@Z 1010d250 f   util.obj
 0001:0010c370       ?UTIL_BubbleTrail@@YAXVVector@@0H@Z 1010d370 f   util.obj
 0001:0010c4d0       ?UTIL_Remove@@YAXPAVCBaseEntity@@@Z 1010d4d0 f   util.obj
 0001:0010c500       ?UTIL_IsValidEntity@@YAHPAUedict_s@@@Z 1010d500 f   util.obj
 0001:0010c530       ?UTIL_PrecacheOther@@YAXPBD@Z 1010d530 f   util.obj
 0001:0010c5b0       ?UTIL_LogPrintf@@YAXPADZZ  1010d5b0 f   util.obj
 0001:0010c5e0       ?UTIL_DotPoints@@YAMABVVector@@00@Z 1010d5e0 f   util.obj
 0001:0010c660       ?UTIL_StripToken@@YAXPBDPAD@Z 1010d660 f   util.obj
 0001:0010c6a0       ??0CSaveRestoreBuffer@@QAE@XZ 1010d6a0 f   util.obj
 0001:0010c6b0       ??0CSaveRestoreBuffer@@QAE@PAUsaverestore_s@@@Z 1010d6b0 f   util.obj
 0001:0010c6c0       ??1CSaveRestoreBuffer@@QAE@XZ 1010d6c0 f   util.obj
 0001:0010c6d0       ?EntityIndex@CSaveRestoreBuffer@@QAEHPAUedict_s@@@Z 1010d6d0 f   util.obj
 0001:0010c710       ?EntityFromIndex@CSaveRestoreBuffer@@QAEPAUedict_s@@H@Z 1010d710 f   util.obj
 0001:0010c750       ?EntityFlagsSet@CSaveRestoreBuffer@@QAEHHH@Z 1010d750 f   util.obj
 0001:0010c7a0       ?BufferRewind@CSaveRestoreBuffer@@IAEXH@Z 1010d7a0 f   util.obj
 0001:0010c7d0       ?HashString@CSaveRestoreBuffer@@IAEIPBD@Z 1010d7d0 f   util.obj
 0001:0010c800       ?TokenHash@CSaveRestoreBuffer@@QAEGPBD@Z 1010d800 f   util.obj
 0001:0010c8d0       ?EntvarsKeyvalue@@YAXPAUentvars_s@@PAUKeyValueData_s@@@Z 1010d8d0 f   util.obj
 0001:0010ca00       ?DataEmpty@CSave@@AAEHPBDH@Z 1010da00 f   util.obj
 0001:0010ca30       ?BufferData@CSave@@AAEXPBDH@Z 1010da30 f   util.obj
 0001:0010ca90       ?BufferPointer@CRestore@@AAEPADXZ 1010da90 f   util.obj
 0001:0010caa0       ?BufferReadBytes@CRestore@@AAEXPADH@Z 1010daa0 f   util.obj
 0001:0010cb10       ?BufferSkipBytes@CRestore@@AAEXH@Z 1010db10 f   util.obj
 0001:0010cb30       ?BufferSkipZString@CRestore@@AAEHXZ 1010db30 f   util.obj
 0001:0010cb60       ?BufferCheckZString@CRestore@@AAEHPBD@Z 1010db60 f   util.obj
 0001:0010cbc0       ?UTIL_GetMirrorOrigin@@YA?AVVector@@PAVCBaseEntity@@V1@@Z 1010dbc0 f   util.obj
 0001:0010cc30       ?UTIL_GetMirrorAngles@@YA?AVVector@@PAVCBaseEntity@@V1@@Z 1010dc30 f   util.obj
 0001:0010cc90       ?UTIL_MirrorVector@@YA?AVVector@@V1@@Z 1010dc90 f   util.obj
 0001:0010cd40       ?UTIL_MirrorPos@@YA?AVVector@@V1@@Z 1010dd40 f   util.obj
 0001:0010ce70       ?UTIL_drawLine@@YAXHHHHHH@Z 1010de70 f   util.obj
 0001:0010cee0       ?UTIL_drawRect@@YAXHHHHHH@Z 1010dee0 f   util.obj
 0001:0010cf50       ?UTIL_drawBox@@YAXHHHHHH@Z 1010df50 f   util.obj
 0001:0010d040       ?UTIL_drawLineFrame@@YAXHHHHHHHHHH@Z 1010e040 f   util.obj
 0001:0010d120       ?UTIL_drawRectFrame@@YAXHHHHHHHHHH@Z 1010e120 f   util.obj
 0001:0010d1c0       ?UTIL_drawBoxFrame@@YAXHHHHHHHHHH@Z 1010e1c0 f   util.obj
 0001:0010d350       ?UTIL_drawLineFrameBoxAround@@YAXHHHHHHHH@Z 1010e350 f   util.obj
 0001:0010d3a0       ?UTIL_drawLineFrameBoxAround2@@YAXABVVector@@HHHHH@Z 1010e3a0 f   util.obj
 0001:0010d3e0       ?UTIL_drawLineFrameBoxAround2@@YAXHHHHHHHH@Z 1010e3e0 f   util.obj
 0001:0010d540       ?UTIL_drawLineFrameBoxAround3@@YAXABVVector@@HHHHH@Z 1010e540 f   util.obj
 0001:0010d580       ?UTIL_drawLineFrameBoxAround3@@YAXHHHHHHHH@Z 1010e580 f   util.obj
 0001:0010d7d0       ?UTIL_drawLineCustom@@YAXHHHHHHHHHHHHHHHH@Z 1010e7d0 f   util.obj
 0001:0010d8b0       ?UTIL_drawRectCustom@@YAXHHHHHHHHHHHHHHHH@Z 1010e8b0 f   util.obj
 0001:0010d9b0       ?UTIL_drawBoxCustom@@YAXHHHHHHHHHHHHHHHH@Z 1010e9b0 f   util.obj
 0001:0010dc70       ?UTIL_rotateShift@@YA?AVVector@@MMMMMM@Z 1010ec70 f   util.obj
 0001:0010dd10       ?UTIL_Intersect@@YA?AVVector@@V1@00M@Z 1010ed10 f   util.obj
 0001:0010ded0       ?UTIL_generateFreakyLight@@YAXABVVector@@@Z 1010eed0 f   util.obj
 0001:0010df20       ?UTIL_getFloor@@YA?AVVector@@ABV1@ABMW4IGNORE_MONSTERS@@PAUedict_s@@@Z 1010ef20 f   util.obj
 0001:0010df90       ?isErrorVector@@YAHABVVector@@@Z 1010ef90 f   util.obj
 0001:0010dfe0       ?globalUpdateModel@@YAXABVVector@@@Z 1010efe0 f   util.obj
 0001:0010e060       ?turnWorldLightsOn@@YAXXZ  1010f060 f   util.obj
 0001:0010e130       ?turnWorldLightsOff@@YAXXZ 1010f130 f   util.obj
 0001:0010e200       ?updateCVarRefs@@YAXPAUentvars_s@@@Z 1010f200 f   util.obj
 0001:00112fc0       ?verifyModelExists@@YAHPAD@Z 10113fc0 f   util.obj
 0001:00113000       ?attemptInterpretSpawnFlag@@YAHPBD@Z 10114000 f   util.obj
 0001:001130a0       ?UTIL_PrecacheOtherWeapon@@YAXPBD@Z 101140a0 f   util.obj
 0001:00113190       ?UTIL_IsFacing@@YAHPAUentvars_s@@ABVVector@@ABM@Z 10114190 f   util.obj
 0001:00113290       ?UTIL_IsFacingAway@@YAHPAUentvars_s@@ABVVector@@ABM@Z 10114290 f   util.obj
 0001:00113380       ?randomInvert@@YAMABM@Z    10114380 f   util.obj
 0001:001133b0       ?randomAbsoluteValue@@YAMABM0@Z 101143b0 f   util.obj
 0001:00113430       ?randomValueInt@@YAHABH0@Z 10114430 f   util.obj
 0001:00113450       ?randomValue@@YAMABM0@Z    10114450 f   util.obj
 0001:00113480       ?UTIL_deriveColorFromMonsterHealth@@YAXABM0AAH11@Z 10114480 f   util.obj
 0001:00113520       ?attemptSendBulletSound@@YAXABVVector@@PAUentvars_s@@@Z 10114520 f   util.obj
 0001:00113740       ?FindEntityForward@@YAPAVCBaseEntity@@PAVCBasePlayer@@@Z 10114740 f   util.obj
 0001:00113b30       ?timeDelayFilter@@YAMM@Z   10114b30 f   util.obj
 0001:00113b70       ?UTIL_ServerMassCVarReset@@YAXPAUentvars_s@@@Z 10114b70 f   util.obj
 0001:00114a40       ?EASY_CVAR_PRINTIF@@YAXMPBDZZ 10115a40 f   util.obj
 0001:00114a90       ?EASY_CVAR_PRINTIF_VECTOR@@YAXMPBDZZ 10115a90 f   util.obj
 0001:00114aa0       ?PRINTQUEUE_STUKA_SEND@@YAXAAVPrintQueue@@PBDZZ 10115aa0 f   util.obj
 0001:00114af0       ?getGermanModelsAllowed@@YAHXZ 10115af0 f   util.obj
 0001:00114b30       ?GetStringForState@@YAPADW4STATE@@@Z 10115b30 f   util.obj
 0001:00114b80       ?matrices_setup@@YAXHH@Z   10115b80 f   util.obj
 0001:00114bb0       ?matrices_sendRow@@YAXMMM@Z 10115bb0 f   util.obj
 0001:00114bf0       ?matrices_printOut@@YAXXZ  10115bf0 f   util.obj
 0001:00114c00       ?matrices_pivotizeColumn@@YAXHH@Z 10115c00 f   util.obj
 0001:00114db0       ?matrices_divideRow@@YAXHM@Z 10115db0 f   util.obj
 0001:00114eb0       ?matrices_swapRows@@YAXHH@Z 10115eb0 f   util.obj
 0001:00115080       ?UTIL_CreateNamedEntity@@YAPAVCBaseEntity@@PBD@Z 10116080 f   util.obj
 0001:001150c0       ?entityHidden@@YAHPAVCBaseEntity@@@Z 101160c0 f   util.obj
 0001:001150e0       ?entityHidden@@YAHPAUedict_s@@@Z 101160e0 f   util.obj
 0001:00115100       ?OnBeforeChangeLevelTransition@@YAXXZ 10116100 f   util.obj
 0001:00115110       ?OnMapLoadEnd@@YAXXZ       10116110 f   util.obj
 0001:00115130       ?TOGGLE_STATE_STR_Safe@@YAPBDH@Z 10116130 f   util.obj
 0001:00115150       ?ResetDynamicStaticIDs@@YAXXZ 10116150 f   util.obj
 0001:00115170       ?SaveDynamicIDs@@YAXPAVCGlobalState@@@Z 10116170 f   util.obj
 0001:001151a0       ?RestoreDynamicIDs@@YAXPAVCGlobalState@@@Z 101161a0 f   util.obj
 0001:001151d0       ??$_Pow_int@M@@YAMMH@Z     101161d0 f i util.obj
 0001:00115220       ?pow@@YAMMH@Z              10116220 f i util.obj
 0001:00115240       ?UTIL_ParametricRocket@@YAXPAUentvars_s@@VVector@@1PAUedict_s@@@Z 10116240 f   util.obj
 0001:00115390       ?UTIL_GetGlobalTrace@@YA?AUTraceResult@@XZ 10116390 f   util.obj
 0001:00115460       ?UTIL_fromToBlood@@YAXPAVCBaseEntity@@0ABM@Z 10116460 f   util.obj
 0001:00115490       ?UTIL_fromToBlood@@YAXPAVCBaseEntity@@0ABM1@Z 10116490 f   util.obj
 0001:001154c0       ?UTIL_BloodDecalTrace@@YAXPAUTraceResult@@H@Z 101164c0 f   util.obj
 0001:00115540       ?UTIL_PlaySound@@YAXPAUedict_s@@HPBDMMHHH@Z 10116540 f   util.obj
 0001:00115600       ?UTIL_EmitAmbientSound_Filtered@@YAXPAUedict_s@@ABVVector@@PBDMMHHH@Z 10116600 f   util.obj
 0001:001156b0       ?UTIL_PRECACHESOUND@@YAXPAD@Z 101166b0 f   util.obj
 0001:001156e0       ?UTIL_PRECACHESOUND_ARRAY@@YAXQAPBDH@Z 101166e0 f   util.obj
 0001:00115720       ?UTIL_Smoke@@YAXABVVector@@FMH@Z 10116720 f   util.obj
 0001:00115750       ?UTIL_ClampVectorToBox@@YA?AVVector@@ABV1@0@Z 10116750 f   util.obj
 0001:00115780       ?UTIL_IsDeadEntity@@YAHPAVCBaseEntity@@@Z 10116780 f   util.obj
 0001:001157c0       ?UTIL_IsAliveEntity@@YAHPAVCBaseEntity@@@Z 101167c0 f   util.obj
 0001:00115800       ?UTIL_IsValidEntity@@YAHPAVCBaseEntity@@@Z 10116800 f   util.obj
 0001:00115820       ?EntityIndex@CSaveRestoreBuffer@@QAEHPAUentvars_s@@@Z 10116820 f   util.obj
 0001:00115850       ?EntityIndex@CSaveRestoreBuffer@@QAEHH@Z 10116850 f   util.obj
 0001:00115870       ?BufferString@CSave@@AAEXPADH@Z 10116870 f   util.obj
 0001:001158a0       ?BufferHeader@CSave@@AAEXPBDH@Z 101168a0 f   util.obj
 0001:001158f0       ?ReadField@CRestore@@QAEHPAXPAUTYPEDESCRIPTION@@HHHPAD0@Z 101168f0 f   util.obj
 0001:00115c30       ?ReadShort@CRestore@@QAEFXZ 10116c30 f   util.obj
 0001:00115c50       ?ReadInt@CRestore@@QAEHXZ  10116c50 f   util.obj
 0001:00115c70       ?UTIL_drawLine@@YAXABVVector@@0@Z 10116c70 f   util.obj
 0001:00115cc0       ?UTIL_drawRect@@YAXABVVector@@0@Z 10116cc0 f   util.obj
 0001:00115d10       ?UTIL_drawBox@@YAXABVVector@@0@Z 10116d10 f   util.obj
 0001:00115d60       ?UTIL_drawLineFrame@@YAXABVVector@@0HHHH@Z 10116d60 f   util.obj
 0001:00115dc0       ?UTIL_drawRectFrame@@YAXABVVector@@0HHHH@Z 10116dc0 f   util.obj
 0001:00115e20       ?UTIL_drawBoxFrame@@YAXABVVector@@0HHHH@Z 10116e20 f   util.obj
 0001:00115e80       ?UTIL_drawLineFrameBoxAround@@YAXABVVector@@HHHHH@Z 10116e80 f   util.obj
 0001:00115ec0       ?UTIL_drawLineCustom@@YAXABVVector@@0HHHHHHHHHH@Z 10116ec0 f   util.obj
 0001:00115f40       ?UTIL_drawRectCustom@@YAXABVVector@@0HHHHHHHHHH@Z 10116f40 f   util.obj
 0001:00115fc0       ?UTIL_drawBoxCustom@@YAXABVVector@@0HHHHHHHHHH@Z 10116fc0 f   util.obj
 0001:00116040       ?UTIL_rotateShift@@YA?AVVector@@ABV1@0@Z 10117040 f   util.obj
 0001:00116090       ?UTIL_rotateShift@@YA?AVVector@@ABV1@MMM@Z 10117090 f   util.obj
 0001:001160e0       ?UTIL_rotateShift@@YA?AVVector@@MMMABV1@@Z 101170e0 f   util.obj
 0001:00116130       ?UTIL_projectionComponent@@YA?AVVector@@ABV1@0@Z 10117130 f   util.obj
 0001:00116240       ?UTIL_projectionComponentPreserveMag@@YA?AVVector@@ABV1@0@Z 10117240 f   util.obj
 0001:001163d0       ?UTIL_BloodColorRedFilter@@YAHH@Z 101173d0 f   util.obj
 0001:001163f0       ?W_Precache@@YAXXZ         101173f0 f   util.obj
 0001:00116670       ?ClientPrecache@@YAXXZ     10117670 f   util.obj
 0001:00116c40       ?ExtraWorldPrecache@@YAXXZ 10117c40 f   util.obj
 0001:00116ca0       ?precacheAll@@YAXXZ        10117ca0 f   util.obj
 0001:00118140       ?UTIL_IsFacing@@YAHPAUentvars_s@@ABVVector@@@Z 10119140 f   util.obj
 0001:00118170       ?UTIL_IsFacingAway@@YAHPAUentvars_s@@ABVVector@@@Z 10119170 f   util.obj
 0001:001181a0       ?getRotatedVectorAboutZAxis@@YA?AVVector@@ABV1@ABM@Z 101191a0 f   util.obj
 0001:00118250       ?projectionOntoPlane@@YA?AVVector@@V1@0@Z 10119250 f   util.obj
 0001:00118310       ?matrices_rowReduce@@YAXXZ 10119310 f   util.obj
 0001:001183b0       ?OnMapLoadStart@@YAXXZ     101193b0 f   util.obj
 0001:001183f0       ?EMIT_SOUND_FILTERED@@YAXPAUedict_s@@HPBDMM@Z 101193f0 f   util.obj
 0001:00118450       ?EMIT_SOUND_FILTERED@@YAXPAUedict_s@@HPBDMMH@Z 10119450 f   util.obj
 0001:00118490       ?EMIT_SOUND_FILTERED@@YAXPAUedict_s@@HPBDMMHH@Z 10119490 f   util.obj
 0001:001184f0       ?EMIT_SOUND_FILTERED@@YAXPAUedict_s@@HPBDMMHHH@Z 101194f0 f   util.obj
 0001:00118530       ?UTIL_PlaySound@@YAXPAUentvars_s@@HPBDMM@Z 10119530 f   util.obj
 0001:001185a0       ?UTIL_PlaySound@@YAXPAUentvars_s@@HPBDMMH@Z 101195a0 f   util.obj
 0001:001185e0       ?UTIL_PlaySound@@YAXPAUedict_s@@HPBDMM@Z 101195e0 f   util.obj
 0001:00118640       ?UTIL_PlaySound@@YAXPAUedict_s@@HPBDMMH@Z 10119640 f   util.obj
 0001:00118680       ?UTIL_PlaySound@@YAXPAUentvars_s@@HPBDMMHH@Z 10119680 f   util.obj
 0001:001186f0       ?UTIL_PlaySound@@YAXPAUentvars_s@@HPBDMMHHH@Z 101196f0 f   util.obj
 0001:00118730       ?UTIL_PlaySound@@YAXPAUedict_s@@HPBDMMHH@Z 10119730 f   util.obj
 0001:00118790       ?UTIL_EmitAmbientSound_Filtered@@YAXPAUentvars_s@@ABVVector@@PBDMM@Z 10119790 f   util.obj
 0001:001187f0       ?UTIL_EmitAmbientSound_Filtered@@YAXPAUentvars_s@@ABVVector@@PBDMMH@Z 101197f0 f   util.obj
 0001:00118830       ?UTIL_EmitAmbientSound_Filtered@@YAXPAUentvars_s@@ABVVector@@PBDMMHH@Z 10119830 f   util.obj
 0001:001188a0       ?UTIL_EmitAmbientSound_Filtered@@YAXPAUentvars_s@@ABVVector@@PBDMMHHH@Z 101198a0 f   util.obj
 0001:001188e0       ?UTIL_EmitAmbientSound_Filtered@@YAXPAUedict_s@@ABVVector@@PBDMMHH@Z 101198e0 f   util.obj
 0001:00118940       ?UTIL_Explosion@@YAXPAUentvars_s@@ABVVector@@MMMFMHH1M@Z 10119940 f   util.obj
 0001:00118bb0       ?EntityIndex@CSaveRestoreBuffer@@QAEHPAVCBaseEntity@@@Z 10119bb0 f   util.obj
 0001:00118bd0       ?WriteTime@CSave@@QAEXPBDPBMH@Z 10119bd0 f   util.obj
 0001:00118c30       ?WriteString@CSave@@QAEXPBDPBHH@Z 10119c30 f   util.obj
 0001:00118cd0       ?WriteVector@CSave@@QAEXPBDPBMH@Z 10119cd0 f   util.obj
 0001:00118d00       ?WritePositionVector@CSave@@QAEXPBDPBMH@Z 10119d00 f   util.obj
 0001:00118db0       ?BufferField@CSave@@AAEXPBDH0@Z 10119db0 f   util.obj
 0001:00118de0       ?BufferReadHeader@CRestore@@AAEXPAUHEADER@@@Z 10119de0 f   util.obj
 0001:00118e20       ?ReadNamedInt@CRestore@@QAEHPBD@Z 10119e20 f   util.obj
 0001:00118e40       ?ReadNamedString@CRestore@@QAEPADPBD@Z 10119e40 f   util.obj
 0001:00118e60       ?matrices_getResults@@YAXPAM0@Z 10119e60 f   util.obj
 0001:00118eb0       ?UTIL_playOrganicGibSound@@YAXPAUentvars_s@@@Z 10119eb0 f   util.obj
 0001:00118f70       ?UTIL_playMetalGibSound@@YAXPAUentvars_s@@@Z 10119f70 f   util.obj
 0001:00119080       ?UTIL_Explosion@@YAXABVVector@@FMHH@Z 1011a080 f   util.obj
 0001:001190c0       ?UTIL_Explosion@@YAXABVVector@@MMMFMHH@Z 1011a0c0 f   util.obj
 0001:00119110       ?UTIL_Explosion@@YAXABVVector@@FMHH0@Z 1011a110 f   util.obj
 0001:00119150       ?UTIL_Explosion@@YAXPAUentvars_s@@ABVVector@@FMHH@Z 1011a150 f   util.obj
 0001:00119190       ?UTIL_Explosion@@YAXPAUentvars_s@@ABVVector@@MMMFMHH@Z 1011a190 f   util.obj
 0001:001191e0       ?UTIL_Explosion@@YAXPAUentvars_s@@ABVVector@@MMMFMHHM@Z 1011a1e0 f   util.obj
 0001:00119230       ?UTIL_Explosion@@YAXPAUentvars_s@@ABVVector@@FMHH1@Z 1011a230 f   util.obj
 0001:00119280       ?UTIL_Explosion@@YAXPAUentvars_s@@ABVVector@@FMHH1M@Z 1011a280 f   util.obj
 0001:001192d0       ?UTIL_Explosion@@YAXABVVector@@MMMFMHH0@Z 1011a2d0 f   util.obj
 0001:00119320       ?UTIL_Explosion@@YAXPAUentvars_s@@ABVVector@@MMMFMHH1@Z 1011a320 f   util.obj
 0001:00119370       ?WriteData@CSave@@QAEXPBDH0@Z 1011a370 f   util.obj
 0001:00119380       ?WriteShort@CSave@@QAEXPBDPBFH@Z 1011a380 f   util.obj
 0001:001193a0       ?WriteInt@CSave@@QAEXPBDPBHH@Z 1011a3a0 f   util.obj
 0001:001193c0       ?WriteFloat@CSave@@QAEXPBDPBMH@Z 1011a3c0 f   util.obj
 0001:001193e0       ?WriteString@CSave@@QAEXPBD0@Z 1011a3e0 f   util.obj
 0001:00119410       ?WriteVector@CSave@@QAEXPBDABVVector@@@Z 1011a410 f   util.obj
 0001:00119430       ?WritePositionVector@CSave@@QAEXPBDABVVector@@@Z 1011a430 f   util.obj
 0001:00119490       ?WriteFunction@CSave@@QAEXPBDPBHH@Z 1011a490 f   util.obj
 0001:001194f0       ?WriteFields@CSave@@QAEHPBDPAXPAUTYPEDESCRIPTION@@H@Z 1011a4f0 f   util.obj
 0001:00119860       ?ReadFields@CRestore@@QAEHPBDPAXPAUTYPEDESCRIPTION@@H@Z 1011a860 f   util.obj
 0001:00119950       ?WriteEntVars@CSave@@QAEHPBDPAUentvars_s@@@Z 1011a950 f   util.obj
 0001:00119970       ?ReadEntVars@CRestore@@QAEHPBDPAUentvars_s@@@Z 1011a970 f   util.obj
 0001:00119990       ??0CBitVecAccessor@@QAE@PAKH@Z 1011a990 f i voice_gamemgr.obj
 0001:001199b0       ??4CBitVecAccessor@@QAEXH@Z 1011a9b0 f i voice_gamemgr.obj
 0001:001199e0       ??BCBitVecAccessor@@QAEKXZ 1011a9e0 f i voice_gamemgr.obj
 0001:00119a70       ??0CVoiceGameMgr@@QAE@XZ   1011aa70 f   voice_gamemgr.obj
 0001:00119a90       ??1CVoiceGameMgr@@UAE@XZ   1011aa90 f   voice_gamemgr.obj
 0001:00119aa0       ?Init@CVoiceGameMgr@@QAE_NPAVIVoiceGameMgrHelper@@H@Z 1011aaa0 f   voice_gamemgr.obj
 0001:00119b30       ?SetHelper@CVoiceGameMgr@@QAEXPAVIVoiceGameMgrHelper@@@Z 1011ab30 f   voice_gamemgr.obj
 0001:00119b40       ??0?$CBitVec@$0CA@@@QAE@XZ 1011ab40 f i voice_gamemgr.obj
 0001:00119b50       ??A?$CBitVec@$0CA@@@QAE?AVCBitVecAccessor@@H@Z 1011ab50 f i voice_gamemgr.obj
 0001:00119b70       ??4?$CBitVec@$0CA@@@QAEAAV0@ABV0@@Z 1011ab70 f i voice_gamemgr.obj
 0001:00119b80       ?GetDWord@?$CBitVec@$0CA@@@QAEKH@Z 1011ab80 f i voice_gamemgr.obj
 0001:00119b90       ?SetDWord@?$CBitVec@$0CA@@@QAEXHK@Z 1011ab90 f i voice_gamemgr.obj
 0001:00119ba0       ??8?$CBitVec@$0CA@@@QAE_NABV0@@Z 1011aba0 f i voice_gamemgr.obj
 0001:00119bd0       ?GetNumBits@?$CBitVec@$0CA@@@QAEHXZ 1011abd0 f i voice_gamemgr.obj
 0001:00119be0       ??_ECVoiceGameMgr@@UAEPAXI@Z 1011abe0 f i voice_gamemgr.obj
 0001:00119be0       ??_GCVoiceGameMgr@@UAEPAXI@Z 1011abe0 f i voice_gamemgr.obj
 0001:00119c10       ?PlayerHasBlockedPlayer@CVoiceGameMgr@@QAE_NPAVCBasePlayer@@0@Z 1011ac10 f   voice_gamemgr.obj
 0001:00119c90       ?ClientCommand@CVoiceGameMgr@@QAE_NPAVCBasePlayer@@PBD@Z 1011ac90 f   voice_gamemgr.obj
 0001:00119e20       ?Init@?$CBitVec@$0CA@@@QAEXH@Z 1011ae20 f i voice_gamemgr.obj
 0001:00119e70       ??9?$CBitVec@$0CA@@@QAE_NABV0@@Z 1011ae70 f i voice_gamemgr.obj
 0001:00119eb0       ?ClientConnected@CVoiceGameMgr@@QAEXPAUedict_s@@@Z 1011aeb0 f   voice_gamemgr.obj
 0001:00119f40       ?UpdateMasks@CVoiceGameMgr@@AAEXXZ 1011af40 f   voice_gamemgr.obj
 0001:0011a190       ?Update@CVoiceGameMgr@@QAEXN@Z 1011b190 f   voice_gamemgr.obj
 0001:0011a1c0       ?ENT@@YAPAUedict_s@@PAU1@@Z 1011b1c0 f   util_entity.obj
 0001:0011a1d0       ?ENT@@YAPAUedict_s@@H@Z    1011b1d0 f   util_entity.obj
 0001:0011a1e0       ?OFFSET@@YAHH@Z            1011b1e0 f   util_entity.obj
 0001:0011a1f0       ?OFFSET@@YAHPBUedict_s@@@Z 1011b1f0 f   util_entity.obj
 0001:0011a200       ?OFFSET@@YAHPAUentvars_s@@@Z 1011b200 f   util_entity.obj
 0001:0011a220       ?VARS@@YAPAUentvars_s@@H@Z 1011b220 f   util_entity.obj
 0001:0011a240       ?ENTINDEX@@YAHPAUedict_s@@@Z 1011b240 f   util_entity.obj
 0001:0011a250       ?INDEXENT@@YAPAUedict_s@@H@Z 1011b250 f   util_entity.obj
 0001:0011a260       ?Deploy@CBasePlayerItem@@UAEHXZ 1011b260 f i weapons.obj
 0001:0011a270       ?MaxAmmoCarry@@YAHH@Z      1011b270 f   weapons.obj
 0001:0011a360       ?ClearMultiDamage@@YAXXZ   1011b360 f   weapons.obj
 0001:0011a380       ?SpawnBlood@@YAXVVector@@HM@Z 1011b380 f   weapons.obj
 0001:0011a3b0       ?DamageDecal@@YAHPAVCBaseEntity@@HH@Z 1011b3b0 f   weapons.obj
 0001:0011a3e0       ?EjectBrass@@YAXABVVector@@0MHH@Z 1011b3e0 f   weapons.obj
 0001:0011a480       ?AddAmmoNameToAmmoRegistry@@YAXPBD@Z 1011b480 f   weapons.obj
 0001:0011a4e0       ?Save@CBasePlayerItem@@UAEHAAVCSave@@@Z 1011b4e0 f   weapons.obj
 0001:0011a520       ?Restore@CBasePlayerItem@@UAEHAAVCRestore@@@Z 1011b520 f   weapons.obj
 0001:0011a560       ?Save@CBasePlayerWeapon@@UAEHAAVCSave@@@Z 1011b560 f   weapons.obj
 0001:0011a5a0       ?Restore@CBasePlayerWeapon@@UAEHAAVCRestore@@@Z 1011b5a0 f   weapons.obj
 0001:0011a5e0       ?SetObjectCollisionBox@CBasePlayerItem@@UAEXXZ 1011b5e0 f   weapons.obj
 0001:0011a670       ?CheckRespawn@CBasePlayerItem@@QAEXXZ 1011b670 f   weapons.obj
 0001:0011a6a0       ?DefaultTouch@CBasePlayerItem@@QAEXPAVCBaseEntity@@@Z 1011b6a0 f   weapons.obj
 0001:0011a740       ?CanAttack@@YAHMMH@Z       1011b740 f   weapons.obj
 0001:0011a770       ?setchargeReady@CBasePlayerWeapon@@QAEXH@Z 1011b770 f   weapons.obj
 0001:0011a7a0       ?getchargeReady@CBasePlayerWeapon@@QAEHXZ 1011b7a0 f   weapons.obj
 0001:0011a7b0       ?forceBlockLooping@CBasePlayerWeapon@@QAEXXZ 1011b7b0 f   weapons.obj
 0001:0011a7c0       ?stopBlockLooping@CBasePlayerWeapon@@QAEXXZ 1011b7c0 f   weapons.obj
 0001:0011a7d0       ??0CBasePlayerItem@@QAE@XZ 1011b7d0 f i weapons.obj
 0001:0011a7f0       ?AddDuplicate@CBasePlayerItem@@UAEHPAV1@@Z 1011b7f0 f i weapons.obj
 0001:0011a800       ?GetItemInfo@CBasePlayerItem@@UAEHPAUItemInfo@@@Z 1011b800 f i weapons.obj
 0001:0011a810       ?CanDeploy@CBasePlayerItem@@UAEHXZ 1011b810 f i weapons.obj
 0001:0011a820       ?UpdateItemInfo@CBasePlayerItem@@UAEXXZ 1011b820 f i weapons.obj
 0001:0011a830       ?ItemPreFrame@CBasePlayerItem@@UAEXXZ 1011b830 f i weapons.obj
 0001:0011a840       ?ItemPostFrame@CBasePlayerItem@@UAEXXZ 1011b840 f i weapons.obj
 0001:0011a850       ?customAttachToPlayer@CBasePlayerItem@@UAEXPAVCBasePlayer@@@Z 1011b850 f i weapons.obj
 0001:0011a860       ?PrimaryAmmoIndex@CBasePlayerItem@@UAEHXZ 1011b860 f i weapons.obj
 0001:0011a870       ?SecondaryAmmoIndex@CBasePlayerItem@@UAEHXZ 1011b870 f i weapons.obj
 0001:0011a880       ?UpdateClientData@CBasePlayerItem@@UAEHPAVCBasePlayer@@@Z 1011b880 f i weapons.obj
 0001:0011a890       ?GetWeaponPtr@CBasePlayerItem@@UAEPAV1@XZ 1011b890 f i weapons.obj
 0001:0011a8a0       ?iItemSlot@CBasePlayerItem@@UAEHXZ 1011b8a0 f i weapons.obj
 0001:0011a8b0       ?randomIdleAnimationDelay@CBasePlayerWeapon@@UAEMXZ 1011b8b0 f   weapons.obj
 0001:0011a900       ?ItemPreFrame@CBasePlayerWeapon@@UAEXXZ 1011b900 f   weapons.obj
 0001:0011a910       ?ItemPostFrame@CBasePlayerWeapon@@UAEXXZ 1011b910 f   weapons.obj
 0001:0011aeb0       ?DestroyItem@CBasePlayerItem@@QAEXXZ 1011beb0 f   weapons.obj
 0001:0011aee0       ?AddToPlayer@CBasePlayerItem@@UAEHPAVCBasePlayer@@@Z 1011bee0 f   weapons.obj
 0001:0011af00       ?Drop@CBasePlayerItem@@UAEXXZ 1011bf00 f   weapons.obj
 0001:0011af40       ?Kill@CBasePlayerItem@@UAEXXZ 1011bf40 f   weapons.obj
 0001:0011af80       ?Holster@CBasePlayerItem@@UAEXH@Z 1011bf80 f   weapons.obj
 0001:0011afb0       ?AttachToPlayer@CBasePlayerItem@@UAEXPAVCBasePlayer@@@Z 1011bfb0 f   weapons.obj
 0001:0011b050       ?AddDuplicate@CBasePlayerWeapon@@UAEHPAVCBasePlayerItem@@@Z 1011c050 f   weapons.obj
 0001:0011b080       ?AddToPlayer@CBasePlayerWeapon@@UAEHPAVCBasePlayer@@@Z 1011c080 f   weapons.obj
 0001:0011b110       ?UpdateClientData@CBasePlayerWeapon@@UAEHPAVCBasePlayer@@@Z 1011c110 f   weapons.obj
 0001:0011b210       ?SendWeaponAnim@CBasePlayerWeapon@@UAEXHHH@Z 1011c210 f   weapons.obj
 0001:0011b2e0       ?SendWeaponAnimReverse@CBasePlayerWeapon@@UAEXHHH@Z 1011c2e0 f   weapons.obj
 0001:0011b3c0       ?SendWeaponAnimBypass@CBasePlayerWeapon@@UAEXHH@Z 1011c3c0 f   weapons.obj
 0001:0011b440       ?SendWeaponAnimBypassReverse@CBasePlayerWeapon@@UAEXHH@Z 1011c440 f   weapons.obj
 0001:0011b4d0       ?SendWeaponAnimClientOnly@CBasePlayerWeapon@@UAEXHH@Z 1011c4d0 f   weapons.obj
 0001:0011b4e0       ?SendWeaponAnimClientOnlyReverse@CBasePlayerWeapon@@UAEXHH@Z 1011c4e0 f   weapons.obj
